
4 semester.elf:     file format elf32-avr

Sections:
Idx Name          Size      VMA       LMA       File off  Algn
  0 .data         0000075a  00800200  00009950  000099e4  2**0
                  CONTENTS, ALLOC, LOAD, DATA
  1 .text         00009950  00000000  00000000  00000094  2**1
                  CONTENTS, ALLOC, LOAD, READONLY, CODE
  2 .bss          00000ffa  0080095a  0080095a  0000a13e  2**0
                  ALLOC
  3 .comment      0000005c  00000000  00000000  0000a13e  2**0
                  CONTENTS, READONLY
  4 .note.gnu.avr.deviceinfo 00000040  00000000  00000000  0000a19c  2**2
                  CONTENTS, READONLY
  5 .debug_aranges 00000b90  00000000  00000000  0000a1dc  2**0
                  CONTENTS, READONLY, DEBUGGING
  6 .debug_info   0000abbd  00000000  00000000  0000ad6c  2**0
                  CONTENTS, READONLY, DEBUGGING
  7 .debug_abbrev 000031f9  00000000  00000000  00015929  2**0
                  CONTENTS, READONLY, DEBUGGING
  8 .debug_line   0000739d  00000000  00000000  00018b22  2**0
                  CONTENTS, READONLY, DEBUGGING
  9 .debug_frame  00002af8  00000000  00000000  0001fec0  2**2
                  CONTENTS, READONLY, DEBUGGING
 10 .debug_str    000042b3  00000000  00000000  000229b8  2**0
                  CONTENTS, READONLY, DEBUGGING
 11 .debug_loc    0000734b  00000000  00000000  00026c6b  2**0
                  CONTENTS, READONLY, DEBUGGING
 12 .debug_ranges 00000a10  00000000  00000000  0002dfb6  2**0
                  CONTENTS, READONLY, DEBUGGING

Disassembly of section .text:

00000000 <__vectors>:
       0:	02 c1       	rjmp	.+516    	; 0x206 <__ctors_end>
       2:	00 00       	nop
       4:	21 c1       	rjmp	.+578    	; 0x248 <__bad_interrupt>
       6:	00 00       	nop
       8:	1f c1       	rjmp	.+574    	; 0x248 <__bad_interrupt>
       a:	00 00       	nop
       c:	1d c1       	rjmp	.+570    	; 0x248 <__bad_interrupt>
       e:	00 00       	nop
      10:	1b c1       	rjmp	.+566    	; 0x248 <__bad_interrupt>
      12:	00 00       	nop
      14:	19 c1       	rjmp	.+562    	; 0x248 <__bad_interrupt>
      16:	00 00       	nop
      18:	17 c1       	rjmp	.+558    	; 0x248 <__bad_interrupt>
      1a:	00 00       	nop
      1c:	15 c1       	rjmp	.+554    	; 0x248 <__bad_interrupt>
      1e:	00 00       	nop
      20:	13 c1       	rjmp	.+550    	; 0x248 <__bad_interrupt>
      22:	00 00       	nop
      24:	11 c1       	rjmp	.+546    	; 0x248 <__bad_interrupt>
      26:	00 00       	nop
      28:	0f c1       	rjmp	.+542    	; 0x248 <__bad_interrupt>
      2a:	00 00       	nop
      2c:	0d c1       	rjmp	.+538    	; 0x248 <__bad_interrupt>
      2e:	00 00       	nop
      30:	0c 94 ae 0f 	jmp	0x1f5c	; 0x1f5c <__vector_12>
      34:	09 c1       	rjmp	.+530    	; 0x248 <__bad_interrupt>
      36:	00 00       	nop
      38:	07 c1       	rjmp	.+526    	; 0x248 <__bad_interrupt>
      3a:	00 00       	nop
      3c:	05 c1       	rjmp	.+522    	; 0x248 <__bad_interrupt>
      3e:	00 00       	nop
      40:	03 c1       	rjmp	.+518    	; 0x248 <__bad_interrupt>
      42:	00 00       	nop
      44:	01 c1       	rjmp	.+514    	; 0x248 <__bad_interrupt>
      46:	00 00       	nop
      48:	ff c0       	rjmp	.+510    	; 0x248 <__bad_interrupt>
      4a:	00 00       	nop
      4c:	fd c0       	rjmp	.+506    	; 0x248 <__bad_interrupt>
      4e:	00 00       	nop
      50:	fb c0       	rjmp	.+502    	; 0x248 <__bad_interrupt>
      52:	00 00       	nop
      54:	f9 c0       	rjmp	.+498    	; 0x248 <__bad_interrupt>
      56:	00 00       	nop
      58:	f7 c0       	rjmp	.+494    	; 0x248 <__bad_interrupt>
      5a:	00 00       	nop
      5c:	f5 c0       	rjmp	.+490    	; 0x248 <__bad_interrupt>
      5e:	00 00       	nop
      60:	f3 c0       	rjmp	.+486    	; 0x248 <__bad_interrupt>
      62:	00 00       	nop
      64:	0c 94 ad 40 	jmp	0x815a	; 0x815a <__vector_25>
      68:	0c 94 ff 40 	jmp	0x81fe	; 0x81fe <__vector_26>
      6c:	ed c0       	rjmp	.+474    	; 0x248 <__bad_interrupt>
      6e:	00 00       	nop
      70:	eb c0       	rjmp	.+470    	; 0x248 <__bad_interrupt>
      72:	00 00       	nop
      74:	e9 c0       	rjmp	.+466    	; 0x248 <__bad_interrupt>
      76:	00 00       	nop
      78:	e7 c0       	rjmp	.+462    	; 0x248 <__bad_interrupt>
      7a:	00 00       	nop
      7c:	e5 c0       	rjmp	.+458    	; 0x248 <__bad_interrupt>
      7e:	00 00       	nop
      80:	e3 c0       	rjmp	.+454    	; 0x248 <__bad_interrupt>
      82:	00 00       	nop
      84:	e1 c0       	rjmp	.+450    	; 0x248 <__bad_interrupt>
      86:	00 00       	nop
      88:	df c0       	rjmp	.+446    	; 0x248 <__bad_interrupt>
      8a:	00 00       	nop
      8c:	dd c0       	rjmp	.+442    	; 0x248 <__bad_interrupt>
      8e:	00 00       	nop
      90:	0c 94 43 41 	jmp	0x8286	; 0x8286 <__vector_36>
      94:	0c 94 95 41 	jmp	0x832a	; 0x832a <__vector_37>
      98:	d7 c0       	rjmp	.+430    	; 0x248 <__bad_interrupt>
      9a:	00 00       	nop
      9c:	0c 94 e0 45 	jmp	0x8bc0	; 0x8bc0 <__vector_39>
      a0:	d3 c0       	rjmp	.+422    	; 0x248 <__bad_interrupt>
      a2:	00 00       	nop
      a4:	d1 c0       	rjmp	.+418    	; 0x248 <__bad_interrupt>
      a6:	00 00       	nop
      a8:	cf c0       	rjmp	.+414    	; 0x248 <__bad_interrupt>
      aa:	00 00       	nop
      ac:	cd c0       	rjmp	.+410    	; 0x248 <__bad_interrupt>
      ae:	00 00       	nop
      b0:	cb c0       	rjmp	.+406    	; 0x248 <__bad_interrupt>
      b2:	00 00       	nop
      b4:	c9 c0       	rjmp	.+402    	; 0x248 <__bad_interrupt>
      b6:	00 00       	nop
      b8:	c7 c0       	rjmp	.+398    	; 0x248 <__bad_interrupt>
      ba:	00 00       	nop
      bc:	c5 c0       	rjmp	.+394    	; 0x248 <__bad_interrupt>
      be:	00 00       	nop
      c0:	c3 c0       	rjmp	.+390    	; 0x248 <__bad_interrupt>
      c2:	00 00       	nop
      c4:	c1 c0       	rjmp	.+386    	; 0x248 <__bad_interrupt>
      c6:	00 00       	nop
      c8:	bf c0       	rjmp	.+382    	; 0x248 <__bad_interrupt>
      ca:	00 00       	nop
      cc:	0c 94 d9 41 	jmp	0x83b2	; 0x83b2 <__vector_51>
      d0:	0c 94 2b 42 	jmp	0x8456	; 0x8456 <__vector_52>
      d4:	b9 c0       	rjmp	.+370    	; 0x248 <__bad_interrupt>
      d6:	00 00       	nop
      d8:	0c 94 6f 42 	jmp	0x84de	; 0x84de <__vector_54>
      dc:	0c 94 c1 42 	jmp	0x8582	; 0x8582 <__vector_55>
      e0:	b3 c0       	rjmp	.+358    	; 0x248 <__bad_interrupt>
      e2:	00 00       	nop
      e4:	4b 35       	cpi	r20, 0x5B	; 91
      e6:	4b 35       	cpi	r20, 0x5B	; 91
      e8:	4b 35       	cpi	r20, 0x5B	; 91
      ea:	aa 35       	cpi	r26, 0x5A	; 90
      ec:	b5 35       	cpi	r27, 0x55	; 85
      ee:	ec 35       	cpi	r30, 0x5C	; 92
      f0:	4b 35       	cpi	r20, 0x5B	; 91
      f2:	4b 35       	cpi	r20, 0x5B	; 91
      f4:	aa 35       	cpi	r26, 0x5A	; 90
      f6:	b5 35       	cpi	r27, 0x55	; 85
      f8:	02 46       	sbci	r16, 0x62	; 98
      fa:	72 46       	sbci	r23, 0x62	; 98
      fc:	72 46       	sbci	r23, 0x62	; 98
      fe:	72 46       	sbci	r23, 0x62	; 98
     100:	72 46       	sbci	r23, 0x62	; 98
     102:	72 46       	sbci	r23, 0x62	; 98
     104:	72 46       	sbci	r23, 0x62	; 98
     106:	72 46       	sbci	r23, 0x62	; 98
     108:	02 46       	sbci	r16, 0x62	; 98
     10a:	72 46       	sbci	r23, 0x62	; 98
     10c:	72 46       	sbci	r23, 0x62	; 98
     10e:	72 46       	sbci	r23, 0x62	; 98
     110:	72 46       	sbci	r23, 0x62	; 98
     112:	72 46       	sbci	r23, 0x62	; 98
     114:	72 46       	sbci	r23, 0x62	; 98
     116:	72 46       	sbci	r23, 0x62	; 98
     118:	04 46       	sbci	r16, 0x64	; 100
     11a:	72 46       	sbci	r23, 0x62	; 98
     11c:	72 46       	sbci	r23, 0x62	; 98
     11e:	72 46       	sbci	r23, 0x62	; 98
     120:	72 46       	sbci	r23, 0x62	; 98
     122:	72 46       	sbci	r23, 0x62	; 98
     124:	72 46       	sbci	r23, 0x62	; 98
     126:	72 46       	sbci	r23, 0x62	; 98
     128:	72 46       	sbci	r23, 0x62	; 98
     12a:	72 46       	sbci	r23, 0x62	; 98
     12c:	72 46       	sbci	r23, 0x62	; 98
     12e:	72 46       	sbci	r23, 0x62	; 98
     130:	72 46       	sbci	r23, 0x62	; 98
     132:	72 46       	sbci	r23, 0x62	; 98
     134:	72 46       	sbci	r23, 0x62	; 98
     136:	72 46       	sbci	r23, 0x62	; 98
     138:	04 46       	sbci	r16, 0x64	; 100
     13a:	72 46       	sbci	r23, 0x62	; 98
     13c:	72 46       	sbci	r23, 0x62	; 98
     13e:	72 46       	sbci	r23, 0x62	; 98
     140:	72 46       	sbci	r23, 0x62	; 98
     142:	72 46       	sbci	r23, 0x62	; 98
     144:	72 46       	sbci	r23, 0x62	; 98
     146:	72 46       	sbci	r23, 0x62	; 98
     148:	72 46       	sbci	r23, 0x62	; 98
     14a:	72 46       	sbci	r23, 0x62	; 98
     14c:	72 46       	sbci	r23, 0x62	; 98
     14e:	72 46       	sbci	r23, 0x62	; 98
     150:	72 46       	sbci	r23, 0x62	; 98
     152:	72 46       	sbci	r23, 0x62	; 98
     154:	72 46       	sbci	r23, 0x62	; 98
     156:	72 46       	sbci	r23, 0x62	; 98
     158:	6e 46       	sbci	r22, 0x6E	; 110
     15a:	72 46       	sbci	r23, 0x62	; 98
     15c:	72 46       	sbci	r23, 0x62	; 98
     15e:	72 46       	sbci	r23, 0x62	; 98
     160:	72 46       	sbci	r23, 0x62	; 98
     162:	72 46       	sbci	r23, 0x62	; 98
     164:	72 46       	sbci	r23, 0x62	; 98
     166:	72 46       	sbci	r23, 0x62	; 98
     168:	39 46       	sbci	r19, 0x69	; 105
     16a:	72 46       	sbci	r23, 0x62	; 98
     16c:	72 46       	sbci	r23, 0x62	; 98
     16e:	72 46       	sbci	r23, 0x62	; 98
     170:	72 46       	sbci	r23, 0x62	; 98
     172:	72 46       	sbci	r23, 0x62	; 98
     174:	72 46       	sbci	r23, 0x62	; 98
     176:	72 46       	sbci	r23, 0x62	; 98
     178:	72 46       	sbci	r23, 0x62	; 98
     17a:	72 46       	sbci	r23, 0x62	; 98
     17c:	72 46       	sbci	r23, 0x62	; 98
     17e:	72 46       	sbci	r23, 0x62	; 98
     180:	72 46       	sbci	r23, 0x62	; 98
     182:	72 46       	sbci	r23, 0x62	; 98
     184:	72 46       	sbci	r23, 0x62	; 98
     186:	72 46       	sbci	r23, 0x62	; 98
     188:	2d 46       	sbci	r18, 0x6D	; 109
     18a:	72 46       	sbci	r23, 0x62	; 98
     18c:	72 46       	sbci	r23, 0x62	; 98
     18e:	72 46       	sbci	r23, 0x62	; 98
     190:	72 46       	sbci	r23, 0x62	; 98
     192:	72 46       	sbci	r23, 0x62	; 98
     194:	72 46       	sbci	r23, 0x62	; 98
     196:	72 46       	sbci	r23, 0x62	; 98
     198:	51 46       	sbci	r21, 0x61	; 97

0000019a <prvIdleTask>:
     19a:	cf 93       	push	r28
     19c:	df 93       	push	r29
     19e:	1f 92       	push	r1
     1a0:	1f 92       	push	r1
     1a2:	cd b7       	in	r28, 0x3d	; 61
     1a4:	de b7       	in	r29, 0x3e	; 62
     1a6:	9a 83       	std	Y+2, r25	; 0x02
     1a8:	89 83       	std	Y+1, r24	; 0x01
     1aa:	0e 94 63 28 	call	0x50c6	; 0x50c6 <prvCheckTasksWaitingTermination>
     1ae:	80 91 1e 17 	lds	r24, 0x171E	; 0x80171e <pxReadyTasksLists>
     1b2:	82 30       	cpi	r24, 0x02	; 2
     1b4:	10 f0       	brcs	.+4      	; 0x1ba <prvIdleTask+0x20>
     1b6:	0e 94 c3 0e 	call	0x1d86	; 0x1d86 <vPortYield>
     1ba:	0e 94 19 37 	call	0x6e32	; 0x6e32 <vApplicationIdleHook>
     1be:	f5 cf       	rjmp	.-22     	; 0x1aa <prvIdleTask+0x10>

000001c0 <prvTimerTask>:
     1c0:	cf 93       	push	r28
     1c2:	df 93       	push	r29
     1c4:	cd b7       	in	r28, 0x3d	; 61
     1c6:	de b7       	in	r29, 0x3e	; 62
     1c8:	27 97       	sbiw	r28, 0x07	; 7
     1ca:	0f b6       	in	r0, 0x3f	; 63
     1cc:	f8 94       	cli
     1ce:	de bf       	out	0x3e, r29	; 62
     1d0:	0f be       	out	0x3f, r0	; 63
     1d2:	cd bf       	out	0x3d, r28	; 61
     1d4:	9f 83       	std	Y+7, r25	; 0x07
     1d6:	8e 83       	std	Y+6, r24	; 0x06
     1d8:	ce 01       	movw	r24, r28
     1da:	05 96       	adiw	r24, 0x05	; 5
     1dc:	0e 94 dd 33 	call	0x67ba	; 0x67ba <prvGetNextExpireTime>
     1e0:	dc 01       	movw	r26, r24
     1e2:	cb 01       	movw	r24, r22
     1e4:	89 83       	std	Y+1, r24	; 0x01
     1e6:	9a 83       	std	Y+2, r25	; 0x02
     1e8:	ab 83       	std	Y+3, r26	; 0x03
     1ea:	bc 83       	std	Y+4, r27	; 0x04
     1ec:	2d 81       	ldd	r18, Y+5	; 0x05
     1ee:	89 81       	ldd	r24, Y+1	; 0x01
     1f0:	9a 81       	ldd	r25, Y+2	; 0x02
     1f2:	ab 81       	ldd	r26, Y+3	; 0x03
     1f4:	bc 81       	ldd	r27, Y+4	; 0x04
     1f6:	42 2f       	mov	r20, r18
     1f8:	bc 01       	movw	r22, r24
     1fa:	cd 01       	movw	r24, r26
     1fc:	0e 94 5e 33 	call	0x66bc	; 0x66bc <prvProcessTimerOrBlockTask>
     200:	0e 94 04 35 	call	0x6a08	; 0x6a08 <prvProcessReceivedCommands>
     204:	e9 cf       	rjmp	.-46     	; 0x1d8 <prvTimerTask+0x18>

00000206 <__ctors_end>:
     206:	11 24       	eor	r1, r1
     208:	1f be       	out	0x3f, r1	; 63
     20a:	cf ef       	ldi	r28, 0xFF	; 255
     20c:	d1 e2       	ldi	r29, 0x21	; 33
     20e:	de bf       	out	0x3e, r29	; 62
     210:	cd bf       	out	0x3d, r28	; 61
     212:	00 e0       	ldi	r16, 0x00	; 0
     214:	0c bf       	out	0x3c, r16	; 60

00000216 <__do_copy_data>:
     216:	19 e0       	ldi	r17, 0x09	; 9
     218:	a0 e0       	ldi	r26, 0x00	; 0
     21a:	b2 e0       	ldi	r27, 0x02	; 2
     21c:	e0 e5       	ldi	r30, 0x50	; 80
     21e:	f9 e9       	ldi	r31, 0x99	; 153
     220:	00 e0       	ldi	r16, 0x00	; 0
     222:	0b bf       	out	0x3b, r16	; 59
     224:	02 c0       	rjmp	.+4      	; 0x22a <__do_copy_data+0x14>
     226:	07 90       	elpm	r0, Z+
     228:	0d 92       	st	X+, r0
     22a:	aa 35       	cpi	r26, 0x5A	; 90
     22c:	b1 07       	cpc	r27, r17
     22e:	d9 f7       	brne	.-10     	; 0x226 <__do_copy_data+0x10>

00000230 <__do_clear_bss>:
     230:	29 e1       	ldi	r18, 0x19	; 25
     232:	aa e5       	ldi	r26, 0x5A	; 90
     234:	b9 e0       	ldi	r27, 0x09	; 9
     236:	01 c0       	rjmp	.+2      	; 0x23a <.do_clear_bss_start>

00000238 <.do_clear_bss_loop>:
     238:	1d 92       	st	X+, r1

0000023a <.do_clear_bss_start>:
     23a:	a4 35       	cpi	r26, 0x54	; 84
     23c:	b2 07       	cpc	r27, r18
     23e:	e1 f7       	brne	.-8      	; 0x238 <.do_clear_bss_loop>
     240:	0e 94 89 38 	call	0x7112	; 0x7112 <main>
     244:	0c 94 a6 4c 	jmp	0x994c	; 0x994c <_exit>

00000248 <__bad_interrupt>:
     248:	db ce       	rjmp	.-586    	; 0x0 <__vectors>

0000024a <ApplicationTask>:
#include "Application.h"

void ApplicationTask(void *pvParameters)
{
     24a:	cf 92       	push	r12
     24c:	df 92       	push	r13
     24e:	ef 92       	push	r14
     250:	ff 92       	push	r15
     252:	0f 93       	push	r16
     254:	1f 93       	push	r17
     256:	cf 93       	push	r28
     258:	df 93       	push	r29
     25a:	cd b7       	in	r28, 0x3d	; 61
     25c:	de b7       	in	r29, 0x3e	; 62
     25e:	6c 97       	sbiw	r28, 0x1c	; 28
     260:	0f b6       	in	r0, 0x3f	; 63
     262:	f8 94       	cli
     264:	de bf       	out	0x3e, r29	; 62
     266:	0f be       	out	0x3f, r0	; 63
     268:	cd bf       	out	0x3d, r28	; 61
     26a:	9c 8f       	std	Y+28, r25	; 0x1c
     26c:	8b 8f       	std	Y+27, r24	; 0x1b
	for (;;)
	{
		//if(ALL_READY_BITS == ALL_READY_BITS){
			//Use in the future when we have both sensors = xEventGroupSetBits(measureEventGroup, ALL_MEASURE_BITS);
			xEventGroupSetBits(measureEventGroup, ALL_MEASURE_BITS);
     26e:	80 91 46 19 	lds	r24, 0x1946	; 0x801946 <measureEventGroup>
     272:	90 91 47 19 	lds	r25, 0x1947	; 0x801947 <measureEventGroup+0x1>
     276:	45 e0       	ldi	r20, 0x05	; 5
     278:	50 e0       	ldi	r21, 0x00	; 0
     27a:	60 e0       	ldi	r22, 0x00	; 0
     27c:	70 e0       	ldi	r23, 0x00	; 0
     27e:	7e d7       	rcall	.+3836   	; 0x117c <xEventGroupSetBits>
		//}
		
		//Use in the future when we have both sensors = EventBits_t eventBits = xEventGroupWaitBits(dataReadyEventGroup,ALL_READY_BITS,pdTRUE,pdTRUE,portMAX_DELAY);
		EventBits_t eventBits = xEventGroupWaitBits(dataReadyEventGroup,ALL_READY_BITS,pdTRUE,pdTRUE,portMAX_DELAY);
     280:	80 91 44 19 	lds	r24, 0x1944	; 0x801944 <dataReadyEventGroup>
     284:	90 91 45 19 	lds	r25, 0x1945	; 0x801945 <dataReadyEventGroup+0x1>
     288:	cc 24       	eor	r12, r12
     28a:	ca 94       	dec	r12
     28c:	dc 2c       	mov	r13, r12
     28e:	76 01       	movw	r14, r12
     290:	01 e0       	ldi	r16, 0x01	; 1
     292:	21 e0       	ldi	r18, 0x01	; 1
     294:	4a e0       	ldi	r20, 0x0A	; 10
     296:	50 e0       	ldi	r21, 0x00	; 0
     298:	60 e0       	ldi	r22, 0x00	; 0
     29a:	70 e0       	ldi	r23, 0x00	; 0
     29c:	38 d6       	rcall	.+3184   	; 0xf0e <xEventGroupWaitBits>
     29e:	dc 01       	movw	r26, r24
     2a0:	cb 01       	movw	r24, r22
     2a2:	89 83       	std	Y+1, r24	; 0x01
     2a4:	9a 83       	std	Y+2, r25	; 0x02
     2a6:	ab 83       	std	Y+3, r26	; 0x03
     2a8:	bc 83       	std	Y+4, r27	; 0x04
		if(eventBits & (ALL_READY_BITS))
     2aa:	89 81       	ldd	r24, Y+1	; 0x01
     2ac:	9a 81       	ldd	r25, Y+2	; 0x02
     2ae:	ab 81       	ldd	r26, Y+3	; 0x03
     2b0:	bc 81       	ldd	r27, Y+4	; 0x04
     2b2:	8a 70       	andi	r24, 0x0A	; 10
     2b4:	99 27       	eor	r25, r25
     2b6:	aa 27       	eor	r26, r26
     2b8:	bb 27       	eor	r27, r27
     2ba:	89 2b       	or	r24, r25
     2bc:	8a 2b       	or	r24, r26
     2be:	8b 2b       	or	r24, r27
     2c0:	09 f4       	brne	.+2      	; 0x2c4 <ApplicationTask+0x7a>
     2c2:	43 c0       	rjmp	.+134    	; 0x34a <ApplicationTask+0x100>
		{
			printf("ALL DATA COLLECTED\n");
     2c4:	82 e2       	ldi	r24, 0x22	; 34
     2c6:	92 e0       	ldi	r25, 0x02	; 2
     2c8:	0e 94 9b 49 	call	0x9336	; 0x9336 <puts>
			printf("Temperature is: %x,\n and humidity is: %x, \n CO2 is: %x \n",getTemperature(),getHumidity(),getCo2());
     2cc:	c8 d0       	rcall	.+400    	; 0x45e <getCo2>
     2ce:	7c 01       	movw	r14, r24
     2d0:	3d d5       	rcall	.+2682   	; 0xd4c <getHumidity>
     2d2:	8c 01       	movw	r16, r24
     2d4:	46 d5       	rcall	.+2700   	; 0xd62 <getTemperature>
     2d6:	2f 2d       	mov	r18, r15
     2d8:	2f 93       	push	r18
     2da:	2e 2d       	mov	r18, r14
     2dc:	2f 93       	push	r18
     2de:	21 2f       	mov	r18, r17
     2e0:	2f 93       	push	r18
     2e2:	20 2f       	mov	r18, r16
     2e4:	2f 93       	push	r18
     2e6:	29 2f       	mov	r18, r25
     2e8:	2f 93       	push	r18
     2ea:	8f 93       	push	r24
     2ec:	85 e3       	ldi	r24, 0x35	; 53
     2ee:	92 e0       	ldi	r25, 0x02	; 2
     2f0:	89 2f       	mov	r24, r25
     2f2:	8f 93       	push	r24
     2f4:	85 e3       	ldi	r24, 0x35	; 53
     2f6:	92 e0       	ldi	r25, 0x02	; 2
     2f8:	8f 93       	push	r24
     2fa:	0e 94 88 49 	call	0x9310	; 0x9310 <printf>
     2fe:	8d b7       	in	r24, 0x3d	; 61
     300:	9e b7       	in	r25, 0x3e	; 62
     302:	08 96       	adiw	r24, 0x08	; 8
     304:	0f b6       	in	r0, 0x3f	; 63
     306:	f8 94       	cli
     308:	de bf       	out	0x3e, r29	; 62
			
			//Here we set the data we got from sensors
			setTemperature(getTemperature());
     30a:	0f be       	out	0x3f, r0	; 63
     30c:	cd bf       	out	0x3d, r28	; 61
     30e:	29 d5       	rcall	.+2642   	; 0xd62 <getTemperature>
			setHumidity(getHumidity());
     310:	56 d2       	rcall	.+1196   	; 0x7be <setTemperature>
     312:	1c d5       	rcall	.+2616   	; 0xd4c <getHumidity>
     314:	40 d2       	rcall	.+1152   	; 0x796 <setHumidity>
			
			setCo2Ppm(getCo2());
     316:	a3 d0       	rcall	.+326    	; 0x45e <getCo2>
     318:	66 d2       	rcall	.+1228   	; 0x7e6 <setCo2Ppm>
     31a:	ce 01       	movw	r24, r28
     31c:	05 96       	adiw	r24, 0x05	; 5
			
			
			
			lora_driver_payload_t _uplink_payload = sensorDataPackageHandler_getLoRaPayload(2);
     31e:	62 e0       	ldi	r22, 0x02	; 2
     320:	76 d2       	rcall	.+1260   	; 0x80e <sensorDataPackageHandler_getLoRaPayload>
     322:	80 91 42 19 	lds	r24, 0x1942	; 0x801942 <upLinkMessageBuffer>
     326:	90 91 43 19 	lds	r25, 0x1943	; 0x801943 <upLinkMessageBuffer+0x1>
			xMessageBufferSend(upLinkMessageBuffer,&_uplink_payload,sizeof(_uplink_payload),portMAX_DELAY);
     32a:	be 01       	movw	r22, r28
     32c:	6b 5f       	subi	r22, 0xFB	; 251
     32e:	7f 4f       	sbci	r23, 0xFF	; 255
     330:	0f ef       	ldi	r16, 0xFF	; 255
     332:	1f ef       	ldi	r17, 0xFF	; 255
     334:	98 01       	movw	r18, r16
     336:	46 e1       	ldi	r20, 0x16	; 22
     338:	50 e0       	ldi	r21, 0x00	; 0
     33a:	0e 94 e4 16 	call	0x2dc8	; 0x2dc8 <xStreamBufferSend>
     33e:	60 e1       	ldi	r22, 0x10	; 16
     340:	7d e1       	ldi	r23, 0x1D	; 29
     342:	80 e0       	ldi	r24, 0x00	; 0
																					
			vTaskDelay(pdMS_TO_TICKS(120000));
     344:	90 e0       	ldi	r25, 0x00	; 0
     346:	0e 94 a1 1e 	call	0x3d42	; 0x3d42 <vTaskDelay>
     34a:	63 e0       	ldi	r22, 0x03	; 3
     34c:	70 e0       	ldi	r23, 0x00	; 0
     34e:	80 e0       	ldi	r24, 0x00	; 0
			//xSemaphoreGive(tempHumSemaphore);
		}
		
		vTaskDelay(pdMS_TO_TICKS(50));
     350:	90 e0       	ldi	r25, 0x00	; 0
     352:	0e 94 a1 1e 	call	0x3d42	; 0x3d42 <vTaskDelay>
     356:	8b cf       	rjmp	.-234    	; 0x26e <ApplicationTask+0x24>

00000358 <createApplicationTask>:
     358:	ef 92       	push	r14
     35a:	ff 92       	push	r15
	}
     35c:	0f 93       	push	r16
}

void createApplicationTask(UBaseType_t Taskpriority)
{
     35e:	cf 93       	push	r28
     360:	df 93       	push	r29
     362:	1f 92       	push	r1
     364:	cd b7       	in	r28, 0x3d	; 61
     366:	de b7       	in	r29, 0x3e	; 62
     368:	89 83       	std	Y+1, r24	; 0x01
	xTaskCreate(
     36a:	e1 2c       	mov	r14, r1
     36c:	f1 2c       	mov	r15, r1
     36e:	09 81       	ldd	r16, Y+1	; 0x01
     370:	20 e0       	ldi	r18, 0x00	; 0
     372:	30 e0       	ldi	r19, 0x00	; 0
     374:	40 ec       	ldi	r20, 0xC0	; 192
     376:	50 e0       	ldi	r21, 0x00	; 0
     378:	6e e6       	ldi	r22, 0x6E	; 110
     37a:	72 e0       	ldi	r23, 0x02	; 2
     37c:	85 e2       	ldi	r24, 0x25	; 37
     37e:	91 e0       	ldi	r25, 0x01	; 1
     380:	0e 94 b5 1b 	call	0x376a	; 0x376a <xTaskCreate>
	,  "AppTask"
	,  configMINIMAL_STACK_SIZE
	,  NULL
	,  tskIDLE_PRIORITY + Taskpriority
	,  NULL );
     384:	00 00       	nop
     386:	0f 90       	pop	r0
     388:	df 91       	pop	r29
     38a:	cf 91       	pop	r28
     38c:	0f 91       	pop	r16
     38e:	ff 90       	pop	r15
     390:	ef 90       	pop	r14
     392:	08 95       	ret

00000394 <initializeCo2Driver>:
void myCo2CallBack(uint16_t ppm);

uint16_t co2Ppm = 0;
mh_z19_returnCode_t rc;

void initializeCo2Driver(){
     394:	cf 93       	push	r28
     396:	df 93       	push	r29
     398:	cd b7       	in	r28, 0x3d	; 61
     39a:	de b7       	in	r29, 0x3e	; 62
	//rc = mh_z19_takeMeassuring();
	mh_z19_initialise(ser_USART3);
     39c:	83 e0       	ldi	r24, 0x03	; 3
     39e:	0e 94 13 3f 	call	0x7e26	; 0x7e26 <mh_z19_initialise>
	mh_z19_injectCallBack(myCo2CallBack);
     3a2:	8b e1       	ldi	r24, 0x1B	; 27
     3a4:	92 e0       	ldi	r25, 0x02	; 2
     3a6:	0e 94 38 3f 	call	0x7e70	; 0x7e70 <mh_z19_injectCallBack>
}
     3aa:	00 00       	nop
     3ac:	df 91       	pop	r29
     3ae:	cf 91       	pop	r28
     3b0:	08 95       	ret

000003b2 <Co2Task>:

void Co2Task(void* pvpParameter){
     3b2:	cf 92       	push	r12
     3b4:	df 92       	push	r13
     3b6:	ef 92       	push	r14
     3b8:	ff 92       	push	r15
     3ba:	0f 93       	push	r16
     3bc:	cf 93       	push	r28
     3be:	df 93       	push	r29
     3c0:	00 d0       	rcall	.+0      	; 0x3c2 <Co2Task+0x10>
     3c2:	00 d0       	rcall	.+0      	; 0x3c4 <Co2Task+0x12>
     3c4:	cd b7       	in	r28, 0x3d	; 61
     3c6:	de b7       	in	r29, 0x3e	; 62
     3c8:	9e 83       	std	Y+6, r25	; 0x06
     3ca:	8d 83       	std	Y+5, r24	; 0x05
	while(1){
		EventBits_t eventBits = xEventGroupWaitBits(measureEventGroup,CO2_MEASURE_BIT,pdTRUE,pdTRUE,portMAX_DELAY);
     3cc:	80 91 46 19 	lds	r24, 0x1946	; 0x801946 <measureEventGroup>
     3d0:	90 91 47 19 	lds	r25, 0x1947	; 0x801947 <measureEventGroup+0x1>
     3d4:	cc 24       	eor	r12, r12
     3d6:	ca 94       	dec	r12
     3d8:	dc 2c       	mov	r13, r12
     3da:	76 01       	movw	r14, r12
     3dc:	01 e0       	ldi	r16, 0x01	; 1
     3de:	21 e0       	ldi	r18, 0x01	; 1
     3e0:	44 e0       	ldi	r20, 0x04	; 4
     3e2:	50 e0       	ldi	r21, 0x00	; 0
     3e4:	60 e0       	ldi	r22, 0x00	; 0
     3e6:	70 e0       	ldi	r23, 0x00	; 0
     3e8:	92 d5       	rcall	.+2852   	; 0xf0e <xEventGroupWaitBits>
     3ea:	dc 01       	movw	r26, r24
     3ec:	cb 01       	movw	r24, r22
     3ee:	89 83       	std	Y+1, r24	; 0x01
     3f0:	9a 83       	std	Y+2, r25	; 0x02
     3f2:	ab 83       	std	Y+3, r26	; 0x03
     3f4:	bc 83       	std	Y+4, r27	; 0x04
		if(eventBits & (CO2_MEASURE_BIT)){
     3f6:	89 81       	ldd	r24, Y+1	; 0x01
     3f8:	9a 81       	ldd	r25, Y+2	; 0x02
     3fa:	ab 81       	ldd	r26, Y+3	; 0x03
     3fc:	bc 81       	ldd	r27, Y+4	; 0x04
     3fe:	84 70       	andi	r24, 0x04	; 4
     400:	99 27       	eor	r25, r25
     402:	aa 27       	eor	r26, r26
     404:	bb 27       	eor	r27, r27
     406:	89 2b       	or	r24, r25
     408:	8a 2b       	or	r24, r26
     40a:	8b 2b       	or	r24, r27
     40c:	f9 f2       	breq	.-66     	; 0x3cc <Co2Task+0x1a>
			printf("Measuring CO2... \n");
     40e:	86 e7       	ldi	r24, 0x76	; 118
     410:	92 e0       	ldi	r25, 0x02	; 2
     412:	0e 94 9b 49 	call	0x9336	; 0x9336 <puts>
			measureCo2();
     416:	2e d0       	rcall	.+92     	; 0x474 <measureCo2>
			xEventGroupSetBits(dataReadyEventGroup,CO2_READY_BIT);
     418:	80 91 44 19 	lds	r24, 0x1944	; 0x801944 <dataReadyEventGroup>
     41c:	90 91 45 19 	lds	r25, 0x1945	; 0x801945 <dataReadyEventGroup+0x1>
     420:	48 e0       	ldi	r20, 0x08	; 8
     422:	50 e0       	ldi	r21, 0x00	; 0
     424:	60 e0       	ldi	r22, 0x00	; 0
     426:	70 e0       	ldi	r23, 0x00	; 0
     428:	a9 d6       	rcall	.+3410   	; 0x117c <xEventGroupSetBits>
			vTaskDelay(pdMS_TO_TICKS(10));
     42a:	60 e0       	ldi	r22, 0x00	; 0
     42c:	70 e0       	ldi	r23, 0x00	; 0
     42e:	cb 01       	movw	r24, r22
     430:	0e 94 a1 1e 	call	0x3d42	; 0x3d42 <vTaskDelay>
		}
	}
     434:	cb cf       	rjmp	.-106    	; 0x3cc <Co2Task+0x1a>

00000436 <myCo2CallBack>:
}

void myCo2CallBack(uint16_t ppm)
{
     436:	cf 93       	push	r28
     438:	df 93       	push	r29
     43a:	1f 92       	push	r1
     43c:	1f 92       	push	r1
     43e:	cd b7       	in	r28, 0x3d	; 61
     440:	de b7       	in	r29, 0x3e	; 62
     442:	9a 83       	std	Y+2, r25	; 0x02
     444:	89 83       	std	Y+1, r24	; 0x01
	co2Ppm = ppm;
     446:	89 81       	ldd	r24, Y+1	; 0x01
     448:	9a 81       	ldd	r25, Y+2	; 0x02
     44a:	90 93 5b 09 	sts	0x095B, r25	; 0x80095b <__data_end+0x1>
     44e:	80 93 5a 09 	sts	0x095A, r24	; 0x80095a <__data_end>
}
     452:	00 00       	nop
     454:	0f 90       	pop	r0
     456:	0f 90       	pop	r0
     458:	df 91       	pop	r29
     45a:	cf 91       	pop	r28
     45c:	08 95       	ret

0000045e <getCo2>:

uint16_t getCo2(){
     45e:	cf 93       	push	r28
     460:	df 93       	push	r29
     462:	cd b7       	in	r28, 0x3d	; 61
     464:	de b7       	in	r29, 0x3e	; 62
	return co2Ppm;
     466:	80 91 5a 09 	lds	r24, 0x095A	; 0x80095a <__data_end>
     46a:	90 91 5b 09 	lds	r25, 0x095B	; 0x80095b <__data_end+0x1>
}
     46e:	df 91       	pop	r29
     470:	cf 91       	pop	r28
     472:	08 95       	ret

00000474 <measureCo2>:

void measureCo2(){
     474:	cf 93       	push	r28
     476:	df 93       	push	r29
     478:	cd b7       	in	r28, 0x3d	; 61
     47a:	de b7       	in	r29, 0x3e	; 62
	rc = mh_z19_takeMeassuring();
     47c:	0e 94 3d 3f 	call	0x7e7a	; 0x7e7a <mh_z19_takeMeassuring>
     480:	80 93 23 19 	sts	0x1923, r24	; 0x801923 <rc>
	if (rc != MHZ19_OK)
     484:	80 91 23 19 	lds	r24, 0x1923	; 0x801923 <rc>
     488:	88 23       	and	r24, r24
     48a:	59 f0       	breq	.+22     	; 0x4a2 <measureCo2+0x2e>
	{
		printf("Something went wrong with CO2 sensor");
     48c:	88 e8       	ldi	r24, 0x88	; 136
     48e:	92 e0       	ldi	r25, 0x02	; 2
     490:	89 2f       	mov	r24, r25
     492:	8f 93       	push	r24
     494:	88 e8       	ldi	r24, 0x88	; 136
     496:	92 e0       	ldi	r25, 0x02	; 2
     498:	8f 93       	push	r24
     49a:	0e 94 88 49 	call	0x9310	; 0x9310 <printf>
     49e:	0f 90       	pop	r0
     4a0:	0f 90       	pop	r0
	}
}
     4a2:	00 00       	nop
     4a4:	df 91       	pop	r29
     4a6:	cf 91       	pop	r28
     4a8:	08 95       	ret

000004aa <createCo2Task>:

void createCo2Task(UBaseType_t Taskpriority){
     4aa:	ef 92       	push	r14
     4ac:	ff 92       	push	r15
     4ae:	0f 93       	push	r16
     4b0:	cf 93       	push	r28
     4b2:	df 93       	push	r29
     4b4:	1f 92       	push	r1
     4b6:	cd b7       	in	r28, 0x3d	; 61
     4b8:	de b7       	in	r29, 0x3e	; 62
     4ba:	89 83       	std	Y+1, r24	; 0x01
	initializeCo2Driver();
     4bc:	6b df       	rcall	.-298    	; 0x394 <initializeCo2Driver>
	xTaskCreate(
     4be:	e1 2c       	mov	r14, r1
     4c0:	f1 2c       	mov	r15, r1
     4c2:	09 81       	ldd	r16, Y+1	; 0x01
     4c4:	20 e0       	ldi	r18, 0x00	; 0
     4c6:	30 e0       	ldi	r19, 0x00	; 0
     4c8:	40 ec       	ldi	r20, 0xC0	; 192
     4ca:	50 e0       	ldi	r21, 0x00	; 0
     4cc:	6d ea       	ldi	r22, 0xAD	; 173
     4ce:	72 e0       	ldi	r23, 0x02	; 2
     4d0:	89 ed       	ldi	r24, 0xD9	; 217
     4d2:	91 e0       	ldi	r25, 0x01	; 1
     4d4:	0e 94 b5 1b 	call	0x376a	; 0x376a <xTaskCreate>
	configMINIMAL_STACK_SIZE,
	NULL,
	tskIDLE_PRIORITY + Taskpriority,
	NULL
	);
     4d8:	00 00       	nop
     4da:	0f 90       	pop	r0
     4dc:	df 91       	pop	r29
     4de:	cf 91       	pop	r28
     4e0:	0f 91       	pop	r16
     4e2:	ff 90       	pop	r15
     4e4:	ef 90       	pop	r14
     4e6:	08 95       	ret

000004e8 <createConfiguration>:
uint16_t tempNorm;
uint16_t humNorm;

SemaphoreHandle_t configMutex;

void createConfiguration(){
     4e8:	cf 93       	push	r28
     4ea:	df 93       	push	r29
     4ec:	cd b7       	in	r28, 0x3d	; 61
     4ee:	de b7       	in	r29, 0x3e	; 62
	configMutex = xSemaphoreCreateMutex();
     4f0:	81 e0       	ldi	r24, 0x01	; 1
     4f2:	0e 94 f3 10 	call	0x21e6	; 0x21e6 <xQueueCreateMutex>
     4f6:	90 93 27 19 	sts	0x1927, r25	; 0x801927 <configMutex+0x1>
     4fa:	80 93 26 19 	sts	0x1926, r24	; 0x801926 <configMutex>
	co2Norm = 0;
     4fe:	10 92 2b 19 	sts	0x192B, r1	; 0x80192b <co2Norm+0x1>
     502:	10 92 2a 19 	sts	0x192A, r1	; 0x80192a <co2Norm>
	tempNorm = 0;
     506:	10 92 29 19 	sts	0x1929, r1	; 0x801929 <tempNorm+0x1>
     50a:	10 92 28 19 	sts	0x1928, r1	; 0x801928 <tempNorm>
	humNorm = 0;
     50e:	10 92 25 19 	sts	0x1925, r1	; 0x801925 <humNorm+0x1>
     512:	10 92 24 19 	sts	0x1924, r1	; 0x801924 <humNorm>
}
     516:	00 00       	nop
     518:	df 91       	pop	r29
     51a:	cf 91       	pop	r28
     51c:	08 95       	ret

0000051e <getCo2Norm>:

uint16_t getCo2Norm(){
     51e:	cf 93       	push	r28
     520:	df 93       	push	r29
     522:	cd b7       	in	r28, 0x3d	; 61
     524:	de b7       	in	r29, 0x3e	; 62
	return co2Norm;
     526:	80 91 2a 19 	lds	r24, 0x192A	; 0x80192a <co2Norm>
     52a:	90 91 2b 19 	lds	r25, 0x192B	; 0x80192b <co2Norm+0x1>
}
     52e:	df 91       	pop	r29
     530:	cf 91       	pop	r28
     532:	08 95       	ret

00000534 <getTempNorm>:
uint16_t getTempNorm(){
     534:	cf 93       	push	r28
     536:	df 93       	push	r29
     538:	cd b7       	in	r28, 0x3d	; 61
     53a:	de b7       	in	r29, 0x3e	; 62
	return tempNorm;
     53c:	80 91 28 19 	lds	r24, 0x1928	; 0x801928 <tempNorm>
     540:	90 91 29 19 	lds	r25, 0x1929	; 0x801929 <tempNorm+0x1>
}
     544:	df 91       	pop	r29
     546:	cf 91       	pop	r28
     548:	08 95       	ret

0000054a <getHumNorm>:
uint16_t getHumNorm(){
     54a:	cf 93       	push	r28
     54c:	df 93       	push	r29
     54e:	cd b7       	in	r28, 0x3d	; 61
     550:	de b7       	in	r29, 0x3e	; 62
	return humNorm;
     552:	80 91 24 19 	lds	r24, 0x1924	; 0x801924 <humNorm>
     556:	90 91 25 19 	lds	r25, 0x1925	; 0x801925 <humNorm+0x1>
}
     55a:	df 91       	pop	r29
     55c:	cf 91       	pop	r28
     55e:	08 95       	ret

00000560 <setCo2Norm>:


uint16_t setCo2Norm(uint16_t norm)
{
     560:	cf 93       	push	r28
     562:	df 93       	push	r29
     564:	1f 92       	push	r1
     566:	1f 92       	push	r1
     568:	cd b7       	in	r28, 0x3d	; 61
     56a:	de b7       	in	r29, 0x3e	; 62
     56c:	9a 83       	std	Y+2, r25	; 0x02
     56e:	89 83       	std	Y+1, r24	; 0x01
	co2Norm = norm;
     570:	89 81       	ldd	r24, Y+1	; 0x01
     572:	9a 81       	ldd	r25, Y+2	; 0x02
     574:	90 93 2b 19 	sts	0x192B, r25	; 0x80192b <co2Norm+0x1>
     578:	80 93 2a 19 	sts	0x192A, r24	; 0x80192a <co2Norm>
}
     57c:	00 00       	nop
     57e:	0f 90       	pop	r0
     580:	0f 90       	pop	r0
     582:	df 91       	pop	r29
     584:	cf 91       	pop	r28
     586:	08 95       	ret

00000588 <setTempNorm>:
uint16_t setTempNorm(uint16_t norm)
{
     588:	cf 93       	push	r28
     58a:	df 93       	push	r29
     58c:	1f 92       	push	r1
     58e:	1f 92       	push	r1
     590:	cd b7       	in	r28, 0x3d	; 61
     592:	de b7       	in	r29, 0x3e	; 62
     594:	9a 83       	std	Y+2, r25	; 0x02
     596:	89 83       	std	Y+1, r24	; 0x01
	tempNorm = norm;
     598:	89 81       	ldd	r24, Y+1	; 0x01
     59a:	9a 81       	ldd	r25, Y+2	; 0x02
     59c:	90 93 29 19 	sts	0x1929, r25	; 0x801929 <tempNorm+0x1>
     5a0:	80 93 28 19 	sts	0x1928, r24	; 0x801928 <tempNorm>
}
     5a4:	00 00       	nop
     5a6:	0f 90       	pop	r0
     5a8:	0f 90       	pop	r0
     5aa:	df 91       	pop	r29
     5ac:	cf 91       	pop	r28
     5ae:	08 95       	ret

000005b0 <setHumNorm>:
uint16_t setHumNorm(uint16_t norm)
{
     5b0:	cf 93       	push	r28
     5b2:	df 93       	push	r29
     5b4:	1f 92       	push	r1
     5b6:	1f 92       	push	r1
     5b8:	cd b7       	in	r28, 0x3d	; 61
     5ba:	de b7       	in	r29, 0x3e	; 62
     5bc:	9a 83       	std	Y+2, r25	; 0x02
     5be:	89 83       	std	Y+1, r24	; 0x01
	humNorm = norm;
     5c0:	89 81       	ldd	r24, Y+1	; 0x01
     5c2:	9a 81       	ldd	r25, Y+2	; 0x02
     5c4:	90 93 25 19 	sts	0x1925, r25	; 0x801925 <humNorm+0x1>
     5c8:	80 93 24 19 	sts	0x1924, r24	; 0x801924 <humNorm>
     5cc:	00 00       	nop
     5ce:	0f 90       	pop	r0
     5d0:	0f 90       	pop	r0
     5d2:	df 91       	pop	r29
     5d4:	cf 91       	pop	r28
     5d6:	08 95       	ret

000005d8 <lora_downLink_task>:




void lora_downLink_task()
{
     5d8:	ef 92       	push	r14
     5da:	ff 92       	push	r15
     5dc:	0f 93       	push	r16
     5de:	1f 93       	push	r17
     5e0:	cf 93       	push	r28
     5e2:	df 93       	push	r29
     5e4:	1f 92       	push	r1
     5e6:	1f 92       	push	r1
     5e8:	cd b7       	in	r28, 0x3d	; 61
     5ea:	de b7       	in	r29, 0x3e	; 62
	lora_driver_payload_t* lora_downlink_payload;
	for(;;)
	{
		
		lora_downlink_payload = pvPortMalloc(sizeof(lora_driver_payload_t));
     5ec:	86 e1       	ldi	r24, 0x16	; 22
     5ee:	90 e0       	ldi	r25, 0x00	; 0
     5f0:	20 d7       	rcall	.+3648   	; 0x1432 <pvPortMalloc>
     5f2:	9a 83       	std	Y+2, r25	; 0x02
     5f4:	89 83       	std	Y+1, r24	; 0x01
	
	if(lora_downlink_payload != NULL){
     5f6:	89 81       	ldd	r24, Y+1	; 0x01
     5f8:	9a 81       	ldd	r25, Y+2	; 0x02
     5fa:	89 2b       	or	r24, r25
     5fc:	b9 f3       	breq	.-18     	; 0x5ec <lora_downLink_task+0x14>
		lora_downlink_payload->portNo=2;
     5fe:	89 81       	ldd	r24, Y+1	; 0x01
     600:	9a 81       	ldd	r25, Y+2	; 0x02
     602:	22 e0       	ldi	r18, 0x02	; 2
     604:	fc 01       	movw	r30, r24
     606:	20 83       	st	Z, r18
		lora_downlink_payload->len=6;
     608:	89 81       	ldd	r24, Y+1	; 0x01
     60a:	9a 81       	ldd	r25, Y+2	; 0x02
     60c:	26 e0       	ldi	r18, 0x06	; 6
     60e:	fc 01       	movw	r30, r24
     610:	21 83       	std	Z+1, r18	; 0x01
		xMessageBufferReceive(downLinkMessageBuffer, &lora_downlink_payload, sizeof(lora_driver_payload_t), portMAX_DELAY);
     612:	80 91 48 19 	lds	r24, 0x1948	; 0x801948 <downLinkMessageBuffer>
     616:	90 91 49 19 	lds	r25, 0x1949	; 0x801949 <downLinkMessageBuffer+0x1>
     61a:	0f ef       	ldi	r16, 0xFF	; 255
     61c:	1f ef       	ldi	r17, 0xFF	; 255
     61e:	98 01       	movw	r18, r16
     620:	46 e1       	ldi	r20, 0x16	; 22
     622:	50 e0       	ldi	r21, 0x00	; 0
     624:	be 01       	movw	r22, r28
     626:	6f 5f       	subi	r22, 0xFF	; 255
     628:	7f 4f       	sbci	r23, 0xFF	; 255
     62a:	0e 94 cb 18 	call	0x3196	; 0x3196 <xStreamBufferReceive>
		printf("DOWN LINK<<<<<: from port: %d with %d bytes received!",lora_downlink_payload->portNo, lora_downlink_payload->len);
     62e:	89 81       	ldd	r24, Y+1	; 0x01
     630:	9a 81       	ldd	r25, Y+2	; 0x02
     632:	fc 01       	movw	r30, r24
     634:	81 81       	ldd	r24, Z+1	; 0x01
     636:	28 2f       	mov	r18, r24
     638:	30 e0       	ldi	r19, 0x00	; 0
     63a:	89 81       	ldd	r24, Y+1	; 0x01
     63c:	9a 81       	ldd	r25, Y+2	; 0x02
     63e:	fc 01       	movw	r30, r24
     640:	80 81       	ld	r24, Z
     642:	88 2f       	mov	r24, r24
     644:	90 e0       	ldi	r25, 0x00	; 0
     646:	43 2f       	mov	r20, r19
     648:	4f 93       	push	r20
     64a:	2f 93       	push	r18
     64c:	29 2f       	mov	r18, r25
     64e:	2f 93       	push	r18
     650:	8f 93       	push	r24
     652:	85 eb       	ldi	r24, 0xB5	; 181
     654:	92 e0       	ldi	r25, 0x02	; 2
     656:	89 2f       	mov	r24, r25
     658:	8f 93       	push	r24
     65a:	85 eb       	ldi	r24, 0xB5	; 181
     65c:	92 e0       	ldi	r25, 0x02	; 2
     65e:	8f 93       	push	r24
     660:	0e 94 88 49 	call	0x9310	; 0x9310 <printf>
     664:	0f 90       	pop	r0
     666:	0f 90       	pop	r0
     668:	0f 90       	pop	r0
     66a:	0f 90       	pop	r0
     66c:	0f 90       	pop	r0
     66e:	0f 90       	pop	r0
		if (lora_downlink_payload->len != 0)
     670:	89 81       	ldd	r24, Y+1	; 0x01
     672:	9a 81       	ldd	r25, Y+2	; 0x02
     674:	fc 01       	movw	r30, r24
     676:	81 81       	ldd	r24, Z+1	; 0x01
     678:	88 23       	and	r24, r24
     67a:	09 f4       	brne	.+2      	; 0x67e <lora_downLink_task+0xa6>
     67c:	67 c0       	rjmp	.+206    	; 0x74c <lora_downLink_task+0x174>
		{
			//if no one is using configuration
			if( xSemaphoreTake( configMutex, ( TickType_t ) 10 ) == pdTRUE )
     67e:	80 91 26 19 	lds	r24, 0x1926	; 0x801926 <configMutex>
     682:	90 91 27 19 	lds	r25, 0x1927	; 0x801927 <configMutex+0x1>
     686:	4a e0       	ldi	r20, 0x0A	; 10
     688:	50 e0       	ldi	r21, 0x00	; 0
     68a:	60 e0       	ldi	r22, 0x00	; 0
     68c:	70 e0       	ldi	r23, 0x00	; 0
     68e:	0e 94 de 12 	call	0x25bc	; 0x25bc <xQueueSemaphoreTake>
     692:	81 30       	cpi	r24, 0x01	; 1
     694:	09 f0       	breq	.+2      	; 0x698 <lora_downLink_task+0xc0>
     696:	4f c0       	rjmp	.+158    	; 0x736 <lora_downLink_task+0x15e>
			{
				setCo2Norm(lora_downlink_payload->bytes[0] + lora_downlink_payload->bytes[1]);
     698:	89 81       	ldd	r24, Y+1	; 0x01
     69a:	9a 81       	ldd	r25, Y+2	; 0x02
     69c:	fc 01       	movw	r30, r24
     69e:	82 81       	ldd	r24, Z+2	; 0x02
     6a0:	28 2f       	mov	r18, r24
     6a2:	30 e0       	ldi	r19, 0x00	; 0
     6a4:	89 81       	ldd	r24, Y+1	; 0x01
     6a6:	9a 81       	ldd	r25, Y+2	; 0x02
     6a8:	fc 01       	movw	r30, r24
     6aa:	83 81       	ldd	r24, Z+3	; 0x03
     6ac:	88 2f       	mov	r24, r24
     6ae:	90 e0       	ldi	r25, 0x00	; 0
     6b0:	82 0f       	add	r24, r18
     6b2:	93 1f       	adc	r25, r19
     6b4:	55 df       	rcall	.-342    	; 0x560 <setCo2Norm>
				setHumNorm(lora_downlink_payload->bytes[2] + lora_downlink_payload->bytes[3]);
     6b6:	89 81       	ldd	r24, Y+1	; 0x01
     6b8:	9a 81       	ldd	r25, Y+2	; 0x02
     6ba:	fc 01       	movw	r30, r24
     6bc:	84 81       	ldd	r24, Z+4	; 0x04
     6be:	28 2f       	mov	r18, r24
     6c0:	30 e0       	ldi	r19, 0x00	; 0
     6c2:	89 81       	ldd	r24, Y+1	; 0x01
     6c4:	9a 81       	ldd	r25, Y+2	; 0x02
     6c6:	fc 01       	movw	r30, r24
     6c8:	85 81       	ldd	r24, Z+5	; 0x05
     6ca:	88 2f       	mov	r24, r24
     6cc:	90 e0       	ldi	r25, 0x00	; 0
     6ce:	82 0f       	add	r24, r18
     6d0:	93 1f       	adc	r25, r19
     6d2:	6e df       	rcall	.-292    	; 0x5b0 <setHumNorm>
				setTempNorm(lora_downlink_payload->bytes[4] + lora_downlink_payload->bytes[4]);
     6d4:	89 81       	ldd	r24, Y+1	; 0x01
     6d6:	9a 81       	ldd	r25, Y+2	; 0x02
     6d8:	fc 01       	movw	r30, r24
     6da:	86 81       	ldd	r24, Z+6	; 0x06
     6dc:	28 2f       	mov	r18, r24
     6de:	30 e0       	ldi	r19, 0x00	; 0
     6e0:	89 81       	ldd	r24, Y+1	; 0x01
     6e2:	9a 81       	ldd	r25, Y+2	; 0x02
     6e4:	fc 01       	movw	r30, r24
     6e6:	86 81       	ldd	r24, Z+6	; 0x06
     6e8:	88 2f       	mov	r24, r24
     6ea:	90 e0       	ldi	r25, 0x00	; 0
     6ec:	82 0f       	add	r24, r18
     6ee:	93 1f       	adc	r25, r19
				
				printf("The CO2: %d, humidity: %d, temperature: %d",getCo2Norm(),getHumNorm(),getTempNorm());	
     6f0:	4b df       	rcall	.-362    	; 0x588 <setTempNorm>
     6f2:	20 df       	rcall	.-448    	; 0x534 <getTempNorm>
     6f4:	7c 01       	movw	r14, r24
     6f6:	29 df       	rcall	.-430    	; 0x54a <getHumNorm>
     6f8:	8c 01       	movw	r16, r24
     6fa:	11 df       	rcall	.-478    	; 0x51e <getCo2Norm>
     6fc:	2f 2d       	mov	r18, r15
     6fe:	2f 93       	push	r18
     700:	2e 2d       	mov	r18, r14
     702:	2f 93       	push	r18
     704:	21 2f       	mov	r18, r17
     706:	2f 93       	push	r18
     708:	20 2f       	mov	r18, r16
     70a:	2f 93       	push	r18
     70c:	29 2f       	mov	r18, r25
     70e:	2f 93       	push	r18
     710:	8f 93       	push	r24
     712:	8b ee       	ldi	r24, 0xEB	; 235
     714:	92 e0       	ldi	r25, 0x02	; 2
     716:	89 2f       	mov	r24, r25
     718:	8f 93       	push	r24
     71a:	8b ee       	ldi	r24, 0xEB	; 235
     71c:	92 e0       	ldi	r25, 0x02	; 2
     71e:	8f 93       	push	r24
     720:	0e 94 88 49 	call	0x9310	; 0x9310 <printf>
     724:	8d b7       	in	r24, 0x3d	; 61
     726:	9e b7       	in	r25, 0x3e	; 62
     728:	08 96       	adiw	r24, 0x08	; 8
     72a:	0f b6       	in	r0, 0x3f	; 63
     72c:	f8 94       	cli
     72e:	de bf       	out	0x3e, r29	; 62
     730:	0f be       	out	0x3f, r0	; 63
     732:	cd bf       	out	0x3d, r28	; 61
     734:	0b c0       	rjmp	.+22     	; 0x74c <lora_downLink_task+0x174>
     736:	86 e1       	ldi	r24, 0x16	; 22
			}
			//if configuration is taken by someone else
			else{
				printf("We could not access the shared resource: configMutex");
     738:	93 e0       	ldi	r25, 0x03	; 3
     73a:	89 2f       	mov	r24, r25
     73c:	8f 93       	push	r24
     73e:	86 e1       	ldi	r24, 0x16	; 22
     740:	93 e0       	ldi	r25, 0x03	; 3
     742:	8f 93       	push	r24
     744:	0e 94 88 49 	call	0x9310	; 0x9310 <printf>
     748:	0f 90       	pop	r0
     74a:	0f 90       	pop	r0
     74c:	66 e0       	ldi	r22, 0x06	; 6
			}
			
		}

		vTaskDelay(pdMS_TO_TICKS(100));
     74e:	70 e0       	ldi	r23, 0x00	; 0
     750:	80 e0       	ldi	r24, 0x00	; 0
     752:	90 e0       	ldi	r25, 0x00	; 0
     754:	0e 94 a1 1e 	call	0x3d42	; 0x3d42 <vTaskDelay>
     758:	49 cf       	rjmp	.-366    	; 0x5ec <lora_downLink_task+0x14>

0000075a <lora_downlink_handler_create>:
	}
	}
     75a:	ef 92       	push	r14

}


void lora_downlink_handler_create(UBaseType_t lora_handler_task_priority)
{
     75c:	ff 92       	push	r15
     75e:	0f 93       	push	r16
     760:	cf 93       	push	r28
     762:	df 93       	push	r29
     764:	1f 92       	push	r1
     766:	cd b7       	in	r28, 0x3d	; 61
     768:	de b7       	in	r29, 0x3e	; 62
     76a:	89 83       	std	Y+1, r24	; 0x01

	xTaskCreate(
     76c:	e1 2c       	mov	r14, r1
     76e:	f1 2c       	mov	r15, r1
     770:	09 81       	ldd	r16, Y+1	; 0x01
     772:	20 e0       	ldi	r18, 0x00	; 0
     774:	30 e0       	ldi	r19, 0x00	; 0
     776:	40 ec       	ldi	r20, 0xC0	; 192
     778:	50 e0       	ldi	r21, 0x00	; 0
     77a:	6b e4       	ldi	r22, 0x4B	; 75
     77c:	73 e0       	ldi	r23, 0x03	; 3
     77e:	8c ee       	ldi	r24, 0xEC	; 236
     780:	92 e0       	ldi	r25, 0x02	; 2
     782:	0e 94 b5 1b 	call	0x376a	; 0x376a <xTaskCreate>
	"lora_downlink"
	, configMINIMAL_STACK_SIZE
	, NULL
	,    tskIDLE_PRIORITY + lora_handler_task_priority
	, NULL );
     786:	00 00       	nop
     788:	0f 90       	pop	r0
     78a:	df 91       	pop	r29
     78c:	cf 91       	pop	r28
     78e:	0f 91       	pop	r16
     790:	ff 90       	pop	r15
     792:	ef 90       	pop	r14
     794:	08 95       	ret

00000796 <setHumidity>:
     796:	cf 93       	push	r28
     798:	df 93       	push	r29
     79a:	1f 92       	push	r1
     79c:	1f 92       	push	r1
     79e:	cd b7       	in	r28, 0x3d	; 61
     7a0:	de b7       	in	r29, 0x3e	; 62
     7a2:	9a 83       	std	Y+2, r25	; 0x02
     7a4:	89 83       	std	Y+1, r24	; 0x01
     7a6:	89 81       	ldd	r24, Y+1	; 0x01
     7a8:	9a 81       	ldd	r25, Y+2	; 0x02
     7aa:	90 93 5f 09 	sts	0x095F, r25	; 0x80095f <humidity+0x1>
     7ae:	80 93 5e 09 	sts	0x095E, r24	; 0x80095e <humidity>
     7b2:	00 00       	nop
     7b4:	0f 90       	pop	r0
     7b6:	0f 90       	pop	r0
     7b8:	df 91       	pop	r29
     7ba:	cf 91       	pop	r28
     7bc:	08 95       	ret

000007be <setTemperature>:
     7be:	cf 93       	push	r28
     7c0:	df 93       	push	r29
     7c2:	1f 92       	push	r1
     7c4:	1f 92       	push	r1
     7c6:	cd b7       	in	r28, 0x3d	; 61
     7c8:	de b7       	in	r29, 0x3e	; 62
     7ca:	9a 83       	std	Y+2, r25	; 0x02
     7cc:	89 83       	std	Y+1, r24	; 0x01
     7ce:	89 81       	ldd	r24, Y+1	; 0x01
     7d0:	9a 81       	ldd	r25, Y+2	; 0x02
     7d2:	90 93 5d 09 	sts	0x095D, r25	; 0x80095d <temperature+0x1>
     7d6:	80 93 5c 09 	sts	0x095C, r24	; 0x80095c <temperature>
     7da:	00 00       	nop
     7dc:	0f 90       	pop	r0
     7de:	0f 90       	pop	r0
     7e0:	df 91       	pop	r29
     7e2:	cf 91       	pop	r28
     7e4:	08 95       	ret

000007e6 <setCo2Ppm>:
     7e6:	cf 93       	push	r28
     7e8:	df 93       	push	r29
     7ea:	1f 92       	push	r1
     7ec:	1f 92       	push	r1
     7ee:	cd b7       	in	r28, 0x3d	; 61
     7f0:	de b7       	in	r29, 0x3e	; 62
     7f2:	9a 83       	std	Y+2, r25	; 0x02
     7f4:	89 83       	std	Y+1, r24	; 0x01
     7f6:	89 81       	ldd	r24, Y+1	; 0x01
     7f8:	9a 81       	ldd	r25, Y+2	; 0x02
     7fa:	90 93 5b 09 	sts	0x095B, r25	; 0x80095b <__data_end+0x1>
     7fe:	80 93 5a 09 	sts	0x095A, r24	; 0x80095a <__data_end>
     802:	00 00       	nop
     804:	0f 90       	pop	r0
     806:	0f 90       	pop	r0
     808:	df 91       	pop	r29
     80a:	cf 91       	pop	r28
     80c:	08 95       	ret

0000080e <sensorDataPackageHandler_getLoRaPayload>:
     80e:	cf 93       	push	r28
     810:	df 93       	push	r29
     812:	00 d0       	rcall	.+0      	; 0x814 <sensorDataPackageHandler_getLoRaPayload+0x6>
     814:	1f 92       	push	r1
     816:	1f 92       	push	r1
     818:	cd b7       	in	r28, 0x3d	; 61
     81a:	de b7       	in	r29, 0x3e	; 62
     81c:	9c 83       	std	Y+4, r25	; 0x04
     81e:	8b 83       	std	Y+3, r24	; 0x03
     820:	6d 83       	std	Y+5, r22	; 0x05
     822:	86 e1       	ldi	r24, 0x16	; 22
     824:	90 e0       	ldi	r25, 0x00	; 0
     826:	05 d6       	rcall	.+3082   	; 0x1432 <pvPortMalloc>
     828:	9a 83       	std	Y+2, r25	; 0x02
     82a:	89 83       	std	Y+1, r24	; 0x01
     82c:	89 81       	ldd	r24, Y+1	; 0x01
     82e:	9a 81       	ldd	r25, Y+2	; 0x02
     830:	89 2b       	or	r24, r25
     832:	09 f4       	brne	.+2      	; 0x836 <sensorDataPackageHandler_getLoRaPayload+0x28>
     834:	46 c0       	rjmp	.+140    	; 0x8c2 <sensorDataPackageHandler_getLoRaPayload+0xb4>
     836:	89 81       	ldd	r24, Y+1	; 0x01
     838:	9a 81       	ldd	r25, Y+2	; 0x02
     83a:	2d 81       	ldd	r18, Y+5	; 0x05
     83c:	fc 01       	movw	r30, r24
     83e:	20 83       	st	Z, r18
     840:	89 81       	ldd	r24, Y+1	; 0x01
     842:	9a 81       	ldd	r25, Y+2	; 0x02
     844:	26 e0       	ldi	r18, 0x06	; 6
     846:	fc 01       	movw	r30, r24
     848:	21 83       	std	Z+1, r18	; 0x01
     84a:	80 91 5a 09 	lds	r24, 0x095A	; 0x80095a <__data_end>
     84e:	90 91 5b 09 	lds	r25, 0x095B	; 0x80095b <__data_end+0x1>
     852:	89 2f       	mov	r24, r25
     854:	99 27       	eor	r25, r25
     856:	28 2f       	mov	r18, r24
     858:	89 81       	ldd	r24, Y+1	; 0x01
     85a:	9a 81       	ldd	r25, Y+2	; 0x02
     85c:	fc 01       	movw	r30, r24
     85e:	22 83       	std	Z+2, r18	; 0x02
     860:	80 91 5a 09 	lds	r24, 0x095A	; 0x80095a <__data_end>
     864:	90 91 5b 09 	lds	r25, 0x095B	; 0x80095b <__data_end+0x1>
     868:	28 2f       	mov	r18, r24
     86a:	89 81       	ldd	r24, Y+1	; 0x01
     86c:	9a 81       	ldd	r25, Y+2	; 0x02
     86e:	fc 01       	movw	r30, r24
     870:	23 83       	std	Z+3, r18	; 0x03
     872:	80 91 5e 09 	lds	r24, 0x095E	; 0x80095e <humidity>
     876:	90 91 5f 09 	lds	r25, 0x095F	; 0x80095f <humidity+0x1>
     87a:	89 2f       	mov	r24, r25
     87c:	99 27       	eor	r25, r25
     87e:	28 2f       	mov	r18, r24
     880:	89 81       	ldd	r24, Y+1	; 0x01
     882:	9a 81       	ldd	r25, Y+2	; 0x02
     884:	fc 01       	movw	r30, r24
     886:	24 83       	std	Z+4, r18	; 0x04
     888:	80 91 5e 09 	lds	r24, 0x095E	; 0x80095e <humidity>
     88c:	90 91 5f 09 	lds	r25, 0x095F	; 0x80095f <humidity+0x1>
     890:	28 2f       	mov	r18, r24
     892:	89 81       	ldd	r24, Y+1	; 0x01
     894:	9a 81       	ldd	r25, Y+2	; 0x02
     896:	fc 01       	movw	r30, r24
     898:	25 83       	std	Z+5, r18	; 0x05
     89a:	80 91 5c 09 	lds	r24, 0x095C	; 0x80095c <temperature>
     89e:	90 91 5d 09 	lds	r25, 0x095D	; 0x80095d <temperature+0x1>
     8a2:	89 2f       	mov	r24, r25
     8a4:	99 27       	eor	r25, r25
     8a6:	28 2f       	mov	r18, r24
     8a8:	89 81       	ldd	r24, Y+1	; 0x01
     8aa:	9a 81       	ldd	r25, Y+2	; 0x02
     8ac:	fc 01       	movw	r30, r24
     8ae:	26 83       	std	Z+6, r18	; 0x06
     8b0:	80 91 5c 09 	lds	r24, 0x095C	; 0x80095c <temperature>
     8b4:	90 91 5d 09 	lds	r25, 0x095D	; 0x80095d <temperature+0x1>
     8b8:	28 2f       	mov	r18, r24
     8ba:	89 81       	ldd	r24, Y+1	; 0x01
     8bc:	9a 81       	ldd	r25, Y+2	; 0x02
     8be:	fc 01       	movw	r30, r24
     8c0:	27 83       	std	Z+7, r18	; 0x07
     8c2:	8b 81       	ldd	r24, Y+3	; 0x03
     8c4:	9c 81       	ldd	r25, Y+4	; 0x04
     8c6:	29 81       	ldd	r18, Y+1	; 0x01
     8c8:	3a 81       	ldd	r19, Y+2	; 0x02
     8ca:	46 e1       	ldi	r20, 0x16	; 22
     8cc:	f9 01       	movw	r30, r18
     8ce:	dc 01       	movw	r26, r24
     8d0:	01 90       	ld	r0, Z+
     8d2:	0d 92       	st	X+, r0
     8d4:	4a 95       	dec	r20
     8d6:	e1 f7       	brne	.-8      	; 0x8d0 <sensorDataPackageHandler_getLoRaPayload+0xc2>
     8d8:	8b 81       	ldd	r24, Y+3	; 0x03
     8da:	9c 81       	ldd	r25, Y+4	; 0x04
     8dc:	0f 90       	pop	r0
     8de:	0f 90       	pop	r0
     8e0:	0f 90       	pop	r0
     8e2:	0f 90       	pop	r0
     8e4:	0f 90       	pop	r0
     8e6:	df 91       	pop	r29
     8e8:	cf 91       	pop	r28
     8ea:	08 95       	ret

000008ec <lora_handler_uplink_payload>:
lora_driver_payload_t uplink_payload;

void lora_handler_task( void *pvParameters );

void lora_handler_uplink_payload(UBaseType_t lora_handler_task_priority)
{
     8ec:	ef 92       	push	r14
     8ee:	ff 92       	push	r15
     8f0:	0f 93       	push	r16
     8f2:	cf 93       	push	r28
     8f4:	df 93       	push	r29
     8f6:	1f 92       	push	r1
     8f8:	cd b7       	in	r28, 0x3d	; 61
     8fa:	de b7       	in	r29, 0x3e	; 62
     8fc:	89 83       	std	Y+1, r24	; 0x01
	xTaskCreate(
     8fe:	e1 2c       	mov	r14, r1
     900:	f1 2c       	mov	r15, r1
     902:	09 81       	ldd	r16, Y+1	; 0x01
     904:	20 e0       	ldi	r18, 0x00	; 0
     906:	30 e0       	ldi	r19, 0x00	; 0
     908:	48 e8       	ldi	r20, 0x88	; 136
     90a:	51 e0       	ldi	r21, 0x01	; 1
     90c:	69 e5       	ldi	r22, 0x59	; 89
     90e:	73 e0       	ldi	r23, 0x03	; 3
     910:	8d ec       	ldi	r24, 0xCD	; 205
     912:	95 e0       	ldi	r25, 0x05	; 5
     914:	0e 94 b5 1b 	call	0x376a	; 0x376a <xTaskCreate>
	,  "Uplink_payload_handler_task"  // A name just for humans
	,  configMINIMAL_STACK_SIZE+200  // This stack size can be checked & adjusted by reading the Stack Highwater
	,  NULL
	,  lora_handler_task_priority  // Priority, with 3 (configMAX_PRIORITIES - 1) being the highest, and 0 being the lowest.
	,  NULL );
}
     918:	00 00       	nop
     91a:	0f 90       	pop	r0
     91c:	df 91       	pop	r29
     91e:	cf 91       	pop	r28
     920:	0f 91       	pop	r16
     922:	ff 90       	pop	r15
     924:	ef 90       	pop	r14
     926:	08 95       	ret

00000928 <_lora_setup>:

 void _lora_setup(void)
{
     928:	cf 93       	push	r28
     92a:	df 93       	push	r29
     92c:	cd b7       	in	r28, 0x3d	; 61
     92e:	de b7       	in	r29, 0x3e	; 62
     930:	66 97       	sbiw	r28, 0x16	; 22
     932:	0f b6       	in	r0, 0x3f	; 63
     934:	f8 94       	cli
     936:	de bf       	out	0x3e, r29	; 62
     938:	0f be       	out	0x3f, r0	; 63
     93a:	cd bf       	out	0x3d, r28	; 61
	char _out_buf[20];
	lora_driver_returnCode_t rc;
	status_leds_slowBlink(led_ST2); // OPTIONAL: Led the green led blink slowly while we are setting up LoRa
     93c:	81 e0       	ldi	r24, 0x01	; 1
     93e:	0e 94 78 44 	call	0x88f0	; 0x88f0 <status_leds_slowBlink>

	// Factory reset the transceiver
	printf("FactoryReset >%s<\n", lora_driver_mapReturnCodeToText(lora_driver_rn2483FactoryReset()));
     942:	0e 94 ba 3b 	call	0x7774	; 0x7774 <lora_driver_rn2483FactoryReset>
     946:	0e 94 37 3e 	call	0x7c6e	; 0x7c6e <lora_driver_mapReturnCodeToText>
     94a:	29 2f       	mov	r18, r25
     94c:	2f 93       	push	r18
     94e:	8f 93       	push	r24
     950:	85 e7       	ldi	r24, 0x75	; 117
     952:	93 e0       	ldi	r25, 0x03	; 3
     954:	89 2f       	mov	r24, r25
     956:	8f 93       	push	r24
     958:	85 e7       	ldi	r24, 0x75	; 117
     95a:	93 e0       	ldi	r25, 0x03	; 3
     95c:	8f 93       	push	r24
     95e:	0e 94 88 49 	call	0x9310	; 0x9310 <printf>
     962:	0f 90       	pop	r0
     964:	0f 90       	pop	r0
     966:	0f 90       	pop	r0
     968:	0f 90       	pop	r0
	
	// Configure to EU868 LoRaWAN standards
	printf("Configure to EU868 >%s<\n", lora_driver_mapReturnCodeToText(lora_driver_configureToEu868()));
     96a:	0e 94 38 3d 	call	0x7a70	; 0x7a70 <lora_driver_configureToEu868>
     96e:	0e 94 37 3e 	call	0x7c6e	; 0x7c6e <lora_driver_mapReturnCodeToText>
     972:	29 2f       	mov	r18, r25
     974:	2f 93       	push	r18
     976:	8f 93       	push	r24
     978:	88 e8       	ldi	r24, 0x88	; 136
     97a:	93 e0       	ldi	r25, 0x03	; 3
     97c:	89 2f       	mov	r24, r25
     97e:	8f 93       	push	r24
     980:	88 e8       	ldi	r24, 0x88	; 136
     982:	93 e0       	ldi	r25, 0x03	; 3
     984:	8f 93       	push	r24
     986:	0e 94 88 49 	call	0x9310	; 0x9310 <printf>
     98a:	0f 90       	pop	r0
     98c:	0f 90       	pop	r0
     98e:	0f 90       	pop	r0
     990:	0f 90       	pop	r0

	// Get the transceivers HW EUI
	rc = lora_driver_getRn2483Hweui(_out_buf);
     992:	ce 01       	movw	r24, r28
     994:	03 96       	adiw	r24, 0x03	; 3
     996:	0e 94 cc 3b 	call	0x7798	; 0x7798 <lora_driver_getRn2483Hweui>
     99a:	8a 83       	std	Y+2, r24	; 0x02
	printf("Get HWEUI >%s<: %s\n",lora_driver_mapReturnCodeToText(rc), _out_buf);
     99c:	8a 81       	ldd	r24, Y+2	; 0x02
     99e:	0e 94 37 3e 	call	0x7c6e	; 0x7c6e <lora_driver_mapReturnCodeToText>
     9a2:	9c 01       	movw	r18, r24
     9a4:	ce 01       	movw	r24, r28
     9a6:	03 96       	adiw	r24, 0x03	; 3
     9a8:	49 2f       	mov	r20, r25
     9aa:	4f 93       	push	r20
     9ac:	8f 93       	push	r24
     9ae:	83 2f       	mov	r24, r19
     9b0:	8f 93       	push	r24
     9b2:	82 2f       	mov	r24, r18
     9b4:	8f 93       	push	r24
     9b6:	81 ea       	ldi	r24, 0xA1	; 161
     9b8:	93 e0       	ldi	r25, 0x03	; 3
     9ba:	89 2f       	mov	r24, r25
     9bc:	8f 93       	push	r24
     9be:	81 ea       	ldi	r24, 0xA1	; 161
     9c0:	93 e0       	ldi	r25, 0x03	; 3
     9c2:	8f 93       	push	r24
     9c4:	0e 94 88 49 	call	0x9310	; 0x9310 <printf>
     9c8:	0f 90       	pop	r0
     9ca:	0f 90       	pop	r0
     9cc:	0f 90       	pop	r0
     9ce:	0f 90       	pop	r0
     9d0:	0f 90       	pop	r0
     9d2:	0f 90       	pop	r0

	// Set the HWEUI as DevEUI in the LoRaWAN software stack in the transceiver
	printf("Set DevEUI: %s >%s<\n", _out_buf, lora_driver_mapReturnCodeToText(lora_driver_setDeviceIdentifier(_out_buf)));
     9d4:	ce 01       	movw	r24, r28
     9d6:	03 96       	adiw	r24, 0x03	; 3
     9d8:	0e 94 e8 3b 	call	0x77d0	; 0x77d0 <lora_driver_setDeviceIdentifier>
     9dc:	0e 94 37 3e 	call	0x7c6e	; 0x7c6e <lora_driver_mapReturnCodeToText>
     9e0:	29 2f       	mov	r18, r25
     9e2:	2f 93       	push	r18
     9e4:	8f 93       	push	r24
     9e6:	ce 01       	movw	r24, r28
     9e8:	03 96       	adiw	r24, 0x03	; 3
     9ea:	29 2f       	mov	r18, r25
     9ec:	2f 93       	push	r18
     9ee:	8f 93       	push	r24
     9f0:	85 eb       	ldi	r24, 0xB5	; 181
     9f2:	93 e0       	ldi	r25, 0x03	; 3
     9f4:	89 2f       	mov	r24, r25
     9f6:	8f 93       	push	r24
     9f8:	85 eb       	ldi	r24, 0xB5	; 181
     9fa:	93 e0       	ldi	r25, 0x03	; 3
     9fc:	8f 93       	push	r24
     9fe:	0e 94 88 49 	call	0x9310	; 0x9310 <printf>
     a02:	0f 90       	pop	r0
     a04:	0f 90       	pop	r0
     a06:	0f 90       	pop	r0
     a08:	0f 90       	pop	r0
     a0a:	0f 90       	pop	r0
     a0c:	0f 90       	pop	r0

	// Set Over The Air Activation parameters to be ready to join the LoRaWAN
	printf("Set OTAA Identity appEUI:%s appKEY:%s devEUI:%s >%s<\n", LORA_appEUI, LORA_appKEY, _out_buf, lora_driver_mapReturnCodeToText(lora_driver_setOtaaIdentity(LORA_appEUI,LORA_appKEY,_out_buf)));
     a0e:	ce 01       	movw	r24, r28
     a10:	03 96       	adiw	r24, 0x03	; 3
     a12:	ac 01       	movw	r20, r24
     a14:	6a ec       	ldi	r22, 0xCA	; 202
     a16:	73 e0       	ldi	r23, 0x03	; 3
     a18:	8b ee       	ldi	r24, 0xEB	; 235
     a1a:	93 e0       	ldi	r25, 0x03	; 3
     a1c:	0e 94 16 3e 	call	0x7c2c	; 0x7c2c <lora_driver_setOtaaIdentity>
     a20:	0e 94 37 3e 	call	0x7c6e	; 0x7c6e <lora_driver_mapReturnCodeToText>
     a24:	29 2f       	mov	r18, r25
     a26:	2f 93       	push	r18
     a28:	8f 93       	push	r24
     a2a:	ce 01       	movw	r24, r28
     a2c:	03 96       	adiw	r24, 0x03	; 3
     a2e:	29 2f       	mov	r18, r25
     a30:	2f 93       	push	r18
     a32:	8f 93       	push	r24
     a34:	8a ec       	ldi	r24, 0xCA	; 202
     a36:	93 e0       	ldi	r25, 0x03	; 3
     a38:	89 2f       	mov	r24, r25
     a3a:	8f 93       	push	r24
     a3c:	8a ec       	ldi	r24, 0xCA	; 202
     a3e:	93 e0       	ldi	r25, 0x03	; 3
     a40:	8f 93       	push	r24
     a42:	8b ee       	ldi	r24, 0xEB	; 235
     a44:	93 e0       	ldi	r25, 0x03	; 3
     a46:	89 2f       	mov	r24, r25
     a48:	8f 93       	push	r24
     a4a:	8b ee       	ldi	r24, 0xEB	; 235
     a4c:	93 e0       	ldi	r25, 0x03	; 3
     a4e:	8f 93       	push	r24
     a50:	8c ef       	ldi	r24, 0xFC	; 252
     a52:	93 e0       	ldi	r25, 0x03	; 3
     a54:	89 2f       	mov	r24, r25
     a56:	8f 93       	push	r24
     a58:	8c ef       	ldi	r24, 0xFC	; 252
     a5a:	93 e0       	ldi	r25, 0x03	; 3
     a5c:	8f 93       	push	r24
     a5e:	0e 94 88 49 	call	0x9310	; 0x9310 <printf>
     a62:	8d b7       	in	r24, 0x3d	; 61
     a64:	9e b7       	in	r25, 0x3e	; 62
     a66:	0a 96       	adiw	r24, 0x0a	; 10
     a68:	0f b6       	in	r0, 0x3f	; 63
     a6a:	f8 94       	cli
     a6c:	de bf       	out	0x3e, r29	; 62
     a6e:	0f be       	out	0x3f, r0	; 63
     a70:	cd bf       	out	0x3d, r28	; 61

	// Save all the MAC settings in the transceiver
	printf("Save mac >%s<\n",lora_driver_mapReturnCodeToText(lora_driver_saveMac()));
     a72:	0e 94 1b 3c 	call	0x7836	; 0x7836 <lora_driver_saveMac>
     a76:	0e 94 37 3e 	call	0x7c6e	; 0x7c6e <lora_driver_mapReturnCodeToText>
     a7a:	29 2f       	mov	r18, r25
     a7c:	2f 93       	push	r18
     a7e:	8f 93       	push	r24
     a80:	82 e3       	ldi	r24, 0x32	; 50
     a82:	94 e0       	ldi	r25, 0x04	; 4
     a84:	89 2f       	mov	r24, r25
     a86:	8f 93       	push	r24
     a88:	82 e3       	ldi	r24, 0x32	; 50
     a8a:	94 e0       	ldi	r25, 0x04	; 4
     a8c:	8f 93       	push	r24
     a8e:	0e 94 88 49 	call	0x9310	; 0x9310 <printf>
     a92:	0f 90       	pop	r0
     a94:	0f 90       	pop	r0
     a96:	0f 90       	pop	r0
     a98:	0f 90       	pop	r0

	// Enable Adaptive Data Rate
	printf("Set Adaptive Data Rate: ON >%s<\n", lora_driver_mapReturnCodeToText(lora_driver_setAdaptiveDataRate(LORA_ON)));
     a9a:	81 e0       	ldi	r24, 0x01	; 1
     a9c:	0e 94 15 3d 	call	0x7a2a	; 0x7a2a <lora_driver_setAdaptiveDataRate>
     aa0:	0e 94 37 3e 	call	0x7c6e	; 0x7c6e <lora_driver_mapReturnCodeToText>
     aa4:	29 2f       	mov	r18, r25
     aa6:	2f 93       	push	r18
     aa8:	8f 93       	push	r24
     aaa:	81 e4       	ldi	r24, 0x41	; 65
     aac:	94 e0       	ldi	r25, 0x04	; 4
     aae:	89 2f       	mov	r24, r25
     ab0:	8f 93       	push	r24
     ab2:	81 e4       	ldi	r24, 0x41	; 65
     ab4:	94 e0       	ldi	r25, 0x04	; 4
     ab6:	8f 93       	push	r24
     ab8:	0e 94 88 49 	call	0x9310	; 0x9310 <printf>
     abc:	0f 90       	pop	r0
     abe:	0f 90       	pop	r0
     ac0:	0f 90       	pop	r0
     ac2:	0f 90       	pop	r0

	// Set receiver window1 delay to 500 ms - this is needed if down-link messages will be used
	printf("Set Receiver Delay: %d ms >%s<\n", 500, lora_driver_mapReturnCodeToText(lora_driver_setReceiveDelay(500)));
     ac4:	84 ef       	ldi	r24, 0xF4	; 244
     ac6:	91 e0       	ldi	r25, 0x01	; 1
     ac8:	0e 94 20 3d 	call	0x7a40	; 0x7a40 <lora_driver_setReceiveDelay>
     acc:	0e 94 37 3e 	call	0x7c6e	; 0x7c6e <lora_driver_mapReturnCodeToText>
     ad0:	29 2f       	mov	r18, r25
     ad2:	2f 93       	push	r18
     ad4:	8f 93       	push	r24
     ad6:	81 e0       	ldi	r24, 0x01	; 1
     ad8:	8f 93       	push	r24
     ada:	84 ef       	ldi	r24, 0xF4	; 244
     adc:	8f 93       	push	r24
     ade:	82 e6       	ldi	r24, 0x62	; 98
     ae0:	94 e0       	ldi	r25, 0x04	; 4
     ae2:	89 2f       	mov	r24, r25
     ae4:	8f 93       	push	r24
     ae6:	82 e6       	ldi	r24, 0x62	; 98
     ae8:	94 e0       	ldi	r25, 0x04	; 4
     aea:	8f 93       	push	r24
     aec:	0e 94 88 49 	call	0x9310	; 0x9310 <printf>
     af0:	0f 90       	pop	r0
     af2:	0f 90       	pop	r0
     af4:	0f 90       	pop	r0
     af6:	0f 90       	pop	r0
     af8:	0f 90       	pop	r0
     afa:	0f 90       	pop	r0

	// Join the LoRaWAN
	uint8_t maxJoinTriesLeft = 10;
     afc:	8a e0       	ldi	r24, 0x0A	; 10
     afe:	89 83       	std	Y+1, r24	; 0x01
	
	do {
		rc = lora_driver_join(LORA_OTAA);
     b00:	80 e0       	ldi	r24, 0x00	; 0
     b02:	0e 94 21 3c 	call	0x7842	; 0x7842 <lora_driver_join>
     b06:	8a 83       	std	Y+2, r24	; 0x02
		printf("Join Network TriesLeft:%d >%s<\n", maxJoinTriesLeft, lora_driver_mapReturnCodeToText(rc));
     b08:	8a 81       	ldd	r24, Y+2	; 0x02
     b0a:	0e 94 37 3e 	call	0x7c6e	; 0x7c6e <lora_driver_mapReturnCodeToText>
     b0e:	9c 01       	movw	r18, r24
     b10:	89 81       	ldd	r24, Y+1	; 0x01
     b12:	88 2f       	mov	r24, r24
     b14:	90 e0       	ldi	r25, 0x00	; 0
     b16:	43 2f       	mov	r20, r19
     b18:	4f 93       	push	r20
     b1a:	2f 93       	push	r18
     b1c:	29 2f       	mov	r18, r25
     b1e:	2f 93       	push	r18
     b20:	8f 93       	push	r24
     b22:	82 e8       	ldi	r24, 0x82	; 130
     b24:	94 e0       	ldi	r25, 0x04	; 4
     b26:	89 2f       	mov	r24, r25
     b28:	8f 93       	push	r24
     b2a:	82 e8       	ldi	r24, 0x82	; 130
     b2c:	94 e0       	ldi	r25, 0x04	; 4
     b2e:	8f 93       	push	r24
     b30:	0e 94 88 49 	call	0x9310	; 0x9310 <printf>
     b34:	0f 90       	pop	r0
     b36:	0f 90       	pop	r0
     b38:	0f 90       	pop	r0
     b3a:	0f 90       	pop	r0
     b3c:	0f 90       	pop	r0
     b3e:	0f 90       	pop	r0

		if ( rc != LORA_ACCEPTED)
     b40:	8a 81       	ldd	r24, Y+2	; 0x02
     b42:	88 30       	cpi	r24, 0x08	; 8
     b44:	81 f0       	breq	.+32     	; 0xb66 <_lora_setup+0x23e>
		{
			// Make the red led pulse to tell something went wrong
			status_leds_longPuls(led_ST1); // OPTIONAL
     b46:	80 e0       	ldi	r24, 0x00	; 0
     b48:	0e 94 dc 44 	call	0x89b8	; 0x89b8 <status_leds_longPuls>
			// Wait 5 sec and lets try again
			vTaskDelay(pdMS_TO_TICKS(5000UL));
     b4c:	66 e3       	ldi	r22, 0x36	; 54
     b4e:	71 e0       	ldi	r23, 0x01	; 1
     b50:	80 e0       	ldi	r24, 0x00	; 0
     b52:	90 e0       	ldi	r25, 0x00	; 0
     b54:	0e 94 a1 1e 	call	0x3d42	; 0x3d42 <vTaskDelay>
		}
		else
		{
			break;
		}
	} while (--maxJoinTriesLeft);
     b58:	89 81       	ldd	r24, Y+1	; 0x01
     b5a:	81 50       	subi	r24, 0x01	; 1
     b5c:	89 83       	std	Y+1, r24	; 0x01
     b5e:	89 81       	ldd	r24, Y+1	; 0x01
     b60:	88 23       	and	r24, r24
     b62:	71 f6       	brne	.-100    	; 0xb00 <_lora_setup+0x1d8>
     b64:	01 c0       	rjmp	.+2      	; 0xb68 <_lora_setup+0x240>
			// Wait 5 sec and lets try again
			vTaskDelay(pdMS_TO_TICKS(5000UL));
		}
		else
		{
			break;
     b66:	00 00       	nop
		}
	} while (--maxJoinTriesLeft);

	if (rc == LORA_ACCEPTED)
     b68:	8a 81       	ldd	r24, Y+2	; 0x02
     b6a:	88 30       	cpi	r24, 0x08	; 8
     b6c:	21 f4       	brne	.+8      	; 0xb76 <_lora_setup+0x24e>
	{
		// Connected to LoRaWAN :-)
		// Make the green led steady
		status_leds_ledOn(led_ST2); // OPTIONAL
     b6e:	81 e0       	ldi	r24, 0x01	; 1
     b70:	0e 94 be 44 	call	0x897c	; 0x897c <status_leds_ledOn>
		while (1)
		{
			taskYIELD();
		}
	}
}
     b74:	09 c0       	rjmp	.+18     	; 0xb88 <_lora_setup+0x260>
	}
	else
	{
		// Something went wrong
		// Turn off the green led
		status_leds_ledOff(led_ST2); // OPTIONAL
     b76:	81 e0       	ldi	r24, 0x01	; 1
     b78:	0e 94 cd 44 	call	0x899a	; 0x899a <status_leds_ledOff>
		// Make the red led blink fast to tell something went wrong
		status_leds_fastBlink(led_ST1); // OPTIONAL
     b7c:	80 e0       	ldi	r24, 0x00	; 0
     b7e:	0e 94 9b 44 	call	0x8936	; 0x8936 <status_leds_fastBlink>

		// Lets stay here
		while (1)
		{
			taskYIELD();
     b82:	0e 94 c3 0e 	call	0x1d86	; 0x1d86 <vPortYield>
		}
     b86:	fd cf       	rjmp	.-6      	; 0xb82 <_lora_setup+0x25a>
	}
}
     b88:	66 96       	adiw	r28, 0x16	; 22
     b8a:	0f b6       	in	r0, 0x3f	; 63
     b8c:	f8 94       	cli
     b8e:	de bf       	out	0x3e, r29	; 62
     b90:	0f be       	out	0x3f, r0	; 63
     b92:	cd bf       	out	0x3d, r28	; 61
     b94:	df 91       	pop	r29
     b96:	cf 91       	pop	r28
     b98:	08 95       	ret

00000b9a <lora_handler_task>:

/*-----------------------------------------------------------*/
void lora_handler_task( void *pvParameters )
{
     b9a:	0f 93       	push	r16
     b9c:	1f 93       	push	r17
     b9e:	cf 93       	push	r28
     ba0:	df 93       	push	r29
     ba2:	cd b7       	in	r28, 0x3d	; 61
     ba4:	de b7       	in	r29, 0x3e	; 62
     ba6:	2a 97       	sbiw	r28, 0x0a	; 10
     ba8:	0f b6       	in	r0, 0x3f	; 63
     baa:	f8 94       	cli
     bac:	de bf       	out	0x3e, r29	; 62
     bae:	0f be       	out	0x3f, r0	; 63
     bb0:	cd bf       	out	0x3d, r28	; 61
     bb2:	9a 87       	std	Y+10, r25	; 0x0a
     bb4:	89 87       	std	Y+9, r24	; 0x09
	// Hardware reset of LoRaWAN transceiver
	lora_driver_resetRn2483(1);
     bb6:	81 e0       	ldi	r24, 0x01	; 1
     bb8:	0e 94 ac 3b 	call	0x7758	; 0x7758 <lora_driver_resetRn2483>
	vTaskDelay(2);
     bbc:	62 e0       	ldi	r22, 0x02	; 2
     bbe:	70 e0       	ldi	r23, 0x00	; 0
     bc0:	80 e0       	ldi	r24, 0x00	; 0
     bc2:	90 e0       	ldi	r25, 0x00	; 0
     bc4:	0e 94 a1 1e 	call	0x3d42	; 0x3d42 <vTaskDelay>
	lora_driver_resetRn2483(0);
     bc8:	80 e0       	ldi	r24, 0x00	; 0
     bca:	0e 94 ac 3b 	call	0x7758	; 0x7758 <lora_driver_resetRn2483>
	// Give it a chance to wakeup
	vTaskDelay(150);
     bce:	66 e9       	ldi	r22, 0x96	; 150
     bd0:	70 e0       	ldi	r23, 0x00	; 0
     bd2:	80 e0       	ldi	r24, 0x00	; 0
     bd4:	90 e0       	ldi	r25, 0x00	; 0
     bd6:	0e 94 a1 1e 	call	0x3d42	; 0x3d42 <vTaskDelay>

	lora_driver_flushBuffers(); // get rid of first version string from module after reset!
     bda:	0e 94 65 3b 	call	0x76ca	; 0x76ca <lora_driver_flushBuffers>

	_lora_setup();
     bde:	a4 de       	rcall	.-696    	; 0x928 <_lora_setup>

	TickType_t xLastWakeTime;
	const TickType_t xFrequency = pdMS_TO_TICKS(60000UL); // Upload message every 5 minutes (300000 ms)
     be0:	88 e8       	ldi	r24, 0x88	; 136
     be2:	9e e0       	ldi	r25, 0x0E	; 14
     be4:	a0 e0       	ldi	r26, 0x00	; 0
     be6:	b0 e0       	ldi	r27, 0x00	; 0
     be8:	89 83       	std	Y+1, r24	; 0x01
     bea:	9a 83       	std	Y+2, r25	; 0x02
     bec:	ab 83       	std	Y+3, r26	; 0x03
     bee:	bc 83       	std	Y+4, r27	; 0x04
	xLastWakeTime = xTaskGetTickCount();
     bf0:	0e 94 b0 20 	call	0x4160	; 0x4160 <xTaskGetTickCount>
     bf4:	dc 01       	movw	r26, r24
     bf6:	cb 01       	movw	r24, r22
     bf8:	8d 83       	std	Y+5, r24	; 0x05
     bfa:	9e 83       	std	Y+6, r25	; 0x06
     bfc:	af 83       	std	Y+7, r26	; 0x07
     bfe:	b8 87       	std	Y+8, r27	; 0x08
	
	for(;;)
	{
		xTaskDelayUntil( &xLastWakeTime, xFrequency );
     c00:	89 81       	ldd	r24, Y+1	; 0x01
     c02:	9a 81       	ldd	r25, Y+2	; 0x02
     c04:	ab 81       	ldd	r26, Y+3	; 0x03
     c06:	bc 81       	ldd	r27, Y+4	; 0x04
     c08:	9e 01       	movw	r18, r28
     c0a:	2b 5f       	subi	r18, 0xFB	; 251
     c0c:	3f 4f       	sbci	r19, 0xFF	; 255
     c0e:	ac 01       	movw	r20, r24
     c10:	bd 01       	movw	r22, r26
     c12:	c9 01       	movw	r24, r18
     c14:	0e 94 e5 1d 	call	0x3bca	; 0x3bca <xTaskDelayUntil>

		
		xMessageBufferReceive(upLinkMessageBuffer,&uplink_payload,sizeof(uplink_payload),portMAX_DELAY);
     c18:	80 91 42 19 	lds	r24, 0x1942	; 0x801942 <upLinkMessageBuffer>
     c1c:	90 91 43 19 	lds	r25, 0x1943	; 0x801943 <upLinkMessageBuffer+0x1>
     c20:	0f ef       	ldi	r16, 0xFF	; 255
     c22:	1f ef       	ldi	r17, 0xFF	; 255
     c24:	98 01       	movw	r18, r16
     c26:	46 e1       	ldi	r20, 0x16	; 22
     c28:	50 e0       	ldi	r21, 0x00	; 0
     c2a:	6c e2       	ldi	r22, 0x2C	; 44
     c2c:	79 e1       	ldi	r23, 0x19	; 25
     c2e:	0e 94 cb 18 	call	0x3196	; 0x3196 <xStreamBufferReceive>
		status_leds_shortPuls(led_ST4);  // OPTIONAL
     c32:	83 e0       	ldi	r24, 0x03	; 3
     c34:	0e 94 ee 44 	call	0x89dc	; 0x89dc <status_leds_shortPuls>
		printf("Upload Message >%s<\n", lora_driver_mapReturnCodeToText(lora_driver_sendUploadMessage(false, &uplink_payload)));
     c38:	6c e2       	ldi	r22, 0x2C	; 44
     c3a:	79 e1       	ldi	r23, 0x19	; 25
     c3c:	80 e0       	ldi	r24, 0x00	; 0
     c3e:	0e 94 4a 3c 	call	0x7894	; 0x7894 <lora_driver_sendUploadMessage>
     c42:	0e 94 37 3e 	call	0x7c6e	; 0x7c6e <lora_driver_mapReturnCodeToText>
     c46:	29 2f       	mov	r18, r25
     c48:	2f 93       	push	r18
     c4a:	8f 93       	push	r24
     c4c:	82 ea       	ldi	r24, 0xA2	; 162
     c4e:	94 e0       	ldi	r25, 0x04	; 4
     c50:	89 2f       	mov	r24, r25
     c52:	8f 93       	push	r24
     c54:	82 ea       	ldi	r24, 0xA2	; 162
     c56:	94 e0       	ldi	r25, 0x04	; 4
     c58:	8f 93       	push	r24
     c5a:	0e 94 88 49 	call	0x9310	; 0x9310 <printf>
     c5e:	0f 90       	pop	r0
     c60:	0f 90       	pop	r0
     c62:	0f 90       	pop	r0
     c64:	0f 90       	pop	r0
	}
     c66:	cc cf       	rjmp	.-104    	; 0xc00 <lora_handler_task+0x66>

00000c68 <initializeEventGroup>:
EventGroupHandle_t dataReadyEventGroup;
MessageBufferHandle_t upLinkMessageBuffer;
MessageBufferHandle_t downLinkMessageBuffer;

void initializeEventGroup()
{
     c68:	cf 93       	push	r28
     c6a:	df 93       	push	r29
     c6c:	cd b7       	in	r28, 0x3d	; 61
     c6e:	de b7       	in	r29, 0x3e	; 62
	dataReadyEventGroup = xEventGroupCreate();
     c70:	2d d1       	rcall	.+602    	; 0xecc <xEventGroupCreate>
     c72:	90 93 45 19 	sts	0x1945, r25	; 0x801945 <dataReadyEventGroup+0x1>
     c76:	80 93 44 19 	sts	0x1944, r24	; 0x801944 <dataReadyEventGroup>
	measureEventGroup = xEventGroupCreate();
     c7a:	28 d1       	rcall	.+592    	; 0xecc <xEventGroupCreate>
     c7c:	90 93 47 19 	sts	0x1947, r25	; 0x801947 <measureEventGroup+0x1>
     c80:	80 93 46 19 	sts	0x1946, r24	; 0x801946 <measureEventGroup>
     c84:	00 00       	nop
}
     c86:	df 91       	pop	r29
     c88:	cf 91       	pop	r28
     c8a:	08 95       	ret

00000c8c <createUpLinkMessageBuffer>:
     c8c:	cf 93       	push	r28


void createUpLinkMessageBuffer()
{
     c8e:	df 93       	push	r29
     c90:	cd b7       	in	r28, 0x3d	; 61
     c92:	de b7       	in	r29, 0x3e	; 62
	
	upLinkMessageBuffer = xMessageBufferCreate(sizeof(lora_driver_payload_t)*2);
     c94:	41 e0       	ldi	r20, 0x01	; 1
     c96:	60 e0       	ldi	r22, 0x00	; 0
     c98:	70 e0       	ldi	r23, 0x00	; 0
     c9a:	8c e2       	ldi	r24, 0x2C	; 44
     c9c:	90 e0       	ldi	r25, 0x00	; 0
     c9e:	0e 94 f3 15 	call	0x2be6	; 0x2be6 <xStreamBufferGenericCreate>
     ca2:	90 93 43 19 	sts	0x1943, r25	; 0x801943 <upLinkMessageBuffer+0x1>
     ca6:	80 93 42 19 	sts	0x1942, r24	; 0x801942 <upLinkMessageBuffer>
	if(upLinkMessageBuffer == NULL )
     caa:	80 91 42 19 	lds	r24, 0x1942	; 0x801942 <upLinkMessageBuffer>
     cae:	90 91 43 19 	lds	r25, 0x1943	; 0x801943 <upLinkMessageBuffer+0x1>
     cb2:	89 2b       	or	r24, r25
     cb4:	61 f4       	brne	.+24     	; 0xcce <createUpLinkMessageBuffer+0x42>
	{
		printf("Not enough heap memory for uplink message buffer");
     cb6:	87 eb       	ldi	r24, 0xB7	; 183
     cb8:	94 e0       	ldi	r25, 0x04	; 4
     cba:	89 2f       	mov	r24, r25
     cbc:	8f 93       	push	r24
     cbe:	87 eb       	ldi	r24, 0xB7	; 183
     cc0:	94 e0       	ldi	r25, 0x04	; 4
     cc2:	8f 93       	push	r24
     cc4:	0e 94 88 49 	call	0x9310	; 0x9310 <printf>
     cc8:	0f 90       	pop	r0
     cca:	0f 90       	pop	r0
	}
	else
	{
		printf("Uplink message buffer created succesffully");
	}
}
     ccc:	0b c0       	rjmp	.+22     	; 0xce4 <createUpLinkMessageBuffer+0x58>
	{
		printf("Not enough heap memory for uplink message buffer");
	}
	else
	{
		printf("Uplink message buffer created succesffully");
     cce:	88 ee       	ldi	r24, 0xE8	; 232
     cd0:	94 e0       	ldi	r25, 0x04	; 4
     cd2:	89 2f       	mov	r24, r25
     cd4:	8f 93       	push	r24
     cd6:	88 ee       	ldi	r24, 0xE8	; 232
     cd8:	94 e0       	ldi	r25, 0x04	; 4
     cda:	8f 93       	push	r24
     cdc:	0e 94 88 49 	call	0x9310	; 0x9310 <printf>
     ce0:	0f 90       	pop	r0
     ce2:	0f 90       	pop	r0
	}
}
     ce4:	00 00       	nop
     ce6:	df 91       	pop	r29
     ce8:	cf 91       	pop	r28
     cea:	08 95       	ret

00000cec <createDownLinkMessageBuffer>:

void createDownLinkMessageBuffer()
{
     cec:	cf 93       	push	r28
     cee:	df 93       	push	r29
     cf0:	cd b7       	in	r28, 0x3d	; 61
     cf2:	de b7       	in	r29, 0x3e	; 62
	
	downLinkMessageBuffer = xMessageBufferCreate(sizeof(lora_driver_payload_t)*2);
     cf4:	41 e0       	ldi	r20, 0x01	; 1
     cf6:	60 e0       	ldi	r22, 0x00	; 0
     cf8:	70 e0       	ldi	r23, 0x00	; 0
     cfa:	8c e2       	ldi	r24, 0x2C	; 44
     cfc:	90 e0       	ldi	r25, 0x00	; 0
     cfe:	0e 94 f3 15 	call	0x2be6	; 0x2be6 <xStreamBufferGenericCreate>
     d02:	90 93 49 19 	sts	0x1949, r25	; 0x801949 <downLinkMessageBuffer+0x1>
     d06:	80 93 48 19 	sts	0x1948, r24	; 0x801948 <downLinkMessageBuffer>
	if(downLinkMessageBuffer == NULL )
     d0a:	80 91 48 19 	lds	r24, 0x1948	; 0x801948 <downLinkMessageBuffer>
     d0e:	90 91 49 19 	lds	r25, 0x1949	; 0x801949 <downLinkMessageBuffer+0x1>
     d12:	89 2b       	or	r24, r25
     d14:	61 f4       	brne	.+24     	; 0xd2e <createDownLinkMessageBuffer+0x42>
	{
		printf("Not enough heap memory for downlink message buffer");
     d16:	83 e1       	ldi	r24, 0x13	; 19
     d18:	95 e0       	ldi	r25, 0x05	; 5
     d1a:	89 2f       	mov	r24, r25
     d1c:	8f 93       	push	r24
     d1e:	83 e1       	ldi	r24, 0x13	; 19
     d20:	95 e0       	ldi	r25, 0x05	; 5
     d22:	8f 93       	push	r24
     d24:	0e 94 88 49 	call	0x9310	; 0x9310 <printf>
     d28:	0f 90       	pop	r0
     d2a:	0f 90       	pop	r0
	}
	else
	{
		printf("Downlink message buffer created succesffully");
	}
     d2c:	0b c0       	rjmp	.+22     	; 0xd44 <createDownLinkMessageBuffer+0x58>
	{
		printf("Not enough heap memory for downlink message buffer");
	}
	else
	{
		printf("Downlink message buffer created succesffully");
     d2e:	86 e4       	ldi	r24, 0x46	; 70
     d30:	95 e0       	ldi	r25, 0x05	; 5
     d32:	89 2f       	mov	r24, r25
     d34:	8f 93       	push	r24
     d36:	86 e4       	ldi	r24, 0x46	; 70
     d38:	95 e0       	ldi	r25, 0x05	; 5
     d3a:	8f 93       	push	r24
     d3c:	0e 94 88 49 	call	0x9310	; 0x9310 <printf>
     d40:	0f 90       	pop	r0
     d42:	0f 90       	pop	r0
	}
     d44:	00 00       	nop
     d46:	df 91       	pop	r29
     d48:	cf 91       	pop	r28
     d4a:	08 95       	ret

00000d4c <getHumidity>:
void create(UBaseType_t Taskpriority)
{
	initializeTempAndHumDriver();
	createTempAndHumTask(Taskpriority);
	
}
     d4c:	cf 93       	push	r28
     d4e:	df 93       	push	r29
     d50:	cd b7       	in	r28, 0x3d	; 61
     d52:	de b7       	in	r29, 0x3e	; 62
     d54:	80 91 5e 09 	lds	r24, 0x095E	; 0x80095e <humidity>
     d58:	90 91 5f 09 	lds	r25, 0x095F	; 0x80095f <humidity+0x1>
     d5c:	df 91       	pop	r29
     d5e:	cf 91       	pop	r28
     d60:	08 95       	ret

00000d62 <getTemperature>:
     d62:	cf 93       	push	r28
     d64:	df 93       	push	r29
     d66:	cd b7       	in	r28, 0x3d	; 61
     d68:	de b7       	in	r29, 0x3e	; 62
     d6a:	80 91 5c 09 	lds	r24, 0x095C	; 0x80095c <temperature>
     d6e:	90 91 5d 09 	lds	r25, 0x095D	; 0x80095d <temperature+0x1>
     d72:	df 91       	pop	r29
     d74:	cf 91       	pop	r28
     d76:	08 95       	ret

00000d78 <initializeTempAndHumDriver>:

void initializeTempAndHumDriver()
{
     d78:	cf 93       	push	r28
     d7a:	df 93       	push	r29
     d7c:	1f 92       	push	r1
     d7e:	cd b7       	in	r28, 0x3d	; 61
     d80:	de b7       	in	r29, 0x3e	; 62
	hih8120_driverReturnCode_t returnCode = hih8120_initialise();
     d82:	0e 94 ce 39 	call	0x739c	; 0x739c <hih8120_initialise>
     d86:	89 83       	std	Y+1, r24	; 0x01

	if ( HIH8120_OK == returnCode )
     d88:	89 81       	ldd	r24, Y+1	; 0x01
     d8a:	88 23       	and	r24, r24
     d8c:	29 f4       	brne	.+10     	; 0xd98 <initializeTempAndHumDriver+0x20>
	{
		printf("Temp and Hum Driver Initialized ok\n");
     d8e:	83 e7       	ldi	r24, 0x73	; 115
     d90:	95 e0       	ldi	r25, 0x05	; 5
     d92:	0e 94 9b 49 	call	0x9336	; 0x9336 <puts>
	}
	
	else {
		printf("TEMP AND HUM OUT OF HEAP \n");
	}
}
     d96:	04 c0       	rjmp	.+8      	; 0xda0 <initializeTempAndHumDriver+0x28>
	{
		printf("Temp and Hum Driver Initialized ok\n");
	}
	
	else {
		printf("TEMP AND HUM OUT OF HEAP \n");
     d98:	86 e9       	ldi	r24, 0x96	; 150
     d9a:	95 e0       	ldi	r25, 0x05	; 5
     d9c:	0e 94 9b 49 	call	0x9336	; 0x9336 <puts>
	}
}
     da0:	00 00       	nop
     da2:	0f 90       	pop	r0
     da4:	df 91       	pop	r29
     da6:	cf 91       	pop	r28
     da8:	08 95       	ret

00000daa <measureTempAndHum>:

void measureTempAndHum()
{
     daa:	cf 93       	push	r28
     dac:	df 93       	push	r29
     dae:	cd b7       	in	r28, 0x3d	; 61
     db0:	de b7       	in	r29, 0x3e	; 62
	if ( HIH8120_OK != hih8120_wakeup() )
     db2:	0e 94 e6 39 	call	0x73cc	; 0x73cc <hih8120_wakeup>
     db6:	88 23       	and	r24, r24
     db8:	21 f0       	breq	.+8      	; 0xdc2 <measureTempAndHum+0x18>
	{
		printf("TEMP AND HUM WAKE UP WENT WRONG\n");
     dba:	80 eb       	ldi	r24, 0xB0	; 176
     dbc:	95 e0       	ldi	r25, 0x05	; 5
     dbe:	0e 94 9b 49 	call	0x9336	; 0x9336 <puts>
	}
	
	vTaskDelay(pdMS_TO_TICKS(50));
     dc2:	63 e0       	ldi	r22, 0x03	; 3
     dc4:	70 e0       	ldi	r23, 0x00	; 0
     dc6:	80 e0       	ldi	r24, 0x00	; 0
     dc8:	90 e0       	ldi	r25, 0x00	; 0
     dca:	0e 94 a1 1e 	call	0x3d42	; 0x3d42 <vTaskDelay>
	
	if ( HIH8120_OK !=  hih8120_measure() )
     dce:	0e 94 fb 39 	call	0x73f6	; 0x73f6 <hih8120_measure>
     dd2:	88 23       	and	r24, r24
     dd4:	21 f0       	breq	.+8      	; 0xdde <measureTempAndHum+0x34>
	{
		printf("TEMP AND HUM MEASURING UP WENT WRONG\n");
     dd6:	80 ed       	ldi	r24, 0xD0	; 208
     dd8:	95 e0       	ldi	r25, 0x05	; 5
     dda:	0e 94 9b 49 	call	0x9336	; 0x9336 <puts>
	}
	
	vTaskDelay(pdMS_TO_TICKS(20));
     dde:	61 e0       	ldi	r22, 0x01	; 1
     de0:	70 e0       	ldi	r23, 0x00	; 0
     de2:	80 e0       	ldi	r24, 0x00	; 0
     de4:	90 e0       	ldi	r25, 0x00	; 0
     de6:	0e 94 a1 1e 	call	0x3d42	; 0x3d42 <vTaskDelay>
}
     dea:	00 00       	nop
     dec:	df 91       	pop	r29
     dee:	cf 91       	pop	r28
     df0:	08 95       	ret

00000df2 <TempAndHumTask>:

void TempAndHumTask(void* pvpParameter)
{
     df2:	cf 92       	push	r12
     df4:	df 92       	push	r13
     df6:	ef 92       	push	r14
     df8:	ff 92       	push	r15
     dfa:	0f 93       	push	r16
     dfc:	cf 93       	push	r28
     dfe:	df 93       	push	r29
     e00:	00 d0       	rcall	.+0      	; 0xe02 <TempAndHumTask+0x10>
     e02:	00 d0       	rcall	.+0      	; 0xe04 <TempAndHumTask+0x12>
     e04:	cd b7       	in	r28, 0x3d	; 61
     e06:	de b7       	in	r29, 0x3e	; 62
     e08:	9e 83       	std	Y+6, r25	; 0x06
     e0a:	8d 83       	std	Y+5, r24	; 0x05
	
	while(1)
	{
		//Use it for later when we have both sensors = EventBits_t eventBits = xEventGroupWaitBits(measureEventGroup,ALL_MEASURE_BITS,pdTRUE,pdTRUE,portMAX_DELAY);
		EventBits_t eventBits = xEventGroupWaitBits(measureEventGroup,HUMIDITY_TEMPERATURE_MEASURE_BIT,pdTRUE,pdTRUE,portMAX_DELAY);
     e0c:	80 91 46 19 	lds	r24, 0x1946	; 0x801946 <measureEventGroup>
     e10:	90 91 47 19 	lds	r25, 0x1947	; 0x801947 <measureEventGroup+0x1>
     e14:	cc 24       	eor	r12, r12
     e16:	ca 94       	dec	r12
     e18:	dc 2c       	mov	r13, r12
     e1a:	76 01       	movw	r14, r12
     e1c:	01 e0       	ldi	r16, 0x01	; 1
     e1e:	21 e0       	ldi	r18, 0x01	; 1
     e20:	41 e0       	ldi	r20, 0x01	; 1
     e22:	50 e0       	ldi	r21, 0x00	; 0
     e24:	60 e0       	ldi	r22, 0x00	; 0
     e26:	70 e0       	ldi	r23, 0x00	; 0
     e28:	72 d0       	rcall	.+228    	; 0xf0e <xEventGroupWaitBits>
     e2a:	dc 01       	movw	r26, r24
     e2c:	cb 01       	movw	r24, r22
     e2e:	89 83       	std	Y+1, r24	; 0x01
     e30:	9a 83       	std	Y+2, r25	; 0x02
     e32:	ab 83       	std	Y+3, r26	; 0x03
     e34:	bc 83       	std	Y+4, r27	; 0x04
		if(eventBits & (HUMIDITY_TEMPERATURE_MEASURE_BIT))
     e36:	89 81       	ldd	r24, Y+1	; 0x01
     e38:	9a 81       	ldd	r25, Y+2	; 0x02
     e3a:	ab 81       	ldd	r26, Y+3	; 0x03
     e3c:	bc 81       	ldd	r27, Y+4	; 0x04
     e3e:	81 70       	andi	r24, 0x01	; 1
     e40:	99 27       	eor	r25, r25
     e42:	aa 27       	eor	r26, r26
     e44:	bb 27       	eor	r27, r27
     e46:	89 2b       	or	r24, r25
     e48:	8a 2b       	or	r24, r26
     e4a:	8b 2b       	or	r24, r27
     e4c:	d1 f0       	breq	.+52     	; 0xe82 <TempAndHumTask+0x90>
		{
			puts("Measuring metrics...");
     e4e:	85 ef       	ldi	r24, 0xF5	; 245
     e50:	95 e0       	ldi	r25, 0x05	; 5
     e52:	0e 94 9b 49 	call	0x9336	; 0x9336 <puts>
			measureTempAndHum();
     e56:	a9 df       	rcall	.-174    	; 0xdaa <measureTempAndHum>
			temperature = hih8120_getTemperature_x10();
     e58:	0e 94 43 3a 	call	0x7486	; 0x7486 <hih8120_getTemperature_x10>
     e5c:	90 93 5d 09 	sts	0x095D, r25	; 0x80095d <temperature+0x1>
     e60:	80 93 5c 09 	sts	0x095C, r24	; 0x80095c <temperature>
			humidity = hih8120_getHumidityPercent_x10();
     e64:	0e 94 20 3a 	call	0x7440	; 0x7440 <hih8120_getHumidityPercent_x10>
     e68:	90 93 5f 09 	sts	0x095F, r25	; 0x80095f <humidity+0x1>
     e6c:	80 93 5e 09 	sts	0x095E, r24	; 0x80095e <humidity>
			//printf("Temperature: %d\n",Temp);
			//printf("Humidity: %d\n",Humidity);
			//Use it for later when we have both sensors = xEventGroupSetBits(dataReadyEventGroup,ALL_READY_BIT);
			xEventGroupSetBits(dataReadyEventGroup,HUMIDITY_TEMPERATURE_READY_BIT);
     e70:	80 91 44 19 	lds	r24, 0x1944	; 0x801944 <dataReadyEventGroup>
     e74:	90 91 45 19 	lds	r25, 0x1945	; 0x801945 <dataReadyEventGroup+0x1>
     e78:	42 e0       	ldi	r20, 0x02	; 2
     e7a:	50 e0       	ldi	r21, 0x00	; 0
     e7c:	60 e0       	ldi	r22, 0x00	; 0
     e7e:	70 e0       	ldi	r23, 0x00	; 0
     e80:	7d d1       	rcall	.+762    	; 0x117c <xEventGroupSetBits>
		}
		vTaskDelay(pdMS_TO_TICKS(10));
     e82:	60 e0       	ldi	r22, 0x00	; 0
     e84:	70 e0       	ldi	r23, 0x00	; 0
     e86:	cb 01       	movw	r24, r22
     e88:	0e 94 a1 1e 	call	0x3d42	; 0x3d42 <vTaskDelay>
	}
     e8c:	bf cf       	rjmp	.-130    	; 0xe0c <TempAndHumTask+0x1a>

00000e8e <createTempAndHumTask>:
}

void createTempAndHumTask(UBaseType_t Taskpriority)
{
     e8e:	ef 92       	push	r14
     e90:	ff 92       	push	r15
     e92:	0f 93       	push	r16
     e94:	cf 93       	push	r28
     e96:	df 93       	push	r29
     e98:	1f 92       	push	r1
     e9a:	cd b7       	in	r28, 0x3d	; 61
     e9c:	de b7       	in	r29, 0x3e	; 62
     e9e:	89 83       	std	Y+1, r24	; 0x01
	initializeTempAndHumDriver();
     ea0:	6b df       	rcall	.-298    	; 0xd78 <initializeTempAndHumDriver>
	xTaskCreate(
     ea2:	e1 2c       	mov	r14, r1
     ea4:	f1 2c       	mov	r15, r1
     ea6:	09 81       	ldd	r16, Y+1	; 0x01
     ea8:	20 e0       	ldi	r18, 0x00	; 0
     eaa:	30 e0       	ldi	r19, 0x00	; 0
     eac:	40 ec       	ldi	r20, 0xC0	; 192
     eae:	50 e0       	ldi	r21, 0x00	; 0
     eb0:	6a e0       	ldi	r22, 0x0A	; 10
     eb2:	76 e0       	ldi	r23, 0x06	; 6
     eb4:	89 ef       	ldi	r24, 0xF9	; 249
     eb6:	96 e0       	ldi	r25, 0x06	; 6
     eb8:	0e 94 b5 1b 	call	0x376a	; 0x376a <xTaskCreate>
	,  "TempAndHumTask"
	,  configMINIMAL_STACK_SIZE
	,  NULL
	,  tskIDLE_PRIORITY + Taskpriority
	,  NULL );
}
     ebc:	00 00       	nop
     ebe:	0f 90       	pop	r0
     ec0:	df 91       	pop	r29
     ec2:	cf 91       	pop	r28
     ec4:	0f 91       	pop	r16
     ec6:	ff 90       	pop	r15
     ec8:	ef 90       	pop	r14
     eca:	08 95       	ret

00000ecc <xEventGroupCreate>:
     ecc:	cf 93       	push	r28
     ece:	df 93       	push	r29
     ed0:	1f 92       	push	r1
     ed2:	1f 92       	push	r1
     ed4:	cd b7       	in	r28, 0x3d	; 61
     ed6:	de b7       	in	r29, 0x3e	; 62
     ed8:	8f e0       	ldi	r24, 0x0F	; 15
     eda:	90 e0       	ldi	r25, 0x00	; 0
     edc:	aa d2       	rcall	.+1364   	; 0x1432 <pvPortMalloc>
     ede:	9a 83       	std	Y+2, r25	; 0x02
     ee0:	89 83       	std	Y+1, r24	; 0x01
     ee2:	89 81       	ldd	r24, Y+1	; 0x01
     ee4:	9a 81       	ldd	r25, Y+2	; 0x02
     ee6:	89 2b       	or	r24, r25
     ee8:	59 f0       	breq	.+22     	; 0xf00 <xEventGroupCreate+0x34>
     eea:	89 81       	ldd	r24, Y+1	; 0x01
     eec:	9a 81       	ldd	r25, Y+2	; 0x02
     eee:	fc 01       	movw	r30, r24
     ef0:	10 82       	st	Z, r1
     ef2:	11 82       	std	Z+1, r1	; 0x01
     ef4:	12 82       	std	Z+2, r1	; 0x02
     ef6:	13 82       	std	Z+3, r1	; 0x03
     ef8:	89 81       	ldd	r24, Y+1	; 0x01
     efa:	9a 81       	ldd	r25, Y+2	; 0x02
     efc:	04 96       	adiw	r24, 0x04	; 4
     efe:	52 d5       	rcall	.+2724   	; 0x19a4 <vListInitialise>
     f00:	89 81       	ldd	r24, Y+1	; 0x01
     f02:	9a 81       	ldd	r25, Y+2	; 0x02
     f04:	0f 90       	pop	r0
     f06:	0f 90       	pop	r0
     f08:	df 91       	pop	r29
     f0a:	cf 91       	pop	r28
     f0c:	08 95       	ret

00000f0e <xEventGroupWaitBits>:
     f0e:	cf 92       	push	r12
     f10:	df 92       	push	r13
     f12:	ef 92       	push	r14
     f14:	ff 92       	push	r15
     f16:	0f 93       	push	r16
     f18:	1f 93       	push	r17
     f1a:	cf 93       	push	r28
     f1c:	df 93       	push	r29
     f1e:	cd b7       	in	r28, 0x3d	; 61
     f20:	de b7       	in	r29, 0x3e	; 62
     f22:	6d 97       	sbiw	r28, 0x1d	; 29
     f24:	0f b6       	in	r0, 0x3f	; 63
     f26:	f8 94       	cli
     f28:	de bf       	out	0x3e, r29	; 62
     f2a:	0f be       	out	0x3f, r0	; 63
     f2c:	cd bf       	out	0x3d, r28	; 61
     f2e:	9b 8b       	std	Y+19, r25	; 0x13
     f30:	8a 8b       	std	Y+18, r24	; 0x12
     f32:	4c 8b       	std	Y+20, r20	; 0x14
     f34:	5d 8b       	std	Y+21, r21	; 0x15
     f36:	6e 8b       	std	Y+22, r22	; 0x16
     f38:	7f 8b       	std	Y+23, r23	; 0x17
     f3a:	28 8f       	std	Y+24, r18	; 0x18
     f3c:	09 8f       	std	Y+25, r16	; 0x19
     f3e:	ca 8e       	std	Y+26, r12	; 0x1a
     f40:	db 8e       	std	Y+27, r13	; 0x1b
     f42:	ec 8e       	std	Y+28, r14	; 0x1c
     f44:	fd 8e       	std	Y+29, r15	; 0x1d
     f46:	8a 89       	ldd	r24, Y+18	; 0x12
     f48:	9b 89       	ldd	r25, Y+19	; 0x13
     f4a:	9a 87       	std	Y+10, r25	; 0x0a
     f4c:	89 87       	std	Y+9, r24	; 0x09
     f4e:	1d 82       	std	Y+5, r1	; 0x05
     f50:	1e 82       	std	Y+6, r1	; 0x06
     f52:	1f 82       	std	Y+7, r1	; 0x07
     f54:	18 86       	std	Y+8, r1	; 0x08
     f56:	1b 86       	std	Y+11, r1	; 0x0b
     f58:	0e 94 14 1f 	call	0x3e28	; 0x3e28 <vTaskSuspendAll>
     f5c:	89 85       	ldd	r24, Y+9	; 0x09
     f5e:	9a 85       	ldd	r25, Y+10	; 0x0a
     f60:	fc 01       	movw	r30, r24
     f62:	80 81       	ld	r24, Z
     f64:	91 81       	ldd	r25, Z+1	; 0x01
     f66:	a2 81       	ldd	r26, Z+2	; 0x02
     f68:	b3 81       	ldd	r27, Z+3	; 0x03
     f6a:	8c 87       	std	Y+12, r24	; 0x0c
     f6c:	9d 87       	std	Y+13, r25	; 0x0d
     f6e:	ae 87       	std	Y+14, r26	; 0x0e
     f70:	bf 87       	std	Y+15, r27	; 0x0f
     f72:	2c 89       	ldd	r18, Y+20	; 0x14
     f74:	3d 89       	ldd	r19, Y+21	; 0x15
     f76:	4e 89       	ldd	r20, Y+22	; 0x16
     f78:	5f 89       	ldd	r21, Y+23	; 0x17
     f7a:	8c 85       	ldd	r24, Y+12	; 0x0c
     f7c:	9d 85       	ldd	r25, Y+13	; 0x0d
     f7e:	ae 85       	ldd	r26, Y+14	; 0x0e
     f80:	bf 85       	ldd	r27, Y+15	; 0x0f
     f82:	09 8d       	ldd	r16, Y+25	; 0x19
     f84:	bc 01       	movw	r22, r24
     f86:	cd 01       	movw	r24, r26
     f88:	07 d2       	rcall	.+1038   	; 0x1398 <prvTestWaitCondition>
     f8a:	88 8b       	std	Y+16, r24	; 0x10
     f8c:	88 89       	ldd	r24, Y+16	; 0x10
     f8e:	88 23       	and	r24, r24
     f90:	59 f1       	breq	.+86     	; 0xfe8 <xEventGroupWaitBits+0xda>
     f92:	8c 85       	ldd	r24, Y+12	; 0x0c
     f94:	9d 85       	ldd	r25, Y+13	; 0x0d
     f96:	ae 85       	ldd	r26, Y+14	; 0x0e
     f98:	bf 85       	ldd	r27, Y+15	; 0x0f
     f9a:	89 83       	std	Y+1, r24	; 0x01
     f9c:	9a 83       	std	Y+2, r25	; 0x02
     f9e:	ab 83       	std	Y+3, r26	; 0x03
     fa0:	bc 83       	std	Y+4, r27	; 0x04
     fa2:	1a 8e       	std	Y+26, r1	; 0x1a
     fa4:	1b 8e       	std	Y+27, r1	; 0x1b
     fa6:	1c 8e       	std	Y+28, r1	; 0x1c
     fa8:	1d 8e       	std	Y+29, r1	; 0x1d
     faa:	88 8d       	ldd	r24, Y+24	; 0x18
     fac:	88 23       	and	r24, r24
     fae:	09 f4       	brne	.+2      	; 0xfb2 <xEventGroupWaitBits+0xa4>
     fb0:	65 c0       	rjmp	.+202    	; 0x107c <__EEPROM_REGION_LENGTH__+0x7c>
     fb2:	89 85       	ldd	r24, Y+9	; 0x09
     fb4:	9a 85       	ldd	r25, Y+10	; 0x0a
     fb6:	fc 01       	movw	r30, r24
     fb8:	20 81       	ld	r18, Z
     fba:	31 81       	ldd	r19, Z+1	; 0x01
     fbc:	42 81       	ldd	r20, Z+2	; 0x02
     fbe:	53 81       	ldd	r21, Z+3	; 0x03
     fc0:	8c 89       	ldd	r24, Y+20	; 0x14
     fc2:	9d 89       	ldd	r25, Y+21	; 0x15
     fc4:	ae 89       	ldd	r26, Y+22	; 0x16
     fc6:	bf 89       	ldd	r27, Y+23	; 0x17
     fc8:	80 95       	com	r24
     fca:	90 95       	com	r25
     fcc:	a0 95       	com	r26
     fce:	b0 95       	com	r27
     fd0:	82 23       	and	r24, r18
     fd2:	93 23       	and	r25, r19
     fd4:	a4 23       	and	r26, r20
     fd6:	b5 23       	and	r27, r21
     fd8:	29 85       	ldd	r18, Y+9	; 0x09
     fda:	3a 85       	ldd	r19, Y+10	; 0x0a
     fdc:	f9 01       	movw	r30, r18
     fde:	80 83       	st	Z, r24
     fe0:	91 83       	std	Z+1, r25	; 0x01
     fe2:	a2 83       	std	Z+2, r26	; 0x02
     fe4:	b3 83       	std	Z+3, r27	; 0x03
     fe6:	4a c0       	rjmp	.+148    	; 0x107c <__EEPROM_REGION_LENGTH__+0x7c>
     fe8:	8a 8d       	ldd	r24, Y+26	; 0x1a
     fea:	9b 8d       	ldd	r25, Y+27	; 0x1b
     fec:	ac 8d       	ldd	r26, Y+28	; 0x1c
     fee:	bd 8d       	ldd	r27, Y+29	; 0x1d
     ff0:	89 2b       	or	r24, r25
     ff2:	8a 2b       	or	r24, r26
     ff4:	8b 2b       	or	r24, r27
     ff6:	59 f4       	brne	.+22     	; 0x100e <__EEPROM_REGION_LENGTH__+0xe>
     ff8:	8c 85       	ldd	r24, Y+12	; 0x0c
     ffa:	9d 85       	ldd	r25, Y+13	; 0x0d
     ffc:	ae 85       	ldd	r26, Y+14	; 0x0e
     ffe:	bf 85       	ldd	r27, Y+15	; 0x0f
    1000:	89 83       	std	Y+1, r24	; 0x01
    1002:	9a 83       	std	Y+2, r25	; 0x02
    1004:	ab 83       	std	Y+3, r26	; 0x03
    1006:	bc 83       	std	Y+4, r27	; 0x04
    1008:	81 e0       	ldi	r24, 0x01	; 1
    100a:	8b 87       	std	Y+11, r24	; 0x0b
    100c:	37 c0       	rjmp	.+110    	; 0x107c <__EEPROM_REGION_LENGTH__+0x7c>
    100e:	88 8d       	ldd	r24, Y+24	; 0x18
    1010:	88 23       	and	r24, r24
    1012:	49 f0       	breq	.+18     	; 0x1026 <__EEPROM_REGION_LENGTH__+0x26>
    1014:	8d 81       	ldd	r24, Y+5	; 0x05
    1016:	9e 81       	ldd	r25, Y+6	; 0x06
    1018:	af 81       	ldd	r26, Y+7	; 0x07
    101a:	b8 85       	ldd	r27, Y+8	; 0x08
    101c:	b1 60       	ori	r27, 0x01	; 1
    101e:	8d 83       	std	Y+5, r24	; 0x05
    1020:	9e 83       	std	Y+6, r25	; 0x06
    1022:	af 83       	std	Y+7, r26	; 0x07
    1024:	b8 87       	std	Y+8, r27	; 0x08
    1026:	89 8d       	ldd	r24, Y+25	; 0x19
    1028:	88 23       	and	r24, r24
    102a:	49 f0       	breq	.+18     	; 0x103e <__EEPROM_REGION_LENGTH__+0x3e>
    102c:	8d 81       	ldd	r24, Y+5	; 0x05
    102e:	9e 81       	ldd	r25, Y+6	; 0x06
    1030:	af 81       	ldd	r26, Y+7	; 0x07
    1032:	b8 85       	ldd	r27, Y+8	; 0x08
    1034:	b4 60       	ori	r27, 0x04	; 4
    1036:	8d 83       	std	Y+5, r24	; 0x05
    1038:	9e 83       	std	Y+6, r25	; 0x06
    103a:	af 83       	std	Y+7, r26	; 0x07
    103c:	b8 87       	std	Y+8, r27	; 0x08
    103e:	2c 89       	ldd	r18, Y+20	; 0x14
    1040:	3d 89       	ldd	r19, Y+21	; 0x15
    1042:	4e 89       	ldd	r20, Y+22	; 0x16
    1044:	5f 89       	ldd	r21, Y+23	; 0x17
    1046:	8d 81       	ldd	r24, Y+5	; 0x05
    1048:	9e 81       	ldd	r25, Y+6	; 0x06
    104a:	af 81       	ldd	r26, Y+7	; 0x07
    104c:	b8 85       	ldd	r27, Y+8	; 0x08
    104e:	82 2b       	or	r24, r18
    1050:	93 2b       	or	r25, r19
    1052:	a4 2b       	or	r26, r20
    1054:	b5 2b       	or	r27, r21
    1056:	29 85       	ldd	r18, Y+9	; 0x09
    1058:	3a 85       	ldd	r19, Y+10	; 0x0a
    105a:	f9 01       	movw	r30, r18
    105c:	34 96       	adiw	r30, 0x04	; 4
    105e:	2a 8d       	ldd	r18, Y+26	; 0x1a
    1060:	3b 8d       	ldd	r19, Y+27	; 0x1b
    1062:	4c 8d       	ldd	r20, Y+28	; 0x1c
    1064:	5d 8d       	ldd	r21, Y+29	; 0x1d
    1066:	89 01       	movw	r16, r18
    1068:	9a 01       	movw	r18, r20
    106a:	ac 01       	movw	r20, r24
    106c:	bd 01       	movw	r22, r26
    106e:	cf 01       	movw	r24, r30
    1070:	0e 94 84 23 	call	0x4708	; 0x4708 <vTaskPlaceOnUnorderedEventList>
    1074:	19 82       	std	Y+1, r1	; 0x01
    1076:	1a 82       	std	Y+2, r1	; 0x02
    1078:	1b 82       	std	Y+3, r1	; 0x03
    107a:	1c 82       	std	Y+4, r1	; 0x04
    107c:	0e 94 21 1f 	call	0x3e42	; 0x3e42 <xTaskResumeAll>
    1080:	89 8b       	std	Y+17, r24	; 0x11
    1082:	8a 8d       	ldd	r24, Y+26	; 0x1a
    1084:	9b 8d       	ldd	r25, Y+27	; 0x1b
    1086:	ac 8d       	ldd	r26, Y+28	; 0x1c
    1088:	bd 8d       	ldd	r27, Y+29	; 0x1d
    108a:	89 2b       	or	r24, r25
    108c:	8a 2b       	or	r24, r26
    108e:	8b 2b       	or	r24, r27
    1090:	09 f4       	brne	.+2      	; 0x1094 <__EEPROM_REGION_LENGTH__+0x94>
    1092:	5f c0       	rjmp	.+190    	; 0x1152 <__EEPROM_REGION_LENGTH__+0x152>
    1094:	89 89       	ldd	r24, Y+17	; 0x11
    1096:	88 23       	and	r24, r24
    1098:	09 f4       	brne	.+2      	; 0x109c <__EEPROM_REGION_LENGTH__+0x9c>
    109a:	75 d6       	rcall	.+3306   	; 0x1d86 <vPortYield>
    109c:	0e 94 0c 2c 	call	0x5818	; 0x5818 <uxTaskResetEventItemValue>
    10a0:	dc 01       	movw	r26, r24
    10a2:	cb 01       	movw	r24, r22
    10a4:	89 83       	std	Y+1, r24	; 0x01
    10a6:	9a 83       	std	Y+2, r25	; 0x02
    10a8:	ab 83       	std	Y+3, r26	; 0x03
    10aa:	bc 83       	std	Y+4, r27	; 0x04
    10ac:	89 81       	ldd	r24, Y+1	; 0x01
    10ae:	9a 81       	ldd	r25, Y+2	; 0x02
    10b0:	ab 81       	ldd	r26, Y+3	; 0x03
    10b2:	bc 81       	ldd	r27, Y+4	; 0x04
    10b4:	88 27       	eor	r24, r24
    10b6:	99 27       	eor	r25, r25
    10b8:	aa 27       	eor	r26, r26
    10ba:	b2 70       	andi	r27, 0x02	; 2
    10bc:	89 2b       	or	r24, r25
    10be:	8a 2b       	or	r24, r26
    10c0:	8b 2b       	or	r24, r27
    10c2:	09 f0       	breq	.+2      	; 0x10c6 <__EEPROM_REGION_LENGTH__+0xc6>
    10c4:	3d c0       	rjmp	.+122    	; 0x1140 <__EEPROM_REGION_LENGTH__+0x140>
    10c6:	0f b6       	in	r0, 0x3f	; 63
    10c8:	f8 94       	cli
    10ca:	0f 92       	push	r0
    10cc:	89 85       	ldd	r24, Y+9	; 0x09
    10ce:	9a 85       	ldd	r25, Y+10	; 0x0a
    10d0:	fc 01       	movw	r30, r24
    10d2:	80 81       	ld	r24, Z
    10d4:	91 81       	ldd	r25, Z+1	; 0x01
    10d6:	a2 81       	ldd	r26, Z+2	; 0x02
    10d8:	b3 81       	ldd	r27, Z+3	; 0x03
    10da:	89 83       	std	Y+1, r24	; 0x01
    10dc:	9a 83       	std	Y+2, r25	; 0x02
    10de:	ab 83       	std	Y+3, r26	; 0x03
    10e0:	bc 83       	std	Y+4, r27	; 0x04
    10e2:	2c 89       	ldd	r18, Y+20	; 0x14
    10e4:	3d 89       	ldd	r19, Y+21	; 0x15
    10e6:	4e 89       	ldd	r20, Y+22	; 0x16
    10e8:	5f 89       	ldd	r21, Y+23	; 0x17
    10ea:	89 81       	ldd	r24, Y+1	; 0x01
    10ec:	9a 81       	ldd	r25, Y+2	; 0x02
    10ee:	ab 81       	ldd	r26, Y+3	; 0x03
    10f0:	bc 81       	ldd	r27, Y+4	; 0x04
    10f2:	09 8d       	ldd	r16, Y+25	; 0x19
    10f4:	bc 01       	movw	r22, r24
    10f6:	cd 01       	movw	r24, r26
    10f8:	4f d1       	rcall	.+670    	; 0x1398 <prvTestWaitCondition>
    10fa:	88 23       	and	r24, r24
    10fc:	e9 f0       	breq	.+58     	; 0x1138 <__EEPROM_REGION_LENGTH__+0x138>
    10fe:	88 8d       	ldd	r24, Y+24	; 0x18
    1100:	88 23       	and	r24, r24
    1102:	d1 f0       	breq	.+52     	; 0x1138 <__EEPROM_REGION_LENGTH__+0x138>
    1104:	89 85       	ldd	r24, Y+9	; 0x09
    1106:	9a 85       	ldd	r25, Y+10	; 0x0a
    1108:	fc 01       	movw	r30, r24
    110a:	20 81       	ld	r18, Z
    110c:	31 81       	ldd	r19, Z+1	; 0x01
    110e:	42 81       	ldd	r20, Z+2	; 0x02
    1110:	53 81       	ldd	r21, Z+3	; 0x03
    1112:	8c 89       	ldd	r24, Y+20	; 0x14
    1114:	9d 89       	ldd	r25, Y+21	; 0x15
    1116:	ae 89       	ldd	r26, Y+22	; 0x16
    1118:	bf 89       	ldd	r27, Y+23	; 0x17
    111a:	80 95       	com	r24
    111c:	90 95       	com	r25
    111e:	a0 95       	com	r26
    1120:	b0 95       	com	r27
    1122:	82 23       	and	r24, r18
    1124:	93 23       	and	r25, r19
    1126:	a4 23       	and	r26, r20
    1128:	b5 23       	and	r27, r21
    112a:	29 85       	ldd	r18, Y+9	; 0x09
    112c:	3a 85       	ldd	r19, Y+10	; 0x0a
    112e:	f9 01       	movw	r30, r18
    1130:	80 83       	st	Z, r24
    1132:	91 83       	std	Z+1, r25	; 0x01
    1134:	a2 83       	std	Z+2, r26	; 0x02
    1136:	b3 83       	std	Z+3, r27	; 0x03
    1138:	81 e0       	ldi	r24, 0x01	; 1
    113a:	8b 87       	std	Y+11, r24	; 0x0b
    113c:	0f 90       	pop	r0
    113e:	0f be       	out	0x3f, r0	; 63
    1140:	89 81       	ldd	r24, Y+1	; 0x01
    1142:	9a 81       	ldd	r25, Y+2	; 0x02
    1144:	ab 81       	ldd	r26, Y+3	; 0x03
    1146:	bc 81       	ldd	r27, Y+4	; 0x04
    1148:	bb 27       	eor	r27, r27
    114a:	89 83       	std	Y+1, r24	; 0x01
    114c:	9a 83       	std	Y+2, r25	; 0x02
    114e:	ab 83       	std	Y+3, r26	; 0x03
    1150:	bc 83       	std	Y+4, r27	; 0x04
    1152:	89 81       	ldd	r24, Y+1	; 0x01
    1154:	9a 81       	ldd	r25, Y+2	; 0x02
    1156:	ab 81       	ldd	r26, Y+3	; 0x03
    1158:	bc 81       	ldd	r27, Y+4	; 0x04
    115a:	bc 01       	movw	r22, r24
    115c:	cd 01       	movw	r24, r26
    115e:	6d 96       	adiw	r28, 0x1d	; 29
    1160:	0f b6       	in	r0, 0x3f	; 63
    1162:	f8 94       	cli
    1164:	de bf       	out	0x3e, r29	; 62
    1166:	0f be       	out	0x3f, r0	; 63
    1168:	cd bf       	out	0x3d, r28	; 61
    116a:	df 91       	pop	r29
    116c:	cf 91       	pop	r28
    116e:	1f 91       	pop	r17
    1170:	0f 91       	pop	r16
    1172:	ff 90       	pop	r15
    1174:	ef 90       	pop	r14
    1176:	df 90       	pop	r13
    1178:	cf 90       	pop	r12
    117a:	08 95       	ret

0000117c <xEventGroupSetBits>:
    117c:	cf 93       	push	r28
    117e:	df 93       	push	r29
    1180:	cd b7       	in	r28, 0x3d	; 61
    1182:	de b7       	in	r29, 0x3e	; 62
    1184:	6d 97       	sbiw	r28, 0x1d	; 29
    1186:	0f b6       	in	r0, 0x3f	; 63
    1188:	f8 94       	cli
    118a:	de bf       	out	0x3e, r29	; 62
    118c:	0f be       	out	0x3f, r0	; 63
    118e:	cd bf       	out	0x3d, r28	; 61
    1190:	99 8f       	std	Y+25, r25	; 0x19
    1192:	88 8f       	std	Y+24, r24	; 0x18
    1194:	4a 8f       	std	Y+26, r20	; 0x1a
    1196:	5b 8f       	std	Y+27, r21	; 0x1b
    1198:	6c 8f       	std	Y+28, r22	; 0x1c
    119a:	7d 8f       	std	Y+29, r23	; 0x1d
    119c:	1b 82       	std	Y+3, r1	; 0x03
    119e:	1c 82       	std	Y+4, r1	; 0x04
    11a0:	1d 82       	std	Y+5, r1	; 0x05
    11a2:	1e 82       	std	Y+6, r1	; 0x06
    11a4:	88 8d       	ldd	r24, Y+24	; 0x18
    11a6:	99 8d       	ldd	r25, Y+25	; 0x19
    11a8:	99 87       	std	Y+9, r25	; 0x09
    11aa:	88 87       	std	Y+8, r24	; 0x08
    11ac:	1f 82       	std	Y+7, r1	; 0x07
    11ae:	88 85       	ldd	r24, Y+8	; 0x08
    11b0:	99 85       	ldd	r25, Y+9	; 0x09
    11b2:	04 96       	adiw	r24, 0x04	; 4
    11b4:	9b 87       	std	Y+11, r25	; 0x0b
    11b6:	8a 87       	std	Y+10, r24	; 0x0a
    11b8:	8a 85       	ldd	r24, Y+10	; 0x0a
    11ba:	9b 85       	ldd	r25, Y+11	; 0x0b
    11bc:	03 96       	adiw	r24, 0x03	; 3
    11be:	9d 87       	std	Y+13, r25	; 0x0d
    11c0:	8c 87       	std	Y+12, r24	; 0x0c
    11c2:	0e 94 14 1f 	call	0x3e28	; 0x3e28 <vTaskSuspendAll>
    11c6:	8a 85       	ldd	r24, Y+10	; 0x0a
    11c8:	9b 85       	ldd	r25, Y+11	; 0x0b
    11ca:	fc 01       	movw	r30, r24
    11cc:	87 81       	ldd	r24, Z+7	; 0x07
    11ce:	90 85       	ldd	r25, Z+8	; 0x08
    11d0:	9a 83       	std	Y+2, r25	; 0x02
    11d2:	89 83       	std	Y+1, r24	; 0x01
    11d4:	88 85       	ldd	r24, Y+8	; 0x08
    11d6:	99 85       	ldd	r25, Y+9	; 0x09
    11d8:	fc 01       	movw	r30, r24
    11da:	20 81       	ld	r18, Z
    11dc:	31 81       	ldd	r19, Z+1	; 0x01
    11de:	42 81       	ldd	r20, Z+2	; 0x02
    11e0:	53 81       	ldd	r21, Z+3	; 0x03
    11e2:	8a 8d       	ldd	r24, Y+26	; 0x1a
    11e4:	9b 8d       	ldd	r25, Y+27	; 0x1b
    11e6:	ac 8d       	ldd	r26, Y+28	; 0x1c
    11e8:	bd 8d       	ldd	r27, Y+29	; 0x1d
    11ea:	82 2b       	or	r24, r18
    11ec:	93 2b       	or	r25, r19
    11ee:	a4 2b       	or	r26, r20
    11f0:	b5 2b       	or	r27, r21
    11f2:	28 85       	ldd	r18, Y+8	; 0x08
    11f4:	39 85       	ldd	r19, Y+9	; 0x09
    11f6:	f9 01       	movw	r30, r18
    11f8:	80 83       	st	Z, r24
    11fa:	91 83       	std	Z+1, r25	; 0x01
    11fc:	a2 83       	std	Z+2, r26	; 0x02
    11fe:	b3 83       	std	Z+3, r27	; 0x03
    1200:	95 c0       	rjmp	.+298    	; 0x132c <xEventGroupSetBits+0x1b0>
    1202:	89 81       	ldd	r24, Y+1	; 0x01
    1204:	9a 81       	ldd	r25, Y+2	; 0x02
    1206:	fc 01       	movw	r30, r24
    1208:	84 81       	ldd	r24, Z+4	; 0x04
    120a:	95 81       	ldd	r25, Z+5	; 0x05
    120c:	9f 87       	std	Y+15, r25	; 0x0f
    120e:	8e 87       	std	Y+14, r24	; 0x0e
    1210:	89 81       	ldd	r24, Y+1	; 0x01
    1212:	9a 81       	ldd	r25, Y+2	; 0x02
    1214:	fc 01       	movw	r30, r24
    1216:	80 81       	ld	r24, Z
    1218:	91 81       	ldd	r25, Z+1	; 0x01
    121a:	a2 81       	ldd	r26, Z+2	; 0x02
    121c:	b3 81       	ldd	r27, Z+3	; 0x03
    121e:	88 8b       	std	Y+16, r24	; 0x10
    1220:	99 8b       	std	Y+17, r25	; 0x11
    1222:	aa 8b       	std	Y+18, r26	; 0x12
    1224:	bb 8b       	std	Y+19, r27	; 0x13
    1226:	1f 82       	std	Y+7, r1	; 0x07
    1228:	88 89       	ldd	r24, Y+16	; 0x10
    122a:	99 89       	ldd	r25, Y+17	; 0x11
    122c:	aa 89       	ldd	r26, Y+18	; 0x12
    122e:	bb 89       	ldd	r27, Y+19	; 0x13
    1230:	88 27       	eor	r24, r24
    1232:	99 27       	eor	r25, r25
    1234:	aa 27       	eor	r26, r26
    1236:	8c 8b       	std	Y+20, r24	; 0x14
    1238:	9d 8b       	std	Y+21, r25	; 0x15
    123a:	ae 8b       	std	Y+22, r26	; 0x16
    123c:	bf 8b       	std	Y+23, r27	; 0x17
    123e:	88 89       	ldd	r24, Y+16	; 0x10
    1240:	99 89       	ldd	r25, Y+17	; 0x11
    1242:	aa 89       	ldd	r26, Y+18	; 0x12
    1244:	bb 89       	ldd	r27, Y+19	; 0x13
    1246:	bb 27       	eor	r27, r27
    1248:	88 8b       	std	Y+16, r24	; 0x10
    124a:	99 8b       	std	Y+17, r25	; 0x11
    124c:	aa 8b       	std	Y+18, r26	; 0x12
    124e:	bb 8b       	std	Y+19, r27	; 0x13
    1250:	8c 89       	ldd	r24, Y+20	; 0x14
    1252:	9d 89       	ldd	r25, Y+21	; 0x15
    1254:	ae 89       	ldd	r26, Y+22	; 0x16
    1256:	bf 89       	ldd	r27, Y+23	; 0x17
    1258:	88 27       	eor	r24, r24
    125a:	99 27       	eor	r25, r25
    125c:	aa 27       	eor	r26, r26
    125e:	b4 70       	andi	r27, 0x04	; 4
    1260:	89 2b       	or	r24, r25
    1262:	8a 2b       	or	r24, r26
    1264:	8b 2b       	or	r24, r27
    1266:	b1 f4       	brne	.+44     	; 0x1294 <xEventGroupSetBits+0x118>
    1268:	88 85       	ldd	r24, Y+8	; 0x08
    126a:	99 85       	ldd	r25, Y+9	; 0x09
    126c:	fc 01       	movw	r30, r24
    126e:	20 81       	ld	r18, Z
    1270:	31 81       	ldd	r19, Z+1	; 0x01
    1272:	42 81       	ldd	r20, Z+2	; 0x02
    1274:	53 81       	ldd	r21, Z+3	; 0x03
    1276:	88 89       	ldd	r24, Y+16	; 0x10
    1278:	99 89       	ldd	r25, Y+17	; 0x11
    127a:	aa 89       	ldd	r26, Y+18	; 0x12
    127c:	bb 89       	ldd	r27, Y+19	; 0x13
    127e:	82 23       	and	r24, r18
    1280:	93 23       	and	r25, r19
    1282:	a4 23       	and	r26, r20
    1284:	b5 23       	and	r27, r21
    1286:	89 2b       	or	r24, r25
    1288:	8a 2b       	or	r24, r26
    128a:	8b 2b       	or	r24, r27
    128c:	e9 f0       	breq	.+58     	; 0x12c8 <xEventGroupSetBits+0x14c>
    128e:	81 e0       	ldi	r24, 0x01	; 1
    1290:	8f 83       	std	Y+7, r24	; 0x07
    1292:	1a c0       	rjmp	.+52     	; 0x12c8 <xEventGroupSetBits+0x14c>
    1294:	88 85       	ldd	r24, Y+8	; 0x08
    1296:	99 85       	ldd	r25, Y+9	; 0x09
    1298:	fc 01       	movw	r30, r24
    129a:	20 81       	ld	r18, Z
    129c:	31 81       	ldd	r19, Z+1	; 0x01
    129e:	42 81       	ldd	r20, Z+2	; 0x02
    12a0:	53 81       	ldd	r21, Z+3	; 0x03
    12a2:	88 89       	ldd	r24, Y+16	; 0x10
    12a4:	99 89       	ldd	r25, Y+17	; 0x11
    12a6:	aa 89       	ldd	r26, Y+18	; 0x12
    12a8:	bb 89       	ldd	r27, Y+19	; 0x13
    12aa:	28 23       	and	r18, r24
    12ac:	39 23       	and	r19, r25
    12ae:	4a 23       	and	r20, r26
    12b0:	5b 23       	and	r21, r27
    12b2:	88 89       	ldd	r24, Y+16	; 0x10
    12b4:	99 89       	ldd	r25, Y+17	; 0x11
    12b6:	aa 89       	ldd	r26, Y+18	; 0x12
    12b8:	bb 89       	ldd	r27, Y+19	; 0x13
    12ba:	28 17       	cp	r18, r24
    12bc:	39 07       	cpc	r19, r25
    12be:	4a 07       	cpc	r20, r26
    12c0:	5b 07       	cpc	r21, r27
    12c2:	11 f4       	brne	.+4      	; 0x12c8 <xEventGroupSetBits+0x14c>
    12c4:	81 e0       	ldi	r24, 0x01	; 1
    12c6:	8f 83       	std	Y+7, r24	; 0x07
    12c8:	8f 81       	ldd	r24, Y+7	; 0x07
    12ca:	88 23       	and	r24, r24
    12cc:	59 f1       	breq	.+86     	; 0x1324 <xEventGroupSetBits+0x1a8>
    12ce:	8c 89       	ldd	r24, Y+20	; 0x14
    12d0:	9d 89       	ldd	r25, Y+21	; 0x15
    12d2:	ae 89       	ldd	r26, Y+22	; 0x16
    12d4:	bf 89       	ldd	r27, Y+23	; 0x17
    12d6:	88 27       	eor	r24, r24
    12d8:	99 27       	eor	r25, r25
    12da:	aa 27       	eor	r26, r26
    12dc:	b1 70       	andi	r27, 0x01	; 1
    12de:	89 2b       	or	r24, r25
    12e0:	8a 2b       	or	r24, r26
    12e2:	8b 2b       	or	r24, r27
    12e4:	81 f0       	breq	.+32     	; 0x1306 <xEventGroupSetBits+0x18a>
    12e6:	2b 81       	ldd	r18, Y+3	; 0x03
    12e8:	3c 81       	ldd	r19, Y+4	; 0x04
    12ea:	4d 81       	ldd	r20, Y+5	; 0x05
    12ec:	5e 81       	ldd	r21, Y+6	; 0x06
    12ee:	88 89       	ldd	r24, Y+16	; 0x10
    12f0:	99 89       	ldd	r25, Y+17	; 0x11
    12f2:	aa 89       	ldd	r26, Y+18	; 0x12
    12f4:	bb 89       	ldd	r27, Y+19	; 0x13
    12f6:	82 2b       	or	r24, r18
    12f8:	93 2b       	or	r25, r19
    12fa:	a4 2b       	or	r26, r20
    12fc:	b5 2b       	or	r27, r21
    12fe:	8b 83       	std	Y+3, r24	; 0x03
    1300:	9c 83       	std	Y+4, r25	; 0x04
    1302:	ad 83       	std	Y+5, r26	; 0x05
    1304:	be 83       	std	Y+6, r27	; 0x06
    1306:	88 85       	ldd	r24, Y+8	; 0x08
    1308:	99 85       	ldd	r25, Y+9	; 0x09
    130a:	fc 01       	movw	r30, r24
    130c:	80 81       	ld	r24, Z
    130e:	91 81       	ldd	r25, Z+1	; 0x01
    1310:	a2 81       	ldd	r26, Z+2	; 0x02
    1312:	b3 81       	ldd	r27, Z+3	; 0x03
    1314:	b2 60       	ori	r27, 0x02	; 2
    1316:	29 81       	ldd	r18, Y+1	; 0x01
    1318:	3a 81       	ldd	r19, Y+2	; 0x02
    131a:	ac 01       	movw	r20, r24
    131c:	bd 01       	movw	r22, r26
    131e:	c9 01       	movw	r24, r18
    1320:	0e 94 f2 25 	call	0x4be4	; 0x4be4 <vTaskRemoveFromUnorderedEventList>
    1324:	8e 85       	ldd	r24, Y+14	; 0x0e
    1326:	9f 85       	ldd	r25, Y+15	; 0x0f
    1328:	9a 83       	std	Y+2, r25	; 0x02
    132a:	89 83       	std	Y+1, r24	; 0x01
    132c:	29 81       	ldd	r18, Y+1	; 0x01
    132e:	3a 81       	ldd	r19, Y+2	; 0x02
    1330:	8c 85       	ldd	r24, Y+12	; 0x0c
    1332:	9d 85       	ldd	r25, Y+13	; 0x0d
    1334:	28 17       	cp	r18, r24
    1336:	39 07       	cpc	r19, r25
    1338:	09 f0       	breq	.+2      	; 0x133c <xEventGroupSetBits+0x1c0>
    133a:	63 cf       	rjmp	.-314    	; 0x1202 <xEventGroupSetBits+0x86>
    133c:	88 85       	ldd	r24, Y+8	; 0x08
    133e:	99 85       	ldd	r25, Y+9	; 0x09
    1340:	fc 01       	movw	r30, r24
    1342:	20 81       	ld	r18, Z
    1344:	31 81       	ldd	r19, Z+1	; 0x01
    1346:	42 81       	ldd	r20, Z+2	; 0x02
    1348:	53 81       	ldd	r21, Z+3	; 0x03
    134a:	8b 81       	ldd	r24, Y+3	; 0x03
    134c:	9c 81       	ldd	r25, Y+4	; 0x04
    134e:	ad 81       	ldd	r26, Y+5	; 0x05
    1350:	be 81       	ldd	r27, Y+6	; 0x06
    1352:	80 95       	com	r24
    1354:	90 95       	com	r25
    1356:	a0 95       	com	r26
    1358:	b0 95       	com	r27
    135a:	82 23       	and	r24, r18
    135c:	93 23       	and	r25, r19
    135e:	a4 23       	and	r26, r20
    1360:	b5 23       	and	r27, r21
    1362:	28 85       	ldd	r18, Y+8	; 0x08
    1364:	39 85       	ldd	r19, Y+9	; 0x09
    1366:	f9 01       	movw	r30, r18
    1368:	80 83       	st	Z, r24
    136a:	91 83       	std	Z+1, r25	; 0x01
    136c:	a2 83       	std	Z+2, r26	; 0x02
    136e:	b3 83       	std	Z+3, r27	; 0x03
    1370:	0e 94 21 1f 	call	0x3e42	; 0x3e42 <xTaskResumeAll>
    1374:	88 85       	ldd	r24, Y+8	; 0x08
    1376:	99 85       	ldd	r25, Y+9	; 0x09
    1378:	fc 01       	movw	r30, r24
    137a:	80 81       	ld	r24, Z
    137c:	91 81       	ldd	r25, Z+1	; 0x01
    137e:	a2 81       	ldd	r26, Z+2	; 0x02
    1380:	b3 81       	ldd	r27, Z+3	; 0x03
    1382:	bc 01       	movw	r22, r24
    1384:	cd 01       	movw	r24, r26
    1386:	6d 96       	adiw	r28, 0x1d	; 29
    1388:	0f b6       	in	r0, 0x3f	; 63
    138a:	f8 94       	cli
    138c:	de bf       	out	0x3e, r29	; 62
    138e:	0f be       	out	0x3f, r0	; 63
    1390:	cd bf       	out	0x3d, r28	; 61
    1392:	df 91       	pop	r29
    1394:	cf 91       	pop	r28
    1396:	08 95       	ret

00001398 <prvTestWaitCondition>:
    1398:	0f 93       	push	r16
    139a:	cf 93       	push	r28
    139c:	df 93       	push	r29
    139e:	cd b7       	in	r28, 0x3d	; 61
    13a0:	de b7       	in	r29, 0x3e	; 62
    13a2:	2a 97       	sbiw	r28, 0x0a	; 10
    13a4:	0f b6       	in	r0, 0x3f	; 63
    13a6:	f8 94       	cli
    13a8:	de bf       	out	0x3e, r29	; 62
    13aa:	0f be       	out	0x3f, r0	; 63
    13ac:	cd bf       	out	0x3d, r28	; 61
    13ae:	6a 83       	std	Y+2, r22	; 0x02
    13b0:	7b 83       	std	Y+3, r23	; 0x03
    13b2:	8c 83       	std	Y+4, r24	; 0x04
    13b4:	9d 83       	std	Y+5, r25	; 0x05
    13b6:	2e 83       	std	Y+6, r18	; 0x06
    13b8:	3f 83       	std	Y+7, r19	; 0x07
    13ba:	48 87       	std	Y+8, r20	; 0x08
    13bc:	59 87       	std	Y+9, r21	; 0x09
    13be:	0a 87       	std	Y+10, r16	; 0x0a
    13c0:	19 82       	std	Y+1, r1	; 0x01
    13c2:	8a 85       	ldd	r24, Y+10	; 0x0a
    13c4:	88 23       	and	r24, r24
    13c6:	99 f4       	brne	.+38     	; 0x13ee <prvTestWaitCondition+0x56>
    13c8:	2a 81       	ldd	r18, Y+2	; 0x02
    13ca:	3b 81       	ldd	r19, Y+3	; 0x03
    13cc:	4c 81       	ldd	r20, Y+4	; 0x04
    13ce:	5d 81       	ldd	r21, Y+5	; 0x05
    13d0:	8e 81       	ldd	r24, Y+6	; 0x06
    13d2:	9f 81       	ldd	r25, Y+7	; 0x07
    13d4:	a8 85       	ldd	r26, Y+8	; 0x08
    13d6:	b9 85       	ldd	r27, Y+9	; 0x09
    13d8:	82 23       	and	r24, r18
    13da:	93 23       	and	r25, r19
    13dc:	a4 23       	and	r26, r20
    13de:	b5 23       	and	r27, r21
    13e0:	89 2b       	or	r24, r25
    13e2:	8a 2b       	or	r24, r26
    13e4:	8b 2b       	or	r24, r27
    13e6:	d1 f0       	breq	.+52     	; 0x141c <prvTestWaitCondition+0x84>
    13e8:	81 e0       	ldi	r24, 0x01	; 1
    13ea:	89 83       	std	Y+1, r24	; 0x01
    13ec:	17 c0       	rjmp	.+46     	; 0x141c <prvTestWaitCondition+0x84>
    13ee:	2a 81       	ldd	r18, Y+2	; 0x02
    13f0:	3b 81       	ldd	r19, Y+3	; 0x03
    13f2:	4c 81       	ldd	r20, Y+4	; 0x04
    13f4:	5d 81       	ldd	r21, Y+5	; 0x05
    13f6:	8e 81       	ldd	r24, Y+6	; 0x06
    13f8:	9f 81       	ldd	r25, Y+7	; 0x07
    13fa:	a8 85       	ldd	r26, Y+8	; 0x08
    13fc:	b9 85       	ldd	r27, Y+9	; 0x09
    13fe:	28 23       	and	r18, r24
    1400:	39 23       	and	r19, r25
    1402:	4a 23       	and	r20, r26
    1404:	5b 23       	and	r21, r27
    1406:	8e 81       	ldd	r24, Y+6	; 0x06
    1408:	9f 81       	ldd	r25, Y+7	; 0x07
    140a:	a8 85       	ldd	r26, Y+8	; 0x08
    140c:	b9 85       	ldd	r27, Y+9	; 0x09
    140e:	28 17       	cp	r18, r24
    1410:	39 07       	cpc	r19, r25
    1412:	4a 07       	cpc	r20, r26
    1414:	5b 07       	cpc	r21, r27
    1416:	11 f4       	brne	.+4      	; 0x141c <prvTestWaitCondition+0x84>
    1418:	81 e0       	ldi	r24, 0x01	; 1
    141a:	89 83       	std	Y+1, r24	; 0x01
    141c:	89 81       	ldd	r24, Y+1	; 0x01
    141e:	2a 96       	adiw	r28, 0x0a	; 10
    1420:	0f b6       	in	r0, 0x3f	; 63
    1422:	f8 94       	cli
    1424:	de bf       	out	0x3e, r29	; 62
    1426:	0f be       	out	0x3f, r0	; 63
    1428:	cd bf       	out	0x3d, r28	; 61
    142a:	df 91       	pop	r29
    142c:	cf 91       	pop	r28
    142e:	0f 91       	pop	r16
    1430:	08 95       	ret

00001432 <pvPortMalloc>:
    1432:	cf 93       	push	r28
    1434:	df 93       	push	r29
    1436:	cd b7       	in	r28, 0x3d	; 61
    1438:	de b7       	in	r29, 0x3e	; 62
    143a:	2a 97       	sbiw	r28, 0x0a	; 10
    143c:	0f b6       	in	r0, 0x3f	; 63
    143e:	f8 94       	cli
    1440:	de bf       	out	0x3e, r29	; 62
    1442:	0f be       	out	0x3f, r0	; 63
    1444:	cd bf       	out	0x3d, r28	; 61
    1446:	9a 87       	std	Y+10, r25	; 0x0a
    1448:	89 87       	std	Y+9, r24	; 0x09
    144a:	1e 82       	std	Y+6, r1	; 0x06
    144c:	1d 82       	std	Y+5, r1	; 0x05
    144e:	0e 94 14 1f 	call	0x3e28	; 0x3e28 <vTaskSuspendAll>
    1452:	80 91 10 17 	lds	r24, 0x1710	; 0x801710 <pxEnd>
    1456:	90 91 11 17 	lds	r25, 0x1711	; 0x801711 <pxEnd+0x1>
    145a:	89 2b       	or	r24, r25
    145c:	09 f4       	brne	.+2      	; 0x1460 <pvPortMalloc+0x2e>
    145e:	6e d1       	rcall	.+732    	; 0x173c <prvHeapInit>
    1460:	20 91 1a 17 	lds	r18, 0x171A	; 0x80171a <xBlockAllocatedBit>
    1464:	30 91 1b 17 	lds	r19, 0x171B	; 0x80171b <xBlockAllocatedBit+0x1>
    1468:	89 85       	ldd	r24, Y+9	; 0x09
    146a:	9a 85       	ldd	r25, Y+10	; 0x0a
    146c:	82 23       	and	r24, r18
    146e:	93 23       	and	r25, r19
    1470:	89 2b       	or	r24, r25
    1472:	09 f0       	breq	.+2      	; 0x1476 <pvPortMalloc+0x44>
    1474:	e1 c0       	rjmp	.+450    	; 0x1638 <pvPortMalloc+0x206>
    1476:	89 85       	ldd	r24, Y+9	; 0x09
    1478:	9a 85       	ldd	r25, Y+10	; 0x0a
    147a:	89 2b       	or	r24, r25
    147c:	a1 f0       	breq	.+40     	; 0x14a6 <pvPortMalloc+0x74>
    147e:	24 e0       	ldi	r18, 0x04	; 4
    1480:	30 e0       	ldi	r19, 0x00	; 0
    1482:	89 85       	ldd	r24, Y+9	; 0x09
    1484:	9a 85       	ldd	r25, Y+10	; 0x0a
    1486:	28 0f       	add	r18, r24
    1488:	39 1f       	adc	r19, r25
    148a:	89 85       	ldd	r24, Y+9	; 0x09
    148c:	9a 85       	ldd	r25, Y+10	; 0x0a
    148e:	82 17       	cp	r24, r18
    1490:	93 07       	cpc	r25, r19
    1492:	48 f4       	brcc	.+18     	; 0x14a6 <pvPortMalloc+0x74>
    1494:	84 e0       	ldi	r24, 0x04	; 4
    1496:	90 e0       	ldi	r25, 0x00	; 0
    1498:	29 85       	ldd	r18, Y+9	; 0x09
    149a:	3a 85       	ldd	r19, Y+10	; 0x0a
    149c:	82 0f       	add	r24, r18
    149e:	93 1f       	adc	r25, r19
    14a0:	9a 87       	std	Y+10, r25	; 0x0a
    14a2:	89 87       	std	Y+9, r24	; 0x09
    14a4:	02 c0       	rjmp	.+4      	; 0x14aa <pvPortMalloc+0x78>
    14a6:	1a 86       	std	Y+10, r1	; 0x0a
    14a8:	19 86       	std	Y+9, r1	; 0x09
    14aa:	89 85       	ldd	r24, Y+9	; 0x09
    14ac:	9a 85       	ldd	r25, Y+10	; 0x0a
    14ae:	89 2b       	or	r24, r25
    14b0:	09 f4       	brne	.+2      	; 0x14b4 <pvPortMalloc+0x82>
    14b2:	c2 c0       	rjmp	.+388    	; 0x1638 <pvPortMalloc+0x206>
    14b4:	80 91 12 17 	lds	r24, 0x1712	; 0x801712 <xFreeBytesRemaining>
    14b8:	90 91 13 17 	lds	r25, 0x1713	; 0x801713 <xFreeBytesRemaining+0x1>
    14bc:	29 85       	ldd	r18, Y+9	; 0x09
    14be:	3a 85       	ldd	r19, Y+10	; 0x0a
    14c0:	82 17       	cp	r24, r18
    14c2:	93 07       	cpc	r25, r19
    14c4:	08 f4       	brcc	.+2      	; 0x14c8 <pvPortMalloc+0x96>
    14c6:	b8 c0       	rjmp	.+368    	; 0x1638 <pvPortMalloc+0x206>
    14c8:	8c e0       	ldi	r24, 0x0C	; 12
    14ca:	97 e1       	ldi	r25, 0x17	; 23
    14cc:	9c 83       	std	Y+4, r25	; 0x04
    14ce:	8b 83       	std	Y+3, r24	; 0x03
    14d0:	80 91 0c 17 	lds	r24, 0x170C	; 0x80170c <xStart>
    14d4:	90 91 0d 17 	lds	r25, 0x170D	; 0x80170d <xStart+0x1>
    14d8:	9a 83       	std	Y+2, r25	; 0x02
    14da:	89 83       	std	Y+1, r24	; 0x01
    14dc:	0b c0       	rjmp	.+22     	; 0x14f4 <pvPortMalloc+0xc2>
    14de:	89 81       	ldd	r24, Y+1	; 0x01
    14e0:	9a 81       	ldd	r25, Y+2	; 0x02
    14e2:	9c 83       	std	Y+4, r25	; 0x04
    14e4:	8b 83       	std	Y+3, r24	; 0x03
    14e6:	89 81       	ldd	r24, Y+1	; 0x01
    14e8:	9a 81       	ldd	r25, Y+2	; 0x02
    14ea:	fc 01       	movw	r30, r24
    14ec:	80 81       	ld	r24, Z
    14ee:	91 81       	ldd	r25, Z+1	; 0x01
    14f0:	9a 83       	std	Y+2, r25	; 0x02
    14f2:	89 83       	std	Y+1, r24	; 0x01
    14f4:	89 81       	ldd	r24, Y+1	; 0x01
    14f6:	9a 81       	ldd	r25, Y+2	; 0x02
    14f8:	fc 01       	movw	r30, r24
    14fa:	22 81       	ldd	r18, Z+2	; 0x02
    14fc:	33 81       	ldd	r19, Z+3	; 0x03
    14fe:	89 85       	ldd	r24, Y+9	; 0x09
    1500:	9a 85       	ldd	r25, Y+10	; 0x0a
    1502:	28 17       	cp	r18, r24
    1504:	39 07       	cpc	r19, r25
    1506:	38 f4       	brcc	.+14     	; 0x1516 <pvPortMalloc+0xe4>
    1508:	89 81       	ldd	r24, Y+1	; 0x01
    150a:	9a 81       	ldd	r25, Y+2	; 0x02
    150c:	fc 01       	movw	r30, r24
    150e:	80 81       	ld	r24, Z
    1510:	91 81       	ldd	r25, Z+1	; 0x01
    1512:	89 2b       	or	r24, r25
    1514:	21 f7       	brne	.-56     	; 0x14de <pvPortMalloc+0xac>
    1516:	80 91 10 17 	lds	r24, 0x1710	; 0x801710 <pxEnd>
    151a:	90 91 11 17 	lds	r25, 0x1711	; 0x801711 <pxEnd+0x1>
    151e:	29 81       	ldd	r18, Y+1	; 0x01
    1520:	3a 81       	ldd	r19, Y+2	; 0x02
    1522:	28 17       	cp	r18, r24
    1524:	39 07       	cpc	r19, r25
    1526:	09 f4       	brne	.+2      	; 0x152a <pvPortMalloc+0xf8>
    1528:	87 c0       	rjmp	.+270    	; 0x1638 <pvPortMalloc+0x206>
    152a:	8b 81       	ldd	r24, Y+3	; 0x03
    152c:	9c 81       	ldd	r25, Y+4	; 0x04
    152e:	fc 01       	movw	r30, r24
    1530:	20 81       	ld	r18, Z
    1532:	31 81       	ldd	r19, Z+1	; 0x01
    1534:	84 e0       	ldi	r24, 0x04	; 4
    1536:	90 e0       	ldi	r25, 0x00	; 0
    1538:	82 0f       	add	r24, r18
    153a:	93 1f       	adc	r25, r19
    153c:	9e 83       	std	Y+6, r25	; 0x06
    153e:	8d 83       	std	Y+5, r24	; 0x05
    1540:	89 81       	ldd	r24, Y+1	; 0x01
    1542:	9a 81       	ldd	r25, Y+2	; 0x02
    1544:	fc 01       	movw	r30, r24
    1546:	20 81       	ld	r18, Z
    1548:	31 81       	ldd	r19, Z+1	; 0x01
    154a:	8b 81       	ldd	r24, Y+3	; 0x03
    154c:	9c 81       	ldd	r25, Y+4	; 0x04
    154e:	fc 01       	movw	r30, r24
    1550:	31 83       	std	Z+1, r19	; 0x01
    1552:	20 83       	st	Z, r18
    1554:	89 81       	ldd	r24, Y+1	; 0x01
    1556:	9a 81       	ldd	r25, Y+2	; 0x02
    1558:	fc 01       	movw	r30, r24
    155a:	22 81       	ldd	r18, Z+2	; 0x02
    155c:	33 81       	ldd	r19, Z+3	; 0x03
    155e:	89 85       	ldd	r24, Y+9	; 0x09
    1560:	9a 85       	ldd	r25, Y+10	; 0x0a
    1562:	28 1b       	sub	r18, r24
    1564:	39 0b       	sbc	r19, r25
    1566:	84 e0       	ldi	r24, 0x04	; 4
    1568:	90 e0       	ldi	r25, 0x00	; 0
    156a:	88 0f       	add	r24, r24
    156c:	99 1f       	adc	r25, r25
    156e:	82 17       	cp	r24, r18
    1570:	93 07       	cpc	r25, r19
    1572:	00 f5       	brcc	.+64     	; 0x15b4 <pvPortMalloc+0x182>
    1574:	29 81       	ldd	r18, Y+1	; 0x01
    1576:	3a 81       	ldd	r19, Y+2	; 0x02
    1578:	89 85       	ldd	r24, Y+9	; 0x09
    157a:	9a 85       	ldd	r25, Y+10	; 0x0a
    157c:	82 0f       	add	r24, r18
    157e:	93 1f       	adc	r25, r19
    1580:	98 87       	std	Y+8, r25	; 0x08
    1582:	8f 83       	std	Y+7, r24	; 0x07
    1584:	89 81       	ldd	r24, Y+1	; 0x01
    1586:	9a 81       	ldd	r25, Y+2	; 0x02
    1588:	fc 01       	movw	r30, r24
    158a:	22 81       	ldd	r18, Z+2	; 0x02
    158c:	33 81       	ldd	r19, Z+3	; 0x03
    158e:	89 85       	ldd	r24, Y+9	; 0x09
    1590:	9a 85       	ldd	r25, Y+10	; 0x0a
    1592:	28 1b       	sub	r18, r24
    1594:	39 0b       	sbc	r19, r25
    1596:	8f 81       	ldd	r24, Y+7	; 0x07
    1598:	98 85       	ldd	r25, Y+8	; 0x08
    159a:	fc 01       	movw	r30, r24
    159c:	33 83       	std	Z+3, r19	; 0x03
    159e:	22 83       	std	Z+2, r18	; 0x02
    15a0:	89 81       	ldd	r24, Y+1	; 0x01
    15a2:	9a 81       	ldd	r25, Y+2	; 0x02
    15a4:	29 85       	ldd	r18, Y+9	; 0x09
    15a6:	3a 85       	ldd	r19, Y+10	; 0x0a
    15a8:	fc 01       	movw	r30, r24
    15aa:	33 83       	std	Z+3, r19	; 0x03
    15ac:	22 83       	std	Z+2, r18	; 0x02
    15ae:	8f 81       	ldd	r24, Y+7	; 0x07
    15b0:	98 85       	ldd	r25, Y+8	; 0x08
    15b2:	44 d1       	rcall	.+648    	; 0x183c <prvInsertBlockIntoFreeList>
    15b4:	20 91 12 17 	lds	r18, 0x1712	; 0x801712 <xFreeBytesRemaining>
    15b8:	30 91 13 17 	lds	r19, 0x1713	; 0x801713 <xFreeBytesRemaining+0x1>
    15bc:	89 81       	ldd	r24, Y+1	; 0x01
    15be:	9a 81       	ldd	r25, Y+2	; 0x02
    15c0:	fc 01       	movw	r30, r24
    15c2:	82 81       	ldd	r24, Z+2	; 0x02
    15c4:	93 81       	ldd	r25, Z+3	; 0x03
    15c6:	a9 01       	movw	r20, r18
    15c8:	48 1b       	sub	r20, r24
    15ca:	59 0b       	sbc	r21, r25
    15cc:	ca 01       	movw	r24, r20
    15ce:	90 93 13 17 	sts	0x1713, r25	; 0x801713 <xFreeBytesRemaining+0x1>
    15d2:	80 93 12 17 	sts	0x1712, r24	; 0x801712 <xFreeBytesRemaining>
    15d6:	20 91 12 17 	lds	r18, 0x1712	; 0x801712 <xFreeBytesRemaining>
    15da:	30 91 13 17 	lds	r19, 0x1713	; 0x801713 <xFreeBytesRemaining+0x1>
    15de:	80 91 14 17 	lds	r24, 0x1714	; 0x801714 <xMinimumEverFreeBytesRemaining>
    15e2:	90 91 15 17 	lds	r25, 0x1715	; 0x801715 <xMinimumEverFreeBytesRemaining+0x1>
    15e6:	28 17       	cp	r18, r24
    15e8:	39 07       	cpc	r19, r25
    15ea:	40 f4       	brcc	.+16     	; 0x15fc <pvPortMalloc+0x1ca>
    15ec:	80 91 12 17 	lds	r24, 0x1712	; 0x801712 <xFreeBytesRemaining>
    15f0:	90 91 13 17 	lds	r25, 0x1713	; 0x801713 <xFreeBytesRemaining+0x1>
    15f4:	90 93 15 17 	sts	0x1715, r25	; 0x801715 <xMinimumEverFreeBytesRemaining+0x1>
    15f8:	80 93 14 17 	sts	0x1714, r24	; 0x801714 <xMinimumEverFreeBytesRemaining>
    15fc:	89 81       	ldd	r24, Y+1	; 0x01
    15fe:	9a 81       	ldd	r25, Y+2	; 0x02
    1600:	fc 01       	movw	r30, r24
    1602:	22 81       	ldd	r18, Z+2	; 0x02
    1604:	33 81       	ldd	r19, Z+3	; 0x03
    1606:	80 91 1a 17 	lds	r24, 0x171A	; 0x80171a <xBlockAllocatedBit>
    160a:	90 91 1b 17 	lds	r25, 0x171B	; 0x80171b <xBlockAllocatedBit+0x1>
    160e:	28 2b       	or	r18, r24
    1610:	39 2b       	or	r19, r25
    1612:	89 81       	ldd	r24, Y+1	; 0x01
    1614:	9a 81       	ldd	r25, Y+2	; 0x02
    1616:	fc 01       	movw	r30, r24
    1618:	33 83       	std	Z+3, r19	; 0x03
    161a:	22 83       	std	Z+2, r18	; 0x02
    161c:	89 81       	ldd	r24, Y+1	; 0x01
    161e:	9a 81       	ldd	r25, Y+2	; 0x02
    1620:	fc 01       	movw	r30, r24
    1622:	11 82       	std	Z+1, r1	; 0x01
    1624:	10 82       	st	Z, r1
    1626:	80 91 16 17 	lds	r24, 0x1716	; 0x801716 <xNumberOfSuccessfulAllocations>
    162a:	90 91 17 17 	lds	r25, 0x1717	; 0x801717 <xNumberOfSuccessfulAllocations+0x1>
    162e:	01 96       	adiw	r24, 0x01	; 1
    1630:	90 93 17 17 	sts	0x1717, r25	; 0x801717 <xNumberOfSuccessfulAllocations+0x1>
    1634:	80 93 16 17 	sts	0x1716, r24	; 0x801716 <xNumberOfSuccessfulAllocations>
    1638:	0e 94 21 1f 	call	0x3e42	; 0x3e42 <xTaskResumeAll>
    163c:	8d 81       	ldd	r24, Y+5	; 0x05
    163e:	9e 81       	ldd	r25, Y+6	; 0x06
    1640:	89 2b       	or	r24, r25
    1642:	11 f4       	brne	.+4      	; 0x1648 <pvPortMalloc+0x216>
    1644:	0e 94 4c 37 	call	0x6e98	; 0x6e98 <vApplicationMallocFailedHook>
    1648:	8d 81       	ldd	r24, Y+5	; 0x05
    164a:	9e 81       	ldd	r25, Y+6	; 0x06
    164c:	2a 96       	adiw	r28, 0x0a	; 10
    164e:	0f b6       	in	r0, 0x3f	; 63
    1650:	f8 94       	cli
    1652:	de bf       	out	0x3e, r29	; 62
    1654:	0f be       	out	0x3f, r0	; 63
    1656:	cd bf       	out	0x3d, r28	; 61
    1658:	df 91       	pop	r29
    165a:	cf 91       	pop	r28
    165c:	08 95       	ret

0000165e <vPortFree>:
    165e:	cf 93       	push	r28
    1660:	df 93       	push	r29
    1662:	00 d0       	rcall	.+0      	; 0x1664 <vPortFree+0x6>
    1664:	00 d0       	rcall	.+0      	; 0x1666 <vPortFree+0x8>
    1666:	cd b7       	in	r28, 0x3d	; 61
    1668:	de b7       	in	r29, 0x3e	; 62
    166a:	9e 83       	std	Y+6, r25	; 0x06
    166c:	8d 83       	std	Y+5, r24	; 0x05
    166e:	8d 81       	ldd	r24, Y+5	; 0x05
    1670:	9e 81       	ldd	r25, Y+6	; 0x06
    1672:	9a 83       	std	Y+2, r25	; 0x02
    1674:	89 83       	std	Y+1, r24	; 0x01
    1676:	8d 81       	ldd	r24, Y+5	; 0x05
    1678:	9e 81       	ldd	r25, Y+6	; 0x06
    167a:	89 2b       	or	r24, r25
    167c:	09 f4       	brne	.+2      	; 0x1680 <vPortFree+0x22>
    167e:	54 c0       	rjmp	.+168    	; 0x1728 <vPortFree+0xca>
    1680:	84 e0       	ldi	r24, 0x04	; 4
    1682:	90 e0       	ldi	r25, 0x00	; 0
    1684:	91 95       	neg	r25
    1686:	81 95       	neg	r24
    1688:	91 09       	sbc	r25, r1
    168a:	29 81       	ldd	r18, Y+1	; 0x01
    168c:	3a 81       	ldd	r19, Y+2	; 0x02
    168e:	82 0f       	add	r24, r18
    1690:	93 1f       	adc	r25, r19
    1692:	9a 83       	std	Y+2, r25	; 0x02
    1694:	89 83       	std	Y+1, r24	; 0x01
    1696:	89 81       	ldd	r24, Y+1	; 0x01
    1698:	9a 81       	ldd	r25, Y+2	; 0x02
    169a:	9c 83       	std	Y+4, r25	; 0x04
    169c:	8b 83       	std	Y+3, r24	; 0x03
    169e:	8b 81       	ldd	r24, Y+3	; 0x03
    16a0:	9c 81       	ldd	r25, Y+4	; 0x04
    16a2:	fc 01       	movw	r30, r24
    16a4:	22 81       	ldd	r18, Z+2	; 0x02
    16a6:	33 81       	ldd	r19, Z+3	; 0x03
    16a8:	80 91 1a 17 	lds	r24, 0x171A	; 0x80171a <xBlockAllocatedBit>
    16ac:	90 91 1b 17 	lds	r25, 0x171B	; 0x80171b <xBlockAllocatedBit+0x1>
    16b0:	82 23       	and	r24, r18
    16b2:	93 23       	and	r25, r19
    16b4:	89 2b       	or	r24, r25
    16b6:	c1 f1       	breq	.+112    	; 0x1728 <vPortFree+0xca>
    16b8:	8b 81       	ldd	r24, Y+3	; 0x03
    16ba:	9c 81       	ldd	r25, Y+4	; 0x04
    16bc:	fc 01       	movw	r30, r24
    16be:	80 81       	ld	r24, Z
    16c0:	91 81       	ldd	r25, Z+1	; 0x01
    16c2:	89 2b       	or	r24, r25
    16c4:	89 f5       	brne	.+98     	; 0x1728 <vPortFree+0xca>
    16c6:	8b 81       	ldd	r24, Y+3	; 0x03
    16c8:	9c 81       	ldd	r25, Y+4	; 0x04
    16ca:	fc 01       	movw	r30, r24
    16cc:	22 81       	ldd	r18, Z+2	; 0x02
    16ce:	33 81       	ldd	r19, Z+3	; 0x03
    16d0:	80 91 1a 17 	lds	r24, 0x171A	; 0x80171a <xBlockAllocatedBit>
    16d4:	90 91 1b 17 	lds	r25, 0x171B	; 0x80171b <xBlockAllocatedBit+0x1>
    16d8:	80 95       	com	r24
    16da:	90 95       	com	r25
    16dc:	28 23       	and	r18, r24
    16de:	39 23       	and	r19, r25
    16e0:	8b 81       	ldd	r24, Y+3	; 0x03
    16e2:	9c 81       	ldd	r25, Y+4	; 0x04
    16e4:	fc 01       	movw	r30, r24
    16e6:	33 83       	std	Z+3, r19	; 0x03
    16e8:	22 83       	std	Z+2, r18	; 0x02
    16ea:	0e 94 14 1f 	call	0x3e28	; 0x3e28 <vTaskSuspendAll>
    16ee:	8b 81       	ldd	r24, Y+3	; 0x03
    16f0:	9c 81       	ldd	r25, Y+4	; 0x04
    16f2:	fc 01       	movw	r30, r24
    16f4:	22 81       	ldd	r18, Z+2	; 0x02
    16f6:	33 81       	ldd	r19, Z+3	; 0x03
    16f8:	80 91 12 17 	lds	r24, 0x1712	; 0x801712 <xFreeBytesRemaining>
    16fc:	90 91 13 17 	lds	r25, 0x1713	; 0x801713 <xFreeBytesRemaining+0x1>
    1700:	82 0f       	add	r24, r18
    1702:	93 1f       	adc	r25, r19
    1704:	90 93 13 17 	sts	0x1713, r25	; 0x801713 <xFreeBytesRemaining+0x1>
    1708:	80 93 12 17 	sts	0x1712, r24	; 0x801712 <xFreeBytesRemaining>
    170c:	8b 81       	ldd	r24, Y+3	; 0x03
    170e:	9c 81       	ldd	r25, Y+4	; 0x04
    1710:	95 d0       	rcall	.+298    	; 0x183c <prvInsertBlockIntoFreeList>
    1712:	80 91 18 17 	lds	r24, 0x1718	; 0x801718 <xNumberOfSuccessfulFrees>
    1716:	90 91 19 17 	lds	r25, 0x1719	; 0x801719 <xNumberOfSuccessfulFrees+0x1>
    171a:	01 96       	adiw	r24, 0x01	; 1
    171c:	90 93 19 17 	sts	0x1719, r25	; 0x801719 <xNumberOfSuccessfulFrees+0x1>
    1720:	80 93 18 17 	sts	0x1718, r24	; 0x801718 <xNumberOfSuccessfulFrees>
    1724:	0e 94 21 1f 	call	0x3e42	; 0x3e42 <xTaskResumeAll>
    1728:	00 00       	nop
    172a:	26 96       	adiw	r28, 0x06	; 6
    172c:	0f b6       	in	r0, 0x3f	; 63
    172e:	f8 94       	cli
    1730:	de bf       	out	0x3e, r29	; 62
    1732:	0f be       	out	0x3f, r0	; 63
    1734:	cd bf       	out	0x3d, r28	; 61
    1736:	df 91       	pop	r29
    1738:	cf 91       	pop	r28
    173a:	08 95       	ret

0000173c <prvHeapInit>:
    173c:	cf 93       	push	r28
    173e:	df 93       	push	r29
    1740:	cd b7       	in	r28, 0x3d	; 61
    1742:	de b7       	in	r29, 0x3e	; 62
    1744:	28 97       	sbiw	r28, 0x08	; 8
    1746:	0f b6       	in	r0, 0x3f	; 63
    1748:	f8 94       	cli
    174a:	de bf       	out	0x3e, r29	; 62
    174c:	0f be       	out	0x3f, r0	; 63
    174e:	cd bf       	out	0x3d, r28	; 61
    1750:	8c ea       	ldi	r24, 0xAC	; 172
    1752:	9d e0       	ldi	r25, 0x0D	; 13
    1754:	9a 83       	std	Y+2, r25	; 0x02
    1756:	89 83       	std	Y+1, r24	; 0x01
    1758:	80 e6       	ldi	r24, 0x60	; 96
    175a:	99 e0       	ldi	r25, 0x09	; 9
    175c:	9c 83       	std	Y+4, r25	; 0x04
    175e:	8b 83       	std	Y+3, r24	; 0x03
    1760:	8b 81       	ldd	r24, Y+3	; 0x03
    1762:	9c 81       	ldd	r25, Y+4	; 0x04
    1764:	9e 83       	std	Y+6, r25	; 0x06
    1766:	8d 83       	std	Y+5, r24	; 0x05
    1768:	8d 81       	ldd	r24, Y+5	; 0x05
    176a:	9e 81       	ldd	r25, Y+6	; 0x06
    176c:	90 93 0d 17 	sts	0x170D, r25	; 0x80170d <xStart+0x1>
    1770:	80 93 0c 17 	sts	0x170C, r24	; 0x80170c <xStart>
    1774:	10 92 0f 17 	sts	0x170F, r1	; 0x80170f <xStart+0x3>
    1778:	10 92 0e 17 	sts	0x170E, r1	; 0x80170e <xStart+0x2>
    177c:	2d 81       	ldd	r18, Y+5	; 0x05
    177e:	3e 81       	ldd	r19, Y+6	; 0x06
    1780:	89 81       	ldd	r24, Y+1	; 0x01
    1782:	9a 81       	ldd	r25, Y+2	; 0x02
    1784:	82 0f       	add	r24, r18
    1786:	93 1f       	adc	r25, r19
    1788:	9c 83       	std	Y+4, r25	; 0x04
    178a:	8b 83       	std	Y+3, r24	; 0x03
    178c:	84 e0       	ldi	r24, 0x04	; 4
    178e:	90 e0       	ldi	r25, 0x00	; 0
    1790:	2b 81       	ldd	r18, Y+3	; 0x03
    1792:	3c 81       	ldd	r19, Y+4	; 0x04
    1794:	a9 01       	movw	r20, r18
    1796:	48 1b       	sub	r20, r24
    1798:	59 0b       	sbc	r21, r25
    179a:	ca 01       	movw	r24, r20
    179c:	9c 83       	std	Y+4, r25	; 0x04
    179e:	8b 83       	std	Y+3, r24	; 0x03
    17a0:	8b 81       	ldd	r24, Y+3	; 0x03
    17a2:	9c 81       	ldd	r25, Y+4	; 0x04
    17a4:	90 93 11 17 	sts	0x1711, r25	; 0x801711 <pxEnd+0x1>
    17a8:	80 93 10 17 	sts	0x1710, r24	; 0x801710 <pxEnd>
    17ac:	80 91 10 17 	lds	r24, 0x1710	; 0x801710 <pxEnd>
    17b0:	90 91 11 17 	lds	r25, 0x1711	; 0x801711 <pxEnd+0x1>
    17b4:	fc 01       	movw	r30, r24
    17b6:	13 82       	std	Z+3, r1	; 0x03
    17b8:	12 82       	std	Z+2, r1	; 0x02
    17ba:	80 91 10 17 	lds	r24, 0x1710	; 0x801710 <pxEnd>
    17be:	90 91 11 17 	lds	r25, 0x1711	; 0x801711 <pxEnd+0x1>
    17c2:	fc 01       	movw	r30, r24
    17c4:	11 82       	std	Z+1, r1	; 0x01
    17c6:	10 82       	st	Z, r1
    17c8:	8d 81       	ldd	r24, Y+5	; 0x05
    17ca:	9e 81       	ldd	r25, Y+6	; 0x06
    17cc:	98 87       	std	Y+8, r25	; 0x08
    17ce:	8f 83       	std	Y+7, r24	; 0x07
    17d0:	8f 81       	ldd	r24, Y+7	; 0x07
    17d2:	98 85       	ldd	r25, Y+8	; 0x08
    17d4:	2b 81       	ldd	r18, Y+3	; 0x03
    17d6:	3c 81       	ldd	r19, Y+4	; 0x04
    17d8:	28 1b       	sub	r18, r24
    17da:	39 0b       	sbc	r19, r25
    17dc:	8f 81       	ldd	r24, Y+7	; 0x07
    17de:	98 85       	ldd	r25, Y+8	; 0x08
    17e0:	fc 01       	movw	r30, r24
    17e2:	33 83       	std	Z+3, r19	; 0x03
    17e4:	22 83       	std	Z+2, r18	; 0x02
    17e6:	20 91 10 17 	lds	r18, 0x1710	; 0x801710 <pxEnd>
    17ea:	30 91 11 17 	lds	r19, 0x1711	; 0x801711 <pxEnd+0x1>
    17ee:	8f 81       	ldd	r24, Y+7	; 0x07
    17f0:	98 85       	ldd	r25, Y+8	; 0x08
    17f2:	fc 01       	movw	r30, r24
    17f4:	31 83       	std	Z+1, r19	; 0x01
    17f6:	20 83       	st	Z, r18
    17f8:	8f 81       	ldd	r24, Y+7	; 0x07
    17fa:	98 85       	ldd	r25, Y+8	; 0x08
    17fc:	fc 01       	movw	r30, r24
    17fe:	82 81       	ldd	r24, Z+2	; 0x02
    1800:	93 81       	ldd	r25, Z+3	; 0x03
    1802:	90 93 15 17 	sts	0x1715, r25	; 0x801715 <xMinimumEverFreeBytesRemaining+0x1>
    1806:	80 93 14 17 	sts	0x1714, r24	; 0x801714 <xMinimumEverFreeBytesRemaining>
    180a:	8f 81       	ldd	r24, Y+7	; 0x07
    180c:	98 85       	ldd	r25, Y+8	; 0x08
    180e:	fc 01       	movw	r30, r24
    1810:	82 81       	ldd	r24, Z+2	; 0x02
    1812:	93 81       	ldd	r25, Z+3	; 0x03
    1814:	90 93 13 17 	sts	0x1713, r25	; 0x801713 <xFreeBytesRemaining+0x1>
    1818:	80 93 12 17 	sts	0x1712, r24	; 0x801712 <xFreeBytesRemaining>
    181c:	80 e0       	ldi	r24, 0x00	; 0
    181e:	90 e8       	ldi	r25, 0x80	; 128
    1820:	90 93 1b 17 	sts	0x171B, r25	; 0x80171b <xBlockAllocatedBit+0x1>
    1824:	80 93 1a 17 	sts	0x171A, r24	; 0x80171a <xBlockAllocatedBit>
    1828:	00 00       	nop
    182a:	28 96       	adiw	r28, 0x08	; 8
    182c:	0f b6       	in	r0, 0x3f	; 63
    182e:	f8 94       	cli
    1830:	de bf       	out	0x3e, r29	; 62
    1832:	0f be       	out	0x3f, r0	; 63
    1834:	cd bf       	out	0x3d, r28	; 61
    1836:	df 91       	pop	r29
    1838:	cf 91       	pop	r28
    183a:	08 95       	ret

0000183c <prvInsertBlockIntoFreeList>:
    183c:	cf 93       	push	r28
    183e:	df 93       	push	r29
    1840:	00 d0       	rcall	.+0      	; 0x1842 <prvInsertBlockIntoFreeList+0x6>
    1842:	00 d0       	rcall	.+0      	; 0x1844 <prvInsertBlockIntoFreeList+0x8>
    1844:	cd b7       	in	r28, 0x3d	; 61
    1846:	de b7       	in	r29, 0x3e	; 62
    1848:	9e 83       	std	Y+6, r25	; 0x06
    184a:	8d 83       	std	Y+5, r24	; 0x05
    184c:	8c e0       	ldi	r24, 0x0C	; 12
    184e:	97 e1       	ldi	r25, 0x17	; 23
    1850:	9a 83       	std	Y+2, r25	; 0x02
    1852:	89 83       	std	Y+1, r24	; 0x01
    1854:	07 c0       	rjmp	.+14     	; 0x1864 <prvInsertBlockIntoFreeList+0x28>
    1856:	89 81       	ldd	r24, Y+1	; 0x01
    1858:	9a 81       	ldd	r25, Y+2	; 0x02
    185a:	fc 01       	movw	r30, r24
    185c:	80 81       	ld	r24, Z
    185e:	91 81       	ldd	r25, Z+1	; 0x01
    1860:	9a 83       	std	Y+2, r25	; 0x02
    1862:	89 83       	std	Y+1, r24	; 0x01
    1864:	89 81       	ldd	r24, Y+1	; 0x01
    1866:	9a 81       	ldd	r25, Y+2	; 0x02
    1868:	fc 01       	movw	r30, r24
    186a:	20 81       	ld	r18, Z
    186c:	31 81       	ldd	r19, Z+1	; 0x01
    186e:	8d 81       	ldd	r24, Y+5	; 0x05
    1870:	9e 81       	ldd	r25, Y+6	; 0x06
    1872:	28 17       	cp	r18, r24
    1874:	39 07       	cpc	r19, r25
    1876:	78 f3       	brcs	.-34     	; 0x1856 <prvInsertBlockIntoFreeList+0x1a>
    1878:	89 81       	ldd	r24, Y+1	; 0x01
    187a:	9a 81       	ldd	r25, Y+2	; 0x02
    187c:	9c 83       	std	Y+4, r25	; 0x04
    187e:	8b 83       	std	Y+3, r24	; 0x03
    1880:	89 81       	ldd	r24, Y+1	; 0x01
    1882:	9a 81       	ldd	r25, Y+2	; 0x02
    1884:	fc 01       	movw	r30, r24
    1886:	82 81       	ldd	r24, Z+2	; 0x02
    1888:	93 81       	ldd	r25, Z+3	; 0x03
    188a:	2b 81       	ldd	r18, Y+3	; 0x03
    188c:	3c 81       	ldd	r19, Y+4	; 0x04
    188e:	28 0f       	add	r18, r24
    1890:	39 1f       	adc	r19, r25
    1892:	8d 81       	ldd	r24, Y+5	; 0x05
    1894:	9e 81       	ldd	r25, Y+6	; 0x06
    1896:	28 17       	cp	r18, r24
    1898:	39 07       	cpc	r19, r25
    189a:	a9 f4       	brne	.+42     	; 0x18c6 <prvInsertBlockIntoFreeList+0x8a>
    189c:	89 81       	ldd	r24, Y+1	; 0x01
    189e:	9a 81       	ldd	r25, Y+2	; 0x02
    18a0:	fc 01       	movw	r30, r24
    18a2:	22 81       	ldd	r18, Z+2	; 0x02
    18a4:	33 81       	ldd	r19, Z+3	; 0x03
    18a6:	8d 81       	ldd	r24, Y+5	; 0x05
    18a8:	9e 81       	ldd	r25, Y+6	; 0x06
    18aa:	fc 01       	movw	r30, r24
    18ac:	82 81       	ldd	r24, Z+2	; 0x02
    18ae:	93 81       	ldd	r25, Z+3	; 0x03
    18b0:	28 0f       	add	r18, r24
    18b2:	39 1f       	adc	r19, r25
    18b4:	89 81       	ldd	r24, Y+1	; 0x01
    18b6:	9a 81       	ldd	r25, Y+2	; 0x02
    18b8:	fc 01       	movw	r30, r24
    18ba:	33 83       	std	Z+3, r19	; 0x03
    18bc:	22 83       	std	Z+2, r18	; 0x02
    18be:	89 81       	ldd	r24, Y+1	; 0x01
    18c0:	9a 81       	ldd	r25, Y+2	; 0x02
    18c2:	9e 83       	std	Y+6, r25	; 0x06
    18c4:	8d 83       	std	Y+5, r24	; 0x05
    18c6:	8d 81       	ldd	r24, Y+5	; 0x05
    18c8:	9e 81       	ldd	r25, Y+6	; 0x06
    18ca:	9c 83       	std	Y+4, r25	; 0x04
    18cc:	8b 83       	std	Y+3, r24	; 0x03
    18ce:	8d 81       	ldd	r24, Y+5	; 0x05
    18d0:	9e 81       	ldd	r25, Y+6	; 0x06
    18d2:	fc 01       	movw	r30, r24
    18d4:	82 81       	ldd	r24, Z+2	; 0x02
    18d6:	93 81       	ldd	r25, Z+3	; 0x03
    18d8:	2b 81       	ldd	r18, Y+3	; 0x03
    18da:	3c 81       	ldd	r19, Y+4	; 0x04
    18dc:	28 0f       	add	r18, r24
    18de:	39 1f       	adc	r19, r25
    18e0:	89 81       	ldd	r24, Y+1	; 0x01
    18e2:	9a 81       	ldd	r25, Y+2	; 0x02
    18e4:	fc 01       	movw	r30, r24
    18e6:	80 81       	ld	r24, Z
    18e8:	91 81       	ldd	r25, Z+1	; 0x01
    18ea:	28 17       	cp	r18, r24
    18ec:	39 07       	cpc	r19, r25
    18ee:	c1 f5       	brne	.+112    	; 0x1960 <prvInsertBlockIntoFreeList+0x124>
    18f0:	89 81       	ldd	r24, Y+1	; 0x01
    18f2:	9a 81       	ldd	r25, Y+2	; 0x02
    18f4:	fc 01       	movw	r30, r24
    18f6:	20 81       	ld	r18, Z
    18f8:	31 81       	ldd	r19, Z+1	; 0x01
    18fa:	80 91 10 17 	lds	r24, 0x1710	; 0x801710 <pxEnd>
    18fe:	90 91 11 17 	lds	r25, 0x1711	; 0x801711 <pxEnd+0x1>
    1902:	28 17       	cp	r18, r24
    1904:	39 07       	cpc	r19, r25
    1906:	11 f1       	breq	.+68     	; 0x194c <prvInsertBlockIntoFreeList+0x110>
    1908:	8d 81       	ldd	r24, Y+5	; 0x05
    190a:	9e 81       	ldd	r25, Y+6	; 0x06
    190c:	fc 01       	movw	r30, r24
    190e:	22 81       	ldd	r18, Z+2	; 0x02
    1910:	33 81       	ldd	r19, Z+3	; 0x03
    1912:	89 81       	ldd	r24, Y+1	; 0x01
    1914:	9a 81       	ldd	r25, Y+2	; 0x02
    1916:	fc 01       	movw	r30, r24
    1918:	80 81       	ld	r24, Z
    191a:	91 81       	ldd	r25, Z+1	; 0x01
    191c:	fc 01       	movw	r30, r24
    191e:	82 81       	ldd	r24, Z+2	; 0x02
    1920:	93 81       	ldd	r25, Z+3	; 0x03
    1922:	28 0f       	add	r18, r24
    1924:	39 1f       	adc	r19, r25
    1926:	8d 81       	ldd	r24, Y+5	; 0x05
    1928:	9e 81       	ldd	r25, Y+6	; 0x06
    192a:	fc 01       	movw	r30, r24
    192c:	33 83       	std	Z+3, r19	; 0x03
    192e:	22 83       	std	Z+2, r18	; 0x02
    1930:	89 81       	ldd	r24, Y+1	; 0x01
    1932:	9a 81       	ldd	r25, Y+2	; 0x02
    1934:	fc 01       	movw	r30, r24
    1936:	80 81       	ld	r24, Z
    1938:	91 81       	ldd	r25, Z+1	; 0x01
    193a:	fc 01       	movw	r30, r24
    193c:	20 81       	ld	r18, Z
    193e:	31 81       	ldd	r19, Z+1	; 0x01
    1940:	8d 81       	ldd	r24, Y+5	; 0x05
    1942:	9e 81       	ldd	r25, Y+6	; 0x06
    1944:	fc 01       	movw	r30, r24
    1946:	31 83       	std	Z+1, r19	; 0x01
    1948:	20 83       	st	Z, r18
    194a:	14 c0       	rjmp	.+40     	; 0x1974 <prvInsertBlockIntoFreeList+0x138>
    194c:	20 91 10 17 	lds	r18, 0x1710	; 0x801710 <pxEnd>
    1950:	30 91 11 17 	lds	r19, 0x1711	; 0x801711 <pxEnd+0x1>
    1954:	8d 81       	ldd	r24, Y+5	; 0x05
    1956:	9e 81       	ldd	r25, Y+6	; 0x06
    1958:	fc 01       	movw	r30, r24
    195a:	31 83       	std	Z+1, r19	; 0x01
    195c:	20 83       	st	Z, r18
    195e:	0a c0       	rjmp	.+20     	; 0x1974 <prvInsertBlockIntoFreeList+0x138>
    1960:	89 81       	ldd	r24, Y+1	; 0x01
    1962:	9a 81       	ldd	r25, Y+2	; 0x02
    1964:	fc 01       	movw	r30, r24
    1966:	20 81       	ld	r18, Z
    1968:	31 81       	ldd	r19, Z+1	; 0x01
    196a:	8d 81       	ldd	r24, Y+5	; 0x05
    196c:	9e 81       	ldd	r25, Y+6	; 0x06
    196e:	fc 01       	movw	r30, r24
    1970:	31 83       	std	Z+1, r19	; 0x01
    1972:	20 83       	st	Z, r18
    1974:	29 81       	ldd	r18, Y+1	; 0x01
    1976:	3a 81       	ldd	r19, Y+2	; 0x02
    1978:	8d 81       	ldd	r24, Y+5	; 0x05
    197a:	9e 81       	ldd	r25, Y+6	; 0x06
    197c:	28 17       	cp	r18, r24
    197e:	39 07       	cpc	r19, r25
    1980:	39 f0       	breq	.+14     	; 0x1990 <prvInsertBlockIntoFreeList+0x154>
    1982:	89 81       	ldd	r24, Y+1	; 0x01
    1984:	9a 81       	ldd	r25, Y+2	; 0x02
    1986:	2d 81       	ldd	r18, Y+5	; 0x05
    1988:	3e 81       	ldd	r19, Y+6	; 0x06
    198a:	fc 01       	movw	r30, r24
    198c:	31 83       	std	Z+1, r19	; 0x01
    198e:	20 83       	st	Z, r18
    1990:	00 00       	nop
    1992:	26 96       	adiw	r28, 0x06	; 6
    1994:	0f b6       	in	r0, 0x3f	; 63
    1996:	f8 94       	cli
    1998:	de bf       	out	0x3e, r29	; 62
    199a:	0f be       	out	0x3f, r0	; 63
    199c:	cd bf       	out	0x3d, r28	; 61
    199e:	df 91       	pop	r29
    19a0:	cf 91       	pop	r28
    19a2:	08 95       	ret

000019a4 <vListInitialise>:
    19a4:	cf 93       	push	r28
    19a6:	df 93       	push	r29
    19a8:	1f 92       	push	r1
    19aa:	1f 92       	push	r1
    19ac:	cd b7       	in	r28, 0x3d	; 61
    19ae:	de b7       	in	r29, 0x3e	; 62
    19b0:	9a 83       	std	Y+2, r25	; 0x02
    19b2:	89 83       	std	Y+1, r24	; 0x01
    19b4:	89 81       	ldd	r24, Y+1	; 0x01
    19b6:	9a 81       	ldd	r25, Y+2	; 0x02
    19b8:	9c 01       	movw	r18, r24
    19ba:	2d 5f       	subi	r18, 0xFD	; 253
    19bc:	3f 4f       	sbci	r19, 0xFF	; 255
    19be:	89 81       	ldd	r24, Y+1	; 0x01
    19c0:	9a 81       	ldd	r25, Y+2	; 0x02
    19c2:	fc 01       	movw	r30, r24
    19c4:	32 83       	std	Z+2, r19	; 0x02
    19c6:	21 83       	std	Z+1, r18	; 0x01
    19c8:	29 81       	ldd	r18, Y+1	; 0x01
    19ca:	3a 81       	ldd	r19, Y+2	; 0x02
    19cc:	8f ef       	ldi	r24, 0xFF	; 255
    19ce:	9f ef       	ldi	r25, 0xFF	; 255
    19d0:	dc 01       	movw	r26, r24
    19d2:	f9 01       	movw	r30, r18
    19d4:	83 83       	std	Z+3, r24	; 0x03
    19d6:	94 83       	std	Z+4, r25	; 0x04
    19d8:	a5 83       	std	Z+5, r26	; 0x05
    19da:	b6 83       	std	Z+6, r27	; 0x06
    19dc:	89 81       	ldd	r24, Y+1	; 0x01
    19de:	9a 81       	ldd	r25, Y+2	; 0x02
    19e0:	9c 01       	movw	r18, r24
    19e2:	2d 5f       	subi	r18, 0xFD	; 253
    19e4:	3f 4f       	sbci	r19, 0xFF	; 255
    19e6:	89 81       	ldd	r24, Y+1	; 0x01
    19e8:	9a 81       	ldd	r25, Y+2	; 0x02
    19ea:	fc 01       	movw	r30, r24
    19ec:	30 87       	std	Z+8, r19	; 0x08
    19ee:	27 83       	std	Z+7, r18	; 0x07
    19f0:	89 81       	ldd	r24, Y+1	; 0x01
    19f2:	9a 81       	ldd	r25, Y+2	; 0x02
    19f4:	9c 01       	movw	r18, r24
    19f6:	2d 5f       	subi	r18, 0xFD	; 253
    19f8:	3f 4f       	sbci	r19, 0xFF	; 255
    19fa:	89 81       	ldd	r24, Y+1	; 0x01
    19fc:	9a 81       	ldd	r25, Y+2	; 0x02
    19fe:	fc 01       	movw	r30, r24
    1a00:	32 87       	std	Z+10, r19	; 0x0a
    1a02:	21 87       	std	Z+9, r18	; 0x09
    1a04:	89 81       	ldd	r24, Y+1	; 0x01
    1a06:	9a 81       	ldd	r25, Y+2	; 0x02
    1a08:	fc 01       	movw	r30, r24
    1a0a:	10 82       	st	Z, r1
    1a0c:	00 00       	nop
    1a0e:	0f 90       	pop	r0
    1a10:	0f 90       	pop	r0
    1a12:	df 91       	pop	r29
    1a14:	cf 91       	pop	r28
    1a16:	08 95       	ret

00001a18 <vListInitialiseItem>:
    1a18:	cf 93       	push	r28
    1a1a:	df 93       	push	r29
    1a1c:	1f 92       	push	r1
    1a1e:	1f 92       	push	r1
    1a20:	cd b7       	in	r28, 0x3d	; 61
    1a22:	de b7       	in	r29, 0x3e	; 62
    1a24:	9a 83       	std	Y+2, r25	; 0x02
    1a26:	89 83       	std	Y+1, r24	; 0x01
    1a28:	89 81       	ldd	r24, Y+1	; 0x01
    1a2a:	9a 81       	ldd	r25, Y+2	; 0x02
    1a2c:	fc 01       	movw	r30, r24
    1a2e:	13 86       	std	Z+11, r1	; 0x0b
    1a30:	12 86       	std	Z+10, r1	; 0x0a
    1a32:	00 00       	nop
    1a34:	0f 90       	pop	r0
    1a36:	0f 90       	pop	r0
    1a38:	df 91       	pop	r29
    1a3a:	cf 91       	pop	r28
    1a3c:	08 95       	ret

00001a3e <vListInsert>:
    1a3e:	cf 93       	push	r28
    1a40:	df 93       	push	r29
    1a42:	cd b7       	in	r28, 0x3d	; 61
    1a44:	de b7       	in	r29, 0x3e	; 62
    1a46:	2a 97       	sbiw	r28, 0x0a	; 10
    1a48:	0f b6       	in	r0, 0x3f	; 63
    1a4a:	f8 94       	cli
    1a4c:	de bf       	out	0x3e, r29	; 62
    1a4e:	0f be       	out	0x3f, r0	; 63
    1a50:	cd bf       	out	0x3d, r28	; 61
    1a52:	98 87       	std	Y+8, r25	; 0x08
    1a54:	8f 83       	std	Y+7, r24	; 0x07
    1a56:	7a 87       	std	Y+10, r23	; 0x0a
    1a58:	69 87       	std	Y+9, r22	; 0x09
    1a5a:	89 85       	ldd	r24, Y+9	; 0x09
    1a5c:	9a 85       	ldd	r25, Y+10	; 0x0a
    1a5e:	fc 01       	movw	r30, r24
    1a60:	80 81       	ld	r24, Z
    1a62:	91 81       	ldd	r25, Z+1	; 0x01
    1a64:	a2 81       	ldd	r26, Z+2	; 0x02
    1a66:	b3 81       	ldd	r27, Z+3	; 0x03
    1a68:	8b 83       	std	Y+3, r24	; 0x03
    1a6a:	9c 83       	std	Y+4, r25	; 0x04
    1a6c:	ad 83       	std	Y+5, r26	; 0x05
    1a6e:	be 83       	std	Y+6, r27	; 0x06
    1a70:	8b 81       	ldd	r24, Y+3	; 0x03
    1a72:	9c 81       	ldd	r25, Y+4	; 0x04
    1a74:	ad 81       	ldd	r26, Y+5	; 0x05
    1a76:	be 81       	ldd	r27, Y+6	; 0x06
    1a78:	8f 3f       	cpi	r24, 0xFF	; 255
    1a7a:	9f 4f       	sbci	r25, 0xFF	; 255
    1a7c:	af 4f       	sbci	r26, 0xFF	; 255
    1a7e:	bf 4f       	sbci	r27, 0xFF	; 255
    1a80:	41 f4       	brne	.+16     	; 0x1a92 <vListInsert+0x54>
    1a82:	8f 81       	ldd	r24, Y+7	; 0x07
    1a84:	98 85       	ldd	r25, Y+8	; 0x08
    1a86:	fc 01       	movw	r30, r24
    1a88:	81 85       	ldd	r24, Z+9	; 0x09
    1a8a:	92 85       	ldd	r25, Z+10	; 0x0a
    1a8c:	9a 83       	std	Y+2, r25	; 0x02
    1a8e:	89 83       	std	Y+1, r24	; 0x01
    1a90:	20 c0       	rjmp	.+64     	; 0x1ad2 <vListInsert+0x94>
    1a92:	8f 81       	ldd	r24, Y+7	; 0x07
    1a94:	98 85       	ldd	r25, Y+8	; 0x08
    1a96:	03 96       	adiw	r24, 0x03	; 3
    1a98:	9a 83       	std	Y+2, r25	; 0x02
    1a9a:	89 83       	std	Y+1, r24	; 0x01
    1a9c:	07 c0       	rjmp	.+14     	; 0x1aac <vListInsert+0x6e>
    1a9e:	89 81       	ldd	r24, Y+1	; 0x01
    1aa0:	9a 81       	ldd	r25, Y+2	; 0x02
    1aa2:	fc 01       	movw	r30, r24
    1aa4:	84 81       	ldd	r24, Z+4	; 0x04
    1aa6:	95 81       	ldd	r25, Z+5	; 0x05
    1aa8:	9a 83       	std	Y+2, r25	; 0x02
    1aaa:	89 83       	std	Y+1, r24	; 0x01
    1aac:	89 81       	ldd	r24, Y+1	; 0x01
    1aae:	9a 81       	ldd	r25, Y+2	; 0x02
    1ab0:	fc 01       	movw	r30, r24
    1ab2:	84 81       	ldd	r24, Z+4	; 0x04
    1ab4:	95 81       	ldd	r25, Z+5	; 0x05
    1ab6:	fc 01       	movw	r30, r24
    1ab8:	20 81       	ld	r18, Z
    1aba:	31 81       	ldd	r19, Z+1	; 0x01
    1abc:	42 81       	ldd	r20, Z+2	; 0x02
    1abe:	53 81       	ldd	r21, Z+3	; 0x03
    1ac0:	8b 81       	ldd	r24, Y+3	; 0x03
    1ac2:	9c 81       	ldd	r25, Y+4	; 0x04
    1ac4:	ad 81       	ldd	r26, Y+5	; 0x05
    1ac6:	be 81       	ldd	r27, Y+6	; 0x06
    1ac8:	82 17       	cp	r24, r18
    1aca:	93 07       	cpc	r25, r19
    1acc:	a4 07       	cpc	r26, r20
    1ace:	b5 07       	cpc	r27, r21
    1ad0:	30 f7       	brcc	.-52     	; 0x1a9e <vListInsert+0x60>
    1ad2:	89 81       	ldd	r24, Y+1	; 0x01
    1ad4:	9a 81       	ldd	r25, Y+2	; 0x02
    1ad6:	fc 01       	movw	r30, r24
    1ad8:	24 81       	ldd	r18, Z+4	; 0x04
    1ada:	35 81       	ldd	r19, Z+5	; 0x05
    1adc:	89 85       	ldd	r24, Y+9	; 0x09
    1ade:	9a 85       	ldd	r25, Y+10	; 0x0a
    1ae0:	fc 01       	movw	r30, r24
    1ae2:	35 83       	std	Z+5, r19	; 0x05
    1ae4:	24 83       	std	Z+4, r18	; 0x04
    1ae6:	89 85       	ldd	r24, Y+9	; 0x09
    1ae8:	9a 85       	ldd	r25, Y+10	; 0x0a
    1aea:	fc 01       	movw	r30, r24
    1aec:	84 81       	ldd	r24, Z+4	; 0x04
    1aee:	95 81       	ldd	r25, Z+5	; 0x05
    1af0:	29 85       	ldd	r18, Y+9	; 0x09
    1af2:	3a 85       	ldd	r19, Y+10	; 0x0a
    1af4:	fc 01       	movw	r30, r24
    1af6:	37 83       	std	Z+7, r19	; 0x07
    1af8:	26 83       	std	Z+6, r18	; 0x06
    1afa:	89 85       	ldd	r24, Y+9	; 0x09
    1afc:	9a 85       	ldd	r25, Y+10	; 0x0a
    1afe:	29 81       	ldd	r18, Y+1	; 0x01
    1b00:	3a 81       	ldd	r19, Y+2	; 0x02
    1b02:	fc 01       	movw	r30, r24
    1b04:	37 83       	std	Z+7, r19	; 0x07
    1b06:	26 83       	std	Z+6, r18	; 0x06
    1b08:	89 81       	ldd	r24, Y+1	; 0x01
    1b0a:	9a 81       	ldd	r25, Y+2	; 0x02
    1b0c:	29 85       	ldd	r18, Y+9	; 0x09
    1b0e:	3a 85       	ldd	r19, Y+10	; 0x0a
    1b10:	fc 01       	movw	r30, r24
    1b12:	35 83       	std	Z+5, r19	; 0x05
    1b14:	24 83       	std	Z+4, r18	; 0x04
    1b16:	89 85       	ldd	r24, Y+9	; 0x09
    1b18:	9a 85       	ldd	r25, Y+10	; 0x0a
    1b1a:	2f 81       	ldd	r18, Y+7	; 0x07
    1b1c:	38 85       	ldd	r19, Y+8	; 0x08
    1b1e:	fc 01       	movw	r30, r24
    1b20:	33 87       	std	Z+11, r19	; 0x0b
    1b22:	22 87       	std	Z+10, r18	; 0x0a
    1b24:	8f 81       	ldd	r24, Y+7	; 0x07
    1b26:	98 85       	ldd	r25, Y+8	; 0x08
    1b28:	fc 01       	movw	r30, r24
    1b2a:	80 81       	ld	r24, Z
    1b2c:	21 e0       	ldi	r18, 0x01	; 1
    1b2e:	28 0f       	add	r18, r24
    1b30:	8f 81       	ldd	r24, Y+7	; 0x07
    1b32:	98 85       	ldd	r25, Y+8	; 0x08
    1b34:	fc 01       	movw	r30, r24
    1b36:	20 83       	st	Z, r18
    1b38:	00 00       	nop
    1b3a:	2a 96       	adiw	r28, 0x0a	; 10
    1b3c:	0f b6       	in	r0, 0x3f	; 63
    1b3e:	f8 94       	cli
    1b40:	de bf       	out	0x3e, r29	; 62
    1b42:	0f be       	out	0x3f, r0	; 63
    1b44:	cd bf       	out	0x3d, r28	; 61
    1b46:	df 91       	pop	r29
    1b48:	cf 91       	pop	r28
    1b4a:	08 95       	ret

00001b4c <uxListRemove>:
    1b4c:	cf 93       	push	r28
    1b4e:	df 93       	push	r29
    1b50:	00 d0       	rcall	.+0      	; 0x1b52 <uxListRemove+0x6>
    1b52:	1f 92       	push	r1
    1b54:	cd b7       	in	r28, 0x3d	; 61
    1b56:	de b7       	in	r29, 0x3e	; 62
    1b58:	9c 83       	std	Y+4, r25	; 0x04
    1b5a:	8b 83       	std	Y+3, r24	; 0x03
    1b5c:	8b 81       	ldd	r24, Y+3	; 0x03
    1b5e:	9c 81       	ldd	r25, Y+4	; 0x04
    1b60:	fc 01       	movw	r30, r24
    1b62:	82 85       	ldd	r24, Z+10	; 0x0a
    1b64:	93 85       	ldd	r25, Z+11	; 0x0b
    1b66:	9a 83       	std	Y+2, r25	; 0x02
    1b68:	89 83       	std	Y+1, r24	; 0x01
    1b6a:	8b 81       	ldd	r24, Y+3	; 0x03
    1b6c:	9c 81       	ldd	r25, Y+4	; 0x04
    1b6e:	fc 01       	movw	r30, r24
    1b70:	84 81       	ldd	r24, Z+4	; 0x04
    1b72:	95 81       	ldd	r25, Z+5	; 0x05
    1b74:	2b 81       	ldd	r18, Y+3	; 0x03
    1b76:	3c 81       	ldd	r19, Y+4	; 0x04
    1b78:	f9 01       	movw	r30, r18
    1b7a:	26 81       	ldd	r18, Z+6	; 0x06
    1b7c:	37 81       	ldd	r19, Z+7	; 0x07
    1b7e:	fc 01       	movw	r30, r24
    1b80:	37 83       	std	Z+7, r19	; 0x07
    1b82:	26 83       	std	Z+6, r18	; 0x06
    1b84:	8b 81       	ldd	r24, Y+3	; 0x03
    1b86:	9c 81       	ldd	r25, Y+4	; 0x04
    1b88:	fc 01       	movw	r30, r24
    1b8a:	86 81       	ldd	r24, Z+6	; 0x06
    1b8c:	97 81       	ldd	r25, Z+7	; 0x07
    1b8e:	2b 81       	ldd	r18, Y+3	; 0x03
    1b90:	3c 81       	ldd	r19, Y+4	; 0x04
    1b92:	f9 01       	movw	r30, r18
    1b94:	24 81       	ldd	r18, Z+4	; 0x04
    1b96:	35 81       	ldd	r19, Z+5	; 0x05
    1b98:	fc 01       	movw	r30, r24
    1b9a:	35 83       	std	Z+5, r19	; 0x05
    1b9c:	24 83       	std	Z+4, r18	; 0x04
    1b9e:	89 81       	ldd	r24, Y+1	; 0x01
    1ba0:	9a 81       	ldd	r25, Y+2	; 0x02
    1ba2:	fc 01       	movw	r30, r24
    1ba4:	21 81       	ldd	r18, Z+1	; 0x01
    1ba6:	32 81       	ldd	r19, Z+2	; 0x02
    1ba8:	8b 81       	ldd	r24, Y+3	; 0x03
    1baa:	9c 81       	ldd	r25, Y+4	; 0x04
    1bac:	28 17       	cp	r18, r24
    1bae:	39 07       	cpc	r19, r25
    1bb0:	51 f4       	brne	.+20     	; 0x1bc6 <uxListRemove+0x7a>
    1bb2:	8b 81       	ldd	r24, Y+3	; 0x03
    1bb4:	9c 81       	ldd	r25, Y+4	; 0x04
    1bb6:	fc 01       	movw	r30, r24
    1bb8:	26 81       	ldd	r18, Z+6	; 0x06
    1bba:	37 81       	ldd	r19, Z+7	; 0x07
    1bbc:	89 81       	ldd	r24, Y+1	; 0x01
    1bbe:	9a 81       	ldd	r25, Y+2	; 0x02
    1bc0:	fc 01       	movw	r30, r24
    1bc2:	32 83       	std	Z+2, r19	; 0x02
    1bc4:	21 83       	std	Z+1, r18	; 0x01
    1bc6:	8b 81       	ldd	r24, Y+3	; 0x03
    1bc8:	9c 81       	ldd	r25, Y+4	; 0x04
    1bca:	fc 01       	movw	r30, r24
    1bcc:	13 86       	std	Z+11, r1	; 0x0b
    1bce:	12 86       	std	Z+10, r1	; 0x0a
    1bd0:	89 81       	ldd	r24, Y+1	; 0x01
    1bd2:	9a 81       	ldd	r25, Y+2	; 0x02
    1bd4:	fc 01       	movw	r30, r24
    1bd6:	80 81       	ld	r24, Z
    1bd8:	2f ef       	ldi	r18, 0xFF	; 255
    1bda:	28 0f       	add	r18, r24
    1bdc:	89 81       	ldd	r24, Y+1	; 0x01
    1bde:	9a 81       	ldd	r25, Y+2	; 0x02
    1be0:	fc 01       	movw	r30, r24
    1be2:	20 83       	st	Z, r18
    1be4:	89 81       	ldd	r24, Y+1	; 0x01
    1be6:	9a 81       	ldd	r25, Y+2	; 0x02
    1be8:	fc 01       	movw	r30, r24
    1bea:	80 81       	ld	r24, Z
    1bec:	0f 90       	pop	r0
    1bee:	0f 90       	pop	r0
    1bf0:	0f 90       	pop	r0
    1bf2:	0f 90       	pop	r0
    1bf4:	df 91       	pop	r29
    1bf6:	cf 91       	pop	r28
    1bf8:	08 95       	ret

00001bfa <pxPortInitialiseStack>:
    1bfa:	cf 93       	push	r28
    1bfc:	df 93       	push	r29
    1bfe:	cd b7       	in	r28, 0x3d	; 61
    1c00:	de b7       	in	r29, 0x3e	; 62
    1c02:	28 97       	sbiw	r28, 0x08	; 8
    1c04:	0f b6       	in	r0, 0x3f	; 63
    1c06:	f8 94       	cli
    1c08:	de bf       	out	0x3e, r29	; 62
    1c0a:	0f be       	out	0x3f, r0	; 63
    1c0c:	cd bf       	out	0x3d, r28	; 61
    1c0e:	9c 83       	std	Y+4, r25	; 0x04
    1c10:	8b 83       	std	Y+3, r24	; 0x03
    1c12:	7e 83       	std	Y+6, r23	; 0x06
    1c14:	6d 83       	std	Y+5, r22	; 0x05
    1c16:	58 87       	std	Y+8, r21	; 0x08
    1c18:	4f 83       	std	Y+7, r20	; 0x07
    1c1a:	8d 81       	ldd	r24, Y+5	; 0x05
    1c1c:	9e 81       	ldd	r25, Y+6	; 0x06
    1c1e:	9a 83       	std	Y+2, r25	; 0x02
    1c20:	89 83       	std	Y+1, r24	; 0x01
    1c22:	29 81       	ldd	r18, Y+1	; 0x01
    1c24:	8b 81       	ldd	r24, Y+3	; 0x03
    1c26:	9c 81       	ldd	r25, Y+4	; 0x04
    1c28:	fc 01       	movw	r30, r24
    1c2a:	20 83       	st	Z, r18
    1c2c:	8b 81       	ldd	r24, Y+3	; 0x03
    1c2e:	9c 81       	ldd	r25, Y+4	; 0x04
    1c30:	01 97       	sbiw	r24, 0x01	; 1
    1c32:	9c 83       	std	Y+4, r25	; 0x04
    1c34:	8b 83       	std	Y+3, r24	; 0x03
    1c36:	89 81       	ldd	r24, Y+1	; 0x01
    1c38:	9a 81       	ldd	r25, Y+2	; 0x02
    1c3a:	89 2f       	mov	r24, r25
    1c3c:	99 27       	eor	r25, r25
    1c3e:	9a 83       	std	Y+2, r25	; 0x02
    1c40:	89 83       	std	Y+1, r24	; 0x01
    1c42:	29 81       	ldd	r18, Y+1	; 0x01
    1c44:	8b 81       	ldd	r24, Y+3	; 0x03
    1c46:	9c 81       	ldd	r25, Y+4	; 0x04
    1c48:	fc 01       	movw	r30, r24
    1c4a:	20 83       	st	Z, r18
    1c4c:	8b 81       	ldd	r24, Y+3	; 0x03
    1c4e:	9c 81       	ldd	r25, Y+4	; 0x04
    1c50:	01 97       	sbiw	r24, 0x01	; 1
    1c52:	9c 83       	std	Y+4, r25	; 0x04
    1c54:	8b 83       	std	Y+3, r24	; 0x03
    1c56:	8b 81       	ldd	r24, Y+3	; 0x03
    1c58:	9c 81       	ldd	r25, Y+4	; 0x04
    1c5a:	fc 01       	movw	r30, r24
    1c5c:	10 82       	st	Z, r1
    1c5e:	8b 81       	ldd	r24, Y+3	; 0x03
    1c60:	9c 81       	ldd	r25, Y+4	; 0x04
    1c62:	01 97       	sbiw	r24, 0x01	; 1
    1c64:	9c 83       	std	Y+4, r25	; 0x04
    1c66:	8b 83       	std	Y+3, r24	; 0x03
    1c68:	8b 81       	ldd	r24, Y+3	; 0x03
    1c6a:	9c 81       	ldd	r25, Y+4	; 0x04
    1c6c:	fc 01       	movw	r30, r24
    1c6e:	10 82       	st	Z, r1
    1c70:	8b 81       	ldd	r24, Y+3	; 0x03
    1c72:	9c 81       	ldd	r25, Y+4	; 0x04
    1c74:	01 97       	sbiw	r24, 0x01	; 1
    1c76:	9c 83       	std	Y+4, r25	; 0x04
    1c78:	8b 83       	std	Y+3, r24	; 0x03
    1c7a:	8b 81       	ldd	r24, Y+3	; 0x03
    1c7c:	9c 81       	ldd	r25, Y+4	; 0x04
    1c7e:	20 e8       	ldi	r18, 0x80	; 128
    1c80:	fc 01       	movw	r30, r24
    1c82:	20 83       	st	Z, r18
    1c84:	8b 81       	ldd	r24, Y+3	; 0x03
    1c86:	9c 81       	ldd	r25, Y+4	; 0x04
    1c88:	01 97       	sbiw	r24, 0x01	; 1
    1c8a:	9c 83       	std	Y+4, r25	; 0x04
    1c8c:	8b 83       	std	Y+3, r24	; 0x03
    1c8e:	8b 81       	ldd	r24, Y+3	; 0x03
    1c90:	9c 81       	ldd	r25, Y+4	; 0x04
    1c92:	fc 01       	movw	r30, r24
    1c94:	10 82       	st	Z, r1
    1c96:	8b 81       	ldd	r24, Y+3	; 0x03
    1c98:	9c 81       	ldd	r25, Y+4	; 0x04
    1c9a:	01 97       	sbiw	r24, 0x01	; 1
    1c9c:	9c 83       	std	Y+4, r25	; 0x04
    1c9e:	8b 83       	std	Y+3, r24	; 0x03
    1ca0:	8b 81       	ldd	r24, Y+3	; 0x03
    1ca2:	9c 81       	ldd	r25, Y+4	; 0x04
    1ca4:	fc 01       	movw	r30, r24
    1ca6:	10 82       	st	Z, r1
    1ca8:	8b 81       	ldd	r24, Y+3	; 0x03
    1caa:	9c 81       	ldd	r25, Y+4	; 0x04
    1cac:	01 97       	sbiw	r24, 0x01	; 1
    1cae:	9c 83       	std	Y+4, r25	; 0x04
    1cb0:	8b 83       	std	Y+3, r24	; 0x03
    1cb2:	8b 81       	ldd	r24, Y+3	; 0x03
    1cb4:	9c 81       	ldd	r25, Y+4	; 0x04
    1cb6:	fc 01       	movw	r30, r24
    1cb8:	10 82       	st	Z, r1
    1cba:	8b 81       	ldd	r24, Y+3	; 0x03
    1cbc:	9c 81       	ldd	r25, Y+4	; 0x04
    1cbe:	47 97       	sbiw	r24, 0x17	; 23
    1cc0:	9c 83       	std	Y+4, r25	; 0x04
    1cc2:	8b 83       	std	Y+3, r24	; 0x03
    1cc4:	8f 81       	ldd	r24, Y+7	; 0x07
    1cc6:	98 85       	ldd	r25, Y+8	; 0x08
    1cc8:	9a 83       	std	Y+2, r25	; 0x02
    1cca:	89 83       	std	Y+1, r24	; 0x01
    1ccc:	29 81       	ldd	r18, Y+1	; 0x01
    1cce:	8b 81       	ldd	r24, Y+3	; 0x03
    1cd0:	9c 81       	ldd	r25, Y+4	; 0x04
    1cd2:	fc 01       	movw	r30, r24
    1cd4:	20 83       	st	Z, r18
    1cd6:	8b 81       	ldd	r24, Y+3	; 0x03
    1cd8:	9c 81       	ldd	r25, Y+4	; 0x04
    1cda:	01 97       	sbiw	r24, 0x01	; 1
    1cdc:	9c 83       	std	Y+4, r25	; 0x04
    1cde:	8b 83       	std	Y+3, r24	; 0x03
    1ce0:	89 81       	ldd	r24, Y+1	; 0x01
    1ce2:	9a 81       	ldd	r25, Y+2	; 0x02
    1ce4:	89 2f       	mov	r24, r25
    1ce6:	99 27       	eor	r25, r25
    1ce8:	9a 83       	std	Y+2, r25	; 0x02
    1cea:	89 83       	std	Y+1, r24	; 0x01
    1cec:	29 81       	ldd	r18, Y+1	; 0x01
    1cee:	8b 81       	ldd	r24, Y+3	; 0x03
    1cf0:	9c 81       	ldd	r25, Y+4	; 0x04
    1cf2:	fc 01       	movw	r30, r24
    1cf4:	20 83       	st	Z, r18
    1cf6:	8b 81       	ldd	r24, Y+3	; 0x03
    1cf8:	9c 81       	ldd	r25, Y+4	; 0x04
    1cfa:	07 97       	sbiw	r24, 0x07	; 7
    1cfc:	9c 83       	std	Y+4, r25	; 0x04
    1cfe:	8b 83       	std	Y+3, r24	; 0x03
    1d00:	8b 81       	ldd	r24, Y+3	; 0x03
    1d02:	9c 81       	ldd	r25, Y+4	; 0x04
    1d04:	28 96       	adiw	r28, 0x08	; 8
    1d06:	0f b6       	in	r0, 0x3f	; 63
    1d08:	f8 94       	cli
    1d0a:	de bf       	out	0x3e, r29	; 62
    1d0c:	0f be       	out	0x3f, r0	; 63
    1d0e:	cd bf       	out	0x3d, r28	; 61
    1d10:	df 91       	pop	r29
    1d12:	cf 91       	pop	r28
    1d14:	08 95       	ret

00001d16 <xPortStartScheduler>:
    1d16:	cf 93       	push	r28
    1d18:	df 93       	push	r29
    1d1a:	cd b7       	in	r28, 0x3d	; 61
    1d1c:	de b7       	in	r29, 0x3e	; 62
    1d1e:	ff d0       	rcall	.+510    	; 0x1f1e <prvSetupTimerInterrupt>
    1d20:	a0 91 1c 17 	lds	r26, 0x171C	; 0x80171c <pxCurrentTCB>
    1d24:	b0 91 1d 17 	lds	r27, 0x171D	; 0x80171d <pxCurrentTCB+0x1>
    1d28:	cd 91       	ld	r28, X+
    1d2a:	cd bf       	out	0x3d, r28	; 61
    1d2c:	dd 91       	ld	r29, X+
    1d2e:	de bf       	out	0x3e, r29	; 62
    1d30:	ff 91       	pop	r31
    1d32:	ef 91       	pop	r30
    1d34:	df 91       	pop	r29
    1d36:	cf 91       	pop	r28
    1d38:	bf 91       	pop	r27
    1d3a:	af 91       	pop	r26
    1d3c:	9f 91       	pop	r25
    1d3e:	8f 91       	pop	r24
    1d40:	7f 91       	pop	r23
    1d42:	6f 91       	pop	r22
    1d44:	5f 91       	pop	r21
    1d46:	4f 91       	pop	r20
    1d48:	3f 91       	pop	r19
    1d4a:	2f 91       	pop	r18
    1d4c:	1f 91       	pop	r17
    1d4e:	0f 91       	pop	r16
    1d50:	ff 90       	pop	r15
    1d52:	ef 90       	pop	r14
    1d54:	df 90       	pop	r13
    1d56:	cf 90       	pop	r12
    1d58:	bf 90       	pop	r11
    1d5a:	af 90       	pop	r10
    1d5c:	9f 90       	pop	r9
    1d5e:	8f 90       	pop	r8
    1d60:	7f 90       	pop	r7
    1d62:	6f 90       	pop	r6
    1d64:	5f 90       	pop	r5
    1d66:	4f 90       	pop	r4
    1d68:	3f 90       	pop	r3
    1d6a:	2f 90       	pop	r2
    1d6c:	1f 90       	pop	r1
    1d6e:	0f 90       	pop	r0
    1d70:	0c be       	out	0x3c, r0	; 60
    1d72:	0f 90       	pop	r0
    1d74:	0b be       	out	0x3b, r0	; 59
    1d76:	0f 90       	pop	r0
    1d78:	0f be       	out	0x3f, r0	; 63
    1d7a:	0f 90       	pop	r0
    1d7c:	08 95       	ret
    1d7e:	81 e0       	ldi	r24, 0x01	; 1
    1d80:	df 91       	pop	r29
    1d82:	cf 91       	pop	r28
    1d84:	08 95       	ret

00001d86 <vPortYield>:
    1d86:	0f 92       	push	r0
    1d88:	0f b6       	in	r0, 0x3f	; 63
    1d8a:	f8 94       	cli
    1d8c:	0f 92       	push	r0
    1d8e:	0b b6       	in	r0, 0x3b	; 59
    1d90:	0f 92       	push	r0
    1d92:	0c b6       	in	r0, 0x3c	; 60
    1d94:	0f 92       	push	r0
    1d96:	1f 92       	push	r1
    1d98:	11 24       	eor	r1, r1
    1d9a:	2f 92       	push	r2
    1d9c:	3f 92       	push	r3
    1d9e:	4f 92       	push	r4
    1da0:	5f 92       	push	r5
    1da2:	6f 92       	push	r6
    1da4:	7f 92       	push	r7
    1da6:	8f 92       	push	r8
    1da8:	9f 92       	push	r9
    1daa:	af 92       	push	r10
    1dac:	bf 92       	push	r11
    1dae:	cf 92       	push	r12
    1db0:	df 92       	push	r13
    1db2:	ef 92       	push	r14
    1db4:	ff 92       	push	r15
    1db6:	0f 93       	push	r16
    1db8:	1f 93       	push	r17
    1dba:	2f 93       	push	r18
    1dbc:	3f 93       	push	r19
    1dbe:	4f 93       	push	r20
    1dc0:	5f 93       	push	r21
    1dc2:	6f 93       	push	r22
    1dc4:	7f 93       	push	r23
    1dc6:	8f 93       	push	r24
    1dc8:	9f 93       	push	r25
    1dca:	af 93       	push	r26
    1dcc:	bf 93       	push	r27
    1dce:	cf 93       	push	r28
    1dd0:	df 93       	push	r29
    1dd2:	ef 93       	push	r30
    1dd4:	ff 93       	push	r31
    1dd6:	a0 91 1c 17 	lds	r26, 0x171C	; 0x80171c <pxCurrentTCB>
    1dda:	b0 91 1d 17 	lds	r27, 0x171D	; 0x80171d <pxCurrentTCB+0x1>
    1dde:	0d b6       	in	r0, 0x3d	; 61
    1de0:	0d 92       	st	X+, r0
    1de2:	0e b6       	in	r0, 0x3e	; 62
    1de4:	0d 92       	st	X+, r0
    1de6:	0e 94 cd 22 	call	0x459a	; 0x459a <vTaskSwitchContext>
    1dea:	a0 91 1c 17 	lds	r26, 0x171C	; 0x80171c <pxCurrentTCB>
    1dee:	b0 91 1d 17 	lds	r27, 0x171D	; 0x80171d <pxCurrentTCB+0x1>
    1df2:	cd 91       	ld	r28, X+
    1df4:	cd bf       	out	0x3d, r28	; 61
    1df6:	dd 91       	ld	r29, X+
    1df8:	de bf       	out	0x3e, r29	; 62
    1dfa:	ff 91       	pop	r31
    1dfc:	ef 91       	pop	r30
    1dfe:	df 91       	pop	r29
    1e00:	cf 91       	pop	r28
    1e02:	bf 91       	pop	r27
    1e04:	af 91       	pop	r26
    1e06:	9f 91       	pop	r25
    1e08:	8f 91       	pop	r24
    1e0a:	7f 91       	pop	r23
    1e0c:	6f 91       	pop	r22
    1e0e:	5f 91       	pop	r21
    1e10:	4f 91       	pop	r20
    1e12:	3f 91       	pop	r19
    1e14:	2f 91       	pop	r18
    1e16:	1f 91       	pop	r17
    1e18:	0f 91       	pop	r16
    1e1a:	ff 90       	pop	r15
    1e1c:	ef 90       	pop	r14
    1e1e:	df 90       	pop	r13
    1e20:	cf 90       	pop	r12
    1e22:	bf 90       	pop	r11
    1e24:	af 90       	pop	r10
    1e26:	9f 90       	pop	r9
    1e28:	8f 90       	pop	r8
    1e2a:	7f 90       	pop	r7
    1e2c:	6f 90       	pop	r6
    1e2e:	5f 90       	pop	r5
    1e30:	4f 90       	pop	r4
    1e32:	3f 90       	pop	r3
    1e34:	2f 90       	pop	r2
    1e36:	1f 90       	pop	r1
    1e38:	0f 90       	pop	r0
    1e3a:	0c be       	out	0x3c, r0	; 60
    1e3c:	0f 90       	pop	r0
    1e3e:	0b be       	out	0x3b, r0	; 59
    1e40:	0f 90       	pop	r0
    1e42:	0f be       	out	0x3f, r0	; 63
    1e44:	0f 90       	pop	r0
    1e46:	08 95       	ret
	...

00001e4a <vPortYieldFromTick>:
    1e4a:	0f 92       	push	r0
    1e4c:	0f b6       	in	r0, 0x3f	; 63
    1e4e:	f8 94       	cli
    1e50:	0f 92       	push	r0
    1e52:	0b b6       	in	r0, 0x3b	; 59
    1e54:	0f 92       	push	r0
    1e56:	0c b6       	in	r0, 0x3c	; 60
    1e58:	0f 92       	push	r0
    1e5a:	1f 92       	push	r1
    1e5c:	11 24       	eor	r1, r1
    1e5e:	2f 92       	push	r2
    1e60:	3f 92       	push	r3
    1e62:	4f 92       	push	r4
    1e64:	5f 92       	push	r5
    1e66:	6f 92       	push	r6
    1e68:	7f 92       	push	r7
    1e6a:	8f 92       	push	r8
    1e6c:	9f 92       	push	r9
    1e6e:	af 92       	push	r10
    1e70:	bf 92       	push	r11
    1e72:	cf 92       	push	r12
    1e74:	df 92       	push	r13
    1e76:	ef 92       	push	r14
    1e78:	ff 92       	push	r15
    1e7a:	0f 93       	push	r16
    1e7c:	1f 93       	push	r17
    1e7e:	2f 93       	push	r18
    1e80:	3f 93       	push	r19
    1e82:	4f 93       	push	r20
    1e84:	5f 93       	push	r21
    1e86:	6f 93       	push	r22
    1e88:	7f 93       	push	r23
    1e8a:	8f 93       	push	r24
    1e8c:	9f 93       	push	r25
    1e8e:	af 93       	push	r26
    1e90:	bf 93       	push	r27
    1e92:	cf 93       	push	r28
    1e94:	df 93       	push	r29
    1e96:	ef 93       	push	r30
    1e98:	ff 93       	push	r31
    1e9a:	a0 91 1c 17 	lds	r26, 0x171C	; 0x80171c <pxCurrentTCB>
    1e9e:	b0 91 1d 17 	lds	r27, 0x171D	; 0x80171d <pxCurrentTCB+0x1>
    1ea2:	0d b6       	in	r0, 0x3d	; 61
    1ea4:	0d 92       	st	X+, r0
    1ea6:	0e b6       	in	r0, 0x3e	; 62
    1ea8:	0d 92       	st	X+, r0
    1eaa:	83 e5       	ldi	r24, 0x53	; 83
    1eac:	90 e0       	ldi	r25, 0x00	; 0
    1eae:	fc 01       	movw	r30, r24
    1eb0:	10 82       	st	Z, r1
    1eb2:	0e 94 d4 20 	call	0x41a8	; 0x41a8 <xTaskIncrementTick>
    1eb6:	88 23       	and	r24, r24
    1eb8:	11 f0       	breq	.+4      	; 0x1ebe <vPortYieldFromTick+0x74>
    1eba:	0e 94 cd 22 	call	0x459a	; 0x459a <vTaskSwitchContext>
    1ebe:	a0 91 1c 17 	lds	r26, 0x171C	; 0x80171c <pxCurrentTCB>
    1ec2:	b0 91 1d 17 	lds	r27, 0x171D	; 0x80171d <pxCurrentTCB+0x1>
    1ec6:	cd 91       	ld	r28, X+
    1ec8:	cd bf       	out	0x3d, r28	; 61
    1eca:	dd 91       	ld	r29, X+
    1ecc:	de bf       	out	0x3e, r29	; 62
    1ece:	ff 91       	pop	r31
    1ed0:	ef 91       	pop	r30
    1ed2:	df 91       	pop	r29
    1ed4:	cf 91       	pop	r28
    1ed6:	bf 91       	pop	r27
    1ed8:	af 91       	pop	r26
    1eda:	9f 91       	pop	r25
    1edc:	8f 91       	pop	r24
    1ede:	7f 91       	pop	r23
    1ee0:	6f 91       	pop	r22
    1ee2:	5f 91       	pop	r21
    1ee4:	4f 91       	pop	r20
    1ee6:	3f 91       	pop	r19
    1ee8:	2f 91       	pop	r18
    1eea:	1f 91       	pop	r17
    1eec:	0f 91       	pop	r16
    1eee:	ff 90       	pop	r15
    1ef0:	ef 90       	pop	r14
    1ef2:	df 90       	pop	r13
    1ef4:	cf 90       	pop	r12
    1ef6:	bf 90       	pop	r11
    1ef8:	af 90       	pop	r10
    1efa:	9f 90       	pop	r9
    1efc:	8f 90       	pop	r8
    1efe:	7f 90       	pop	r7
    1f00:	6f 90       	pop	r6
    1f02:	5f 90       	pop	r5
    1f04:	4f 90       	pop	r4
    1f06:	3f 90       	pop	r3
    1f08:	2f 90       	pop	r2
    1f0a:	1f 90       	pop	r1
    1f0c:	0f 90       	pop	r0
    1f0e:	0c be       	out	0x3c, r0	; 60
    1f10:	0f 90       	pop	r0
    1f12:	0b be       	out	0x3b, r0	; 59
    1f14:	0f 90       	pop	r0
    1f16:	0f be       	out	0x3f, r0	; 63
    1f18:	0f 90       	pop	r0
    1f1a:	08 95       	ret
	...

00001f1e <prvSetupTimerInterrupt>:
    1f1e:	cf 93       	push	r28
    1f20:	df 93       	push	r29
    1f22:	cd b7       	in	r28, 0x3d	; 61
    1f24:	de b7       	in	r29, 0x3e	; 62
    1f26:	a8 95       	wdr
    1f28:	80 e0       	ldi	r24, 0x00	; 0
    1f2a:	90 e0       	ldi	r25, 0x00	; 0
    1f2c:	88 70       	andi	r24, 0x08	; 8
    1f2e:	99 27       	eor	r25, r25
    1f30:	89 2b       	or	r24, r25
    1f32:	11 f0       	breq	.+4      	; 0x1f38 <prvSetupTimerInterrupt+0x1a>
    1f34:	80 ee       	ldi	r24, 0xE0	; 224
    1f36:	01 c0       	rjmp	.+2      	; 0x1f3a <prvSetupTimerInterrupt+0x1c>
    1f38:	80 ec       	ldi	r24, 0xC0	; 192
    1f3a:	90 e0       	ldi	r25, 0x00	; 0
    1f3c:	97 70       	andi	r25, 0x07	; 7
    1f3e:	89 2b       	or	r24, r25
    1f40:	98 2f       	mov	r25, r24
    1f42:	88 e1       	ldi	r24, 0x18	; 24
    1f44:	0f b6       	in	r0, 0x3f	; 63
    1f46:	f8 94       	cli
    1f48:	a8 95       	wdr
    1f4a:	80 93 60 00 	sts	0x0060, r24	; 0x800060 <__TEXT_REGION_LENGTH__+0x7c0060>
    1f4e:	0f be       	out	0x3f, r0	; 63
    1f50:	90 93 60 00 	sts	0x0060, r25	; 0x800060 <__TEXT_REGION_LENGTH__+0x7c0060>
    1f54:	00 00       	nop
    1f56:	df 91       	pop	r29
    1f58:	cf 91       	pop	r28
    1f5a:	08 95       	ret

00001f5c <__vector_12>:
    1f5c:	76 df       	rcall	.-276    	; 0x1e4a <vPortYieldFromTick>
    1f5e:	18 95       	reti
	...

00001f62 <xQueueGenericReset>:
    1f62:	cf 93       	push	r28
    1f64:	df 93       	push	r29
    1f66:	00 d0       	rcall	.+0      	; 0x1f68 <xQueueGenericReset+0x6>
    1f68:	1f 92       	push	r1
    1f6a:	1f 92       	push	r1
    1f6c:	cd b7       	in	r28, 0x3d	; 61
    1f6e:	de b7       	in	r29, 0x3e	; 62
    1f70:	9c 83       	std	Y+4, r25	; 0x04
    1f72:	8b 83       	std	Y+3, r24	; 0x03
    1f74:	6d 83       	std	Y+5, r22	; 0x05
    1f76:	8b 81       	ldd	r24, Y+3	; 0x03
    1f78:	9c 81       	ldd	r25, Y+4	; 0x04
    1f7a:	9a 83       	std	Y+2, r25	; 0x02
    1f7c:	89 83       	std	Y+1, r24	; 0x01
    1f7e:	0f b6       	in	r0, 0x3f	; 63
    1f80:	f8 94       	cli
    1f82:	0f 92       	push	r0
    1f84:	89 81       	ldd	r24, Y+1	; 0x01
    1f86:	9a 81       	ldd	r25, Y+2	; 0x02
    1f88:	fc 01       	movw	r30, r24
    1f8a:	80 81       	ld	r24, Z
    1f8c:	91 81       	ldd	r25, Z+1	; 0x01
    1f8e:	29 81       	ldd	r18, Y+1	; 0x01
    1f90:	3a 81       	ldd	r19, Y+2	; 0x02
    1f92:	f9 01       	movw	r30, r18
    1f94:	27 8d       	ldd	r18, Z+31	; 0x1f
    1f96:	42 2f       	mov	r20, r18
    1f98:	50 e0       	ldi	r21, 0x00	; 0
    1f9a:	29 81       	ldd	r18, Y+1	; 0x01
    1f9c:	3a 81       	ldd	r19, Y+2	; 0x02
    1f9e:	f9 01       	movw	r30, r18
    1fa0:	20 a1       	ldd	r18, Z+32	; 0x20
    1fa2:	22 2f       	mov	r18, r18
    1fa4:	30 e0       	ldi	r19, 0x00	; 0
    1fa6:	42 9f       	mul	r20, r18
    1fa8:	b0 01       	movw	r22, r0
    1faa:	43 9f       	mul	r20, r19
    1fac:	70 0d       	add	r23, r0
    1fae:	52 9f       	mul	r21, r18
    1fb0:	70 0d       	add	r23, r0
    1fb2:	11 24       	eor	r1, r1
    1fb4:	9b 01       	movw	r18, r22
    1fb6:	28 0f       	add	r18, r24
    1fb8:	39 1f       	adc	r19, r25
    1fba:	89 81       	ldd	r24, Y+1	; 0x01
    1fbc:	9a 81       	ldd	r25, Y+2	; 0x02
    1fbe:	fc 01       	movw	r30, r24
    1fc0:	35 83       	std	Z+5, r19	; 0x05
    1fc2:	24 83       	std	Z+4, r18	; 0x04
    1fc4:	89 81       	ldd	r24, Y+1	; 0x01
    1fc6:	9a 81       	ldd	r25, Y+2	; 0x02
    1fc8:	fc 01       	movw	r30, r24
    1fca:	16 8e       	std	Z+30, r1	; 0x1e
    1fcc:	89 81       	ldd	r24, Y+1	; 0x01
    1fce:	9a 81       	ldd	r25, Y+2	; 0x02
    1fd0:	fc 01       	movw	r30, r24
    1fd2:	20 81       	ld	r18, Z
    1fd4:	31 81       	ldd	r19, Z+1	; 0x01
    1fd6:	89 81       	ldd	r24, Y+1	; 0x01
    1fd8:	9a 81       	ldd	r25, Y+2	; 0x02
    1fda:	fc 01       	movw	r30, r24
    1fdc:	33 83       	std	Z+3, r19	; 0x03
    1fde:	22 83       	std	Z+2, r18	; 0x02
    1fe0:	89 81       	ldd	r24, Y+1	; 0x01
    1fe2:	9a 81       	ldd	r25, Y+2	; 0x02
    1fe4:	fc 01       	movw	r30, r24
    1fe6:	20 81       	ld	r18, Z
    1fe8:	31 81       	ldd	r19, Z+1	; 0x01
    1fea:	89 81       	ldd	r24, Y+1	; 0x01
    1fec:	9a 81       	ldd	r25, Y+2	; 0x02
    1fee:	fc 01       	movw	r30, r24
    1ff0:	87 8d       	ldd	r24, Z+31	; 0x1f
    1ff2:	88 2f       	mov	r24, r24
    1ff4:	90 e0       	ldi	r25, 0x00	; 0
    1ff6:	bc 01       	movw	r22, r24
    1ff8:	61 50       	subi	r22, 0x01	; 1
    1ffa:	71 09       	sbc	r23, r1
    1ffc:	89 81       	ldd	r24, Y+1	; 0x01
    1ffe:	9a 81       	ldd	r25, Y+2	; 0x02
    2000:	fc 01       	movw	r30, r24
    2002:	80 a1       	ldd	r24, Z+32	; 0x20
    2004:	48 2f       	mov	r20, r24
    2006:	50 e0       	ldi	r21, 0x00	; 0
    2008:	64 9f       	mul	r22, r20
    200a:	c0 01       	movw	r24, r0
    200c:	65 9f       	mul	r22, r21
    200e:	90 0d       	add	r25, r0
    2010:	74 9f       	mul	r23, r20
    2012:	90 0d       	add	r25, r0
    2014:	11 24       	eor	r1, r1
    2016:	28 0f       	add	r18, r24
    2018:	39 1f       	adc	r19, r25
    201a:	89 81       	ldd	r24, Y+1	; 0x01
    201c:	9a 81       	ldd	r25, Y+2	; 0x02
    201e:	fc 01       	movw	r30, r24
    2020:	37 83       	std	Z+7, r19	; 0x07
    2022:	26 83       	std	Z+6, r18	; 0x06
    2024:	89 81       	ldd	r24, Y+1	; 0x01
    2026:	9a 81       	ldd	r25, Y+2	; 0x02
    2028:	2f ef       	ldi	r18, 0xFF	; 255
    202a:	fc 01       	movw	r30, r24
    202c:	21 a3       	std	Z+33, r18	; 0x21
    202e:	89 81       	ldd	r24, Y+1	; 0x01
    2030:	9a 81       	ldd	r25, Y+2	; 0x02
    2032:	2f ef       	ldi	r18, 0xFF	; 255
    2034:	fc 01       	movw	r30, r24
    2036:	22 a3       	std	Z+34, r18	; 0x22
    2038:	8d 81       	ldd	r24, Y+5	; 0x05
    203a:	88 23       	and	r24, r24
    203c:	79 f4       	brne	.+30     	; 0x205c <__DATA_REGION_LENGTH__+0x5c>
    203e:	89 81       	ldd	r24, Y+1	; 0x01
    2040:	9a 81       	ldd	r25, Y+2	; 0x02
    2042:	fc 01       	movw	r30, r24
    2044:	80 85       	ldd	r24, Z+8	; 0x08
    2046:	88 23       	and	r24, r24
    2048:	89 f0       	breq	.+34     	; 0x206c <__DATA_REGION_LENGTH__+0x6c>
    204a:	89 81       	ldd	r24, Y+1	; 0x01
    204c:	9a 81       	ldd	r25, Y+2	; 0x02
    204e:	08 96       	adiw	r24, 0x08	; 8
    2050:	0e 94 7d 24 	call	0x48fa	; 0x48fa <xTaskRemoveFromEventList>
    2054:	88 23       	and	r24, r24
    2056:	51 f0       	breq	.+20     	; 0x206c <__DATA_REGION_LENGTH__+0x6c>
    2058:	96 de       	rcall	.-724    	; 0x1d86 <vPortYield>
    205a:	08 c0       	rjmp	.+16     	; 0x206c <__DATA_REGION_LENGTH__+0x6c>
    205c:	89 81       	ldd	r24, Y+1	; 0x01
    205e:	9a 81       	ldd	r25, Y+2	; 0x02
    2060:	08 96       	adiw	r24, 0x08	; 8
    2062:	a0 dc       	rcall	.-1728   	; 0x19a4 <vListInitialise>
    2064:	89 81       	ldd	r24, Y+1	; 0x01
    2066:	9a 81       	ldd	r25, Y+2	; 0x02
    2068:	43 96       	adiw	r24, 0x13	; 19
    206a:	9c dc       	rcall	.-1736   	; 0x19a4 <vListInitialise>
    206c:	0f 90       	pop	r0
    206e:	0f be       	out	0x3f, r0	; 63
    2070:	81 e0       	ldi	r24, 0x01	; 1
    2072:	0f 90       	pop	r0
    2074:	0f 90       	pop	r0
    2076:	0f 90       	pop	r0
    2078:	0f 90       	pop	r0
    207a:	0f 90       	pop	r0
    207c:	df 91       	pop	r29
    207e:	cf 91       	pop	r28
    2080:	08 95       	ret

00002082 <xQueueGenericCreate>:
    2082:	0f 93       	push	r16
    2084:	1f 93       	push	r17
    2086:	cf 93       	push	r28
    2088:	df 93       	push	r29
    208a:	cd b7       	in	r28, 0x3d	; 61
    208c:	de b7       	in	r29, 0x3e	; 62
    208e:	29 97       	sbiw	r28, 0x09	; 9
    2090:	0f b6       	in	r0, 0x3f	; 63
    2092:	f8 94       	cli
    2094:	de bf       	out	0x3e, r29	; 62
    2096:	0f be       	out	0x3f, r0	; 63
    2098:	cd bf       	out	0x3d, r28	; 61
    209a:	8f 83       	std	Y+7, r24	; 0x07
    209c:	68 87       	std	Y+8, r22	; 0x08
    209e:	49 87       	std	Y+9, r20	; 0x09
    20a0:	8f 81       	ldd	r24, Y+7	; 0x07
    20a2:	48 2f       	mov	r20, r24
    20a4:	50 e0       	ldi	r21, 0x00	; 0
    20a6:	88 85       	ldd	r24, Y+8	; 0x08
    20a8:	28 2f       	mov	r18, r24
    20aa:	30 e0       	ldi	r19, 0x00	; 0
    20ac:	42 9f       	mul	r20, r18
    20ae:	c0 01       	movw	r24, r0
    20b0:	43 9f       	mul	r20, r19
    20b2:	90 0d       	add	r25, r0
    20b4:	52 9f       	mul	r21, r18
    20b6:	90 0d       	add	r25, r0
    20b8:	11 24       	eor	r1, r1
    20ba:	9a 83       	std	Y+2, r25	; 0x02
    20bc:	89 83       	std	Y+1, r24	; 0x01
    20be:	89 81       	ldd	r24, Y+1	; 0x01
    20c0:	9a 81       	ldd	r25, Y+2	; 0x02
    20c2:	83 96       	adiw	r24, 0x23	; 35
    20c4:	b6 d9       	rcall	.-3220   	; 0x1432 <pvPortMalloc>
    20c6:	9c 83       	std	Y+4, r25	; 0x04
    20c8:	8b 83       	std	Y+3, r24	; 0x03
    20ca:	8b 81       	ldd	r24, Y+3	; 0x03
    20cc:	9c 81       	ldd	r25, Y+4	; 0x04
    20ce:	89 2b       	or	r24, r25
    20d0:	99 f0       	breq	.+38     	; 0x20f8 <xQueueGenericCreate+0x76>
    20d2:	8b 81       	ldd	r24, Y+3	; 0x03
    20d4:	9c 81       	ldd	r25, Y+4	; 0x04
    20d6:	9e 83       	std	Y+6, r25	; 0x06
    20d8:	8d 83       	std	Y+5, r24	; 0x05
    20da:	8d 81       	ldd	r24, Y+5	; 0x05
    20dc:	9e 81       	ldd	r25, Y+6	; 0x06
    20de:	83 96       	adiw	r24, 0x23	; 35
    20e0:	9e 83       	std	Y+6, r25	; 0x06
    20e2:	8d 83       	std	Y+5, r24	; 0x05
    20e4:	2b 81       	ldd	r18, Y+3	; 0x03
    20e6:	3c 81       	ldd	r19, Y+4	; 0x04
    20e8:	8d 81       	ldd	r24, Y+5	; 0x05
    20ea:	9e 81       	ldd	r25, Y+6	; 0x06
    20ec:	89 01       	movw	r16, r18
    20ee:	29 85       	ldd	r18, Y+9	; 0x09
    20f0:	ac 01       	movw	r20, r24
    20f2:	68 85       	ldd	r22, Y+8	; 0x08
    20f4:	8f 81       	ldd	r24, Y+7	; 0x07
    20f6:	0d d0       	rcall	.+26     	; 0x2112 <prvInitialiseNewQueue>
    20f8:	8b 81       	ldd	r24, Y+3	; 0x03
    20fa:	9c 81       	ldd	r25, Y+4	; 0x04
    20fc:	29 96       	adiw	r28, 0x09	; 9
    20fe:	0f b6       	in	r0, 0x3f	; 63
    2100:	f8 94       	cli
    2102:	de bf       	out	0x3e, r29	; 62
    2104:	0f be       	out	0x3f, r0	; 63
    2106:	cd bf       	out	0x3d, r28	; 61
    2108:	df 91       	pop	r29
    210a:	cf 91       	pop	r28
    210c:	1f 91       	pop	r17
    210e:	0f 91       	pop	r16
    2110:	08 95       	ret

00002112 <prvInitialiseNewQueue>:
    2112:	0f 93       	push	r16
    2114:	1f 93       	push	r17
    2116:	cf 93       	push	r28
    2118:	df 93       	push	r29
    211a:	cd b7       	in	r28, 0x3d	; 61
    211c:	de b7       	in	r29, 0x3e	; 62
    211e:	27 97       	sbiw	r28, 0x07	; 7
    2120:	0f b6       	in	r0, 0x3f	; 63
    2122:	f8 94       	cli
    2124:	de bf       	out	0x3e, r29	; 62
    2126:	0f be       	out	0x3f, r0	; 63
    2128:	cd bf       	out	0x3d, r28	; 61
    212a:	89 83       	std	Y+1, r24	; 0x01
    212c:	6a 83       	std	Y+2, r22	; 0x02
    212e:	5c 83       	std	Y+4, r21	; 0x04
    2130:	4b 83       	std	Y+3, r20	; 0x03
    2132:	2d 83       	std	Y+5, r18	; 0x05
    2134:	1f 83       	std	Y+7, r17	; 0x07
    2136:	0e 83       	std	Y+6, r16	; 0x06
    2138:	8a 81       	ldd	r24, Y+2	; 0x02
    213a:	88 23       	and	r24, r24
    213c:	41 f4       	brne	.+16     	; 0x214e <prvInitialiseNewQueue+0x3c>
    213e:	8e 81       	ldd	r24, Y+6	; 0x06
    2140:	9f 81       	ldd	r25, Y+7	; 0x07
    2142:	2e 81       	ldd	r18, Y+6	; 0x06
    2144:	3f 81       	ldd	r19, Y+7	; 0x07
    2146:	fc 01       	movw	r30, r24
    2148:	31 83       	std	Z+1, r19	; 0x01
    214a:	20 83       	st	Z, r18
    214c:	07 c0       	rjmp	.+14     	; 0x215c <prvInitialiseNewQueue+0x4a>
    214e:	8e 81       	ldd	r24, Y+6	; 0x06
    2150:	9f 81       	ldd	r25, Y+7	; 0x07
    2152:	2b 81       	ldd	r18, Y+3	; 0x03
    2154:	3c 81       	ldd	r19, Y+4	; 0x04
    2156:	fc 01       	movw	r30, r24
    2158:	31 83       	std	Z+1, r19	; 0x01
    215a:	20 83       	st	Z, r18
    215c:	8e 81       	ldd	r24, Y+6	; 0x06
    215e:	9f 81       	ldd	r25, Y+7	; 0x07
    2160:	29 81       	ldd	r18, Y+1	; 0x01
    2162:	fc 01       	movw	r30, r24
    2164:	27 8f       	std	Z+31, r18	; 0x1f
    2166:	8e 81       	ldd	r24, Y+6	; 0x06
    2168:	9f 81       	ldd	r25, Y+7	; 0x07
    216a:	2a 81       	ldd	r18, Y+2	; 0x02
    216c:	fc 01       	movw	r30, r24
    216e:	20 a3       	std	Z+32, r18	; 0x20
    2170:	8e 81       	ldd	r24, Y+6	; 0x06
    2172:	9f 81       	ldd	r25, Y+7	; 0x07
    2174:	61 e0       	ldi	r22, 0x01	; 1
    2176:	f5 de       	rcall	.-534    	; 0x1f62 <xQueueGenericReset>
    2178:	00 00       	nop
    217a:	27 96       	adiw	r28, 0x07	; 7
    217c:	0f b6       	in	r0, 0x3f	; 63
    217e:	f8 94       	cli
    2180:	de bf       	out	0x3e, r29	; 62
    2182:	0f be       	out	0x3f, r0	; 63
    2184:	cd bf       	out	0x3d, r28	; 61
    2186:	df 91       	pop	r29
    2188:	cf 91       	pop	r28
    218a:	1f 91       	pop	r17
    218c:	0f 91       	pop	r16
    218e:	08 95       	ret

00002190 <prvInitialiseMutex>:
    2190:	0f 93       	push	r16
    2192:	cf 93       	push	r28
    2194:	df 93       	push	r29
    2196:	1f 92       	push	r1
    2198:	1f 92       	push	r1
    219a:	cd b7       	in	r28, 0x3d	; 61
    219c:	de b7       	in	r29, 0x3e	; 62
    219e:	9a 83       	std	Y+2, r25	; 0x02
    21a0:	89 83       	std	Y+1, r24	; 0x01
    21a2:	89 81       	ldd	r24, Y+1	; 0x01
    21a4:	9a 81       	ldd	r25, Y+2	; 0x02
    21a6:	89 2b       	or	r24, r25
    21a8:	b9 f0       	breq	.+46     	; 0x21d8 <prvInitialiseMutex+0x48>
    21aa:	89 81       	ldd	r24, Y+1	; 0x01
    21ac:	9a 81       	ldd	r25, Y+2	; 0x02
    21ae:	fc 01       	movw	r30, r24
    21b0:	15 82       	std	Z+5, r1	; 0x05
    21b2:	14 82       	std	Z+4, r1	; 0x04
    21b4:	89 81       	ldd	r24, Y+1	; 0x01
    21b6:	9a 81       	ldd	r25, Y+2	; 0x02
    21b8:	fc 01       	movw	r30, r24
    21ba:	11 82       	std	Z+1, r1	; 0x01
    21bc:	10 82       	st	Z, r1
    21be:	89 81       	ldd	r24, Y+1	; 0x01
    21c0:	9a 81       	ldd	r25, Y+2	; 0x02
    21c2:	fc 01       	movw	r30, r24
    21c4:	16 82       	std	Z+6, r1	; 0x06
    21c6:	89 81       	ldd	r24, Y+1	; 0x01
    21c8:	9a 81       	ldd	r25, Y+2	; 0x02
    21ca:	00 e0       	ldi	r16, 0x00	; 0
    21cc:	20 e0       	ldi	r18, 0x00	; 0
    21ce:	30 e0       	ldi	r19, 0x00	; 0
    21d0:	a9 01       	movw	r20, r18
    21d2:	60 e0       	ldi	r22, 0x00	; 0
    21d4:	70 e0       	ldi	r23, 0x00	; 0
    21d6:	25 d0       	rcall	.+74     	; 0x2222 <xQueueGenericSend>
    21d8:	00 00       	nop
    21da:	0f 90       	pop	r0
    21dc:	0f 90       	pop	r0
    21de:	df 91       	pop	r29
    21e0:	cf 91       	pop	r28
    21e2:	0f 91       	pop	r16
    21e4:	08 95       	ret

000021e6 <xQueueCreateMutex>:
    21e6:	cf 93       	push	r28
    21e8:	df 93       	push	r29
    21ea:	00 d0       	rcall	.+0      	; 0x21ec <xQueueCreateMutex+0x6>
    21ec:	1f 92       	push	r1
    21ee:	1f 92       	push	r1
    21f0:	cd b7       	in	r28, 0x3d	; 61
    21f2:	de b7       	in	r29, 0x3e	; 62
    21f4:	8d 83       	std	Y+5, r24	; 0x05
    21f6:	81 e0       	ldi	r24, 0x01	; 1
    21f8:	89 83       	std	Y+1, r24	; 0x01
    21fa:	1a 82       	std	Y+2, r1	; 0x02
    21fc:	4d 81       	ldd	r20, Y+5	; 0x05
    21fe:	6a 81       	ldd	r22, Y+2	; 0x02
    2200:	89 81       	ldd	r24, Y+1	; 0x01
    2202:	3f df       	rcall	.-386    	; 0x2082 <xQueueGenericCreate>
    2204:	9c 83       	std	Y+4, r25	; 0x04
    2206:	8b 83       	std	Y+3, r24	; 0x03
    2208:	8b 81       	ldd	r24, Y+3	; 0x03
    220a:	9c 81       	ldd	r25, Y+4	; 0x04
    220c:	c1 df       	rcall	.-126    	; 0x2190 <prvInitialiseMutex>
    220e:	8b 81       	ldd	r24, Y+3	; 0x03
    2210:	9c 81       	ldd	r25, Y+4	; 0x04
    2212:	0f 90       	pop	r0
    2214:	0f 90       	pop	r0
    2216:	0f 90       	pop	r0
    2218:	0f 90       	pop	r0
    221a:	0f 90       	pop	r0
    221c:	df 91       	pop	r29
    221e:	cf 91       	pop	r28
    2220:	08 95       	ret

00002222 <xQueueGenericSend>:
    2222:	0f 93       	push	r16
    2224:	cf 93       	push	r28
    2226:	df 93       	push	r29
    2228:	cd b7       	in	r28, 0x3d	; 61
    222a:	de b7       	in	r29, 0x3e	; 62
    222c:	62 97       	sbiw	r28, 0x12	; 18
    222e:	0f b6       	in	r0, 0x3f	; 63
    2230:	f8 94       	cli
    2232:	de bf       	out	0x3e, r29	; 62
    2234:	0f be       	out	0x3f, r0	; 63
    2236:	cd bf       	out	0x3d, r28	; 61
    2238:	9b 87       	std	Y+11, r25	; 0x0b
    223a:	8a 87       	std	Y+10, r24	; 0x0a
    223c:	7d 87       	std	Y+13, r23	; 0x0d
    223e:	6c 87       	std	Y+12, r22	; 0x0c
    2240:	2e 87       	std	Y+14, r18	; 0x0e
    2242:	3f 87       	std	Y+15, r19	; 0x0f
    2244:	48 8b       	std	Y+16, r20	; 0x10
    2246:	59 8b       	std	Y+17, r21	; 0x11
    2248:	0a 8b       	std	Y+18, r16	; 0x12
    224a:	19 82       	std	Y+1, r1	; 0x01
    224c:	8a 85       	ldd	r24, Y+10	; 0x0a
    224e:	9b 85       	ldd	r25, Y+11	; 0x0b
    2250:	9b 83       	std	Y+3, r25	; 0x03
    2252:	8a 83       	std	Y+2, r24	; 0x02
    2254:	0f b6       	in	r0, 0x3f	; 63
    2256:	f8 94       	cli
    2258:	0f 92       	push	r0
    225a:	8a 81       	ldd	r24, Y+2	; 0x02
    225c:	9b 81       	ldd	r25, Y+3	; 0x03
    225e:	fc 01       	movw	r30, r24
    2260:	26 8d       	ldd	r18, Z+30	; 0x1e
    2262:	8a 81       	ldd	r24, Y+2	; 0x02
    2264:	9b 81       	ldd	r25, Y+3	; 0x03
    2266:	fc 01       	movw	r30, r24
    2268:	87 8d       	ldd	r24, Z+31	; 0x1f
    226a:	28 17       	cp	r18, r24
    226c:	18 f0       	brcs	.+6      	; 0x2274 <xQueueGenericSend+0x52>
    226e:	8a 89       	ldd	r24, Y+18	; 0x12
    2270:	82 30       	cpi	r24, 0x02	; 2
    2272:	f9 f4       	brne	.+62     	; 0x22b2 <xQueueGenericSend+0x90>
    2274:	2c 85       	ldd	r18, Y+12	; 0x0c
    2276:	3d 85       	ldd	r19, Y+13	; 0x0d
    2278:	8a 81       	ldd	r24, Y+2	; 0x02
    227a:	9b 81       	ldd	r25, Y+3	; 0x03
    227c:	4a 89       	ldd	r20, Y+18	; 0x12
    227e:	b9 01       	movw	r22, r18
    2280:	a6 d2       	rcall	.+1356   	; 0x27ce <prvCopyDataToQueue>
    2282:	8c 83       	std	Y+4, r24	; 0x04
    2284:	8a 81       	ldd	r24, Y+2	; 0x02
    2286:	9b 81       	ldd	r25, Y+3	; 0x03
    2288:	fc 01       	movw	r30, r24
    228a:	83 89       	ldd	r24, Z+19	; 0x13
    228c:	88 23       	and	r24, r24
    228e:	49 f0       	breq	.+18     	; 0x22a2 <xQueueGenericSend+0x80>
    2290:	8a 81       	ldd	r24, Y+2	; 0x02
    2292:	9b 81       	ldd	r25, Y+3	; 0x03
    2294:	43 96       	adiw	r24, 0x13	; 19
    2296:	0e 94 7d 24 	call	0x48fa	; 0x48fa <xTaskRemoveFromEventList>
    229a:	88 23       	and	r24, r24
    229c:	31 f0       	breq	.+12     	; 0x22aa <xQueueGenericSend+0x88>
    229e:	73 dd       	rcall	.-1306   	; 0x1d86 <vPortYield>
    22a0:	04 c0       	rjmp	.+8      	; 0x22aa <xQueueGenericSend+0x88>
    22a2:	8c 81       	ldd	r24, Y+4	; 0x04
    22a4:	88 23       	and	r24, r24
    22a6:	09 f0       	breq	.+2      	; 0x22aa <xQueueGenericSend+0x88>
    22a8:	6e dd       	rcall	.-1316   	; 0x1d86 <vPortYield>
    22aa:	0f 90       	pop	r0
    22ac:	0f be       	out	0x3f, r0	; 63
    22ae:	81 e0       	ldi	r24, 0x01	; 1
    22b0:	64 c0       	rjmp	.+200    	; 0x237a <xQueueGenericSend+0x158>
    22b2:	8e 85       	ldd	r24, Y+14	; 0x0e
    22b4:	9f 85       	ldd	r25, Y+15	; 0x0f
    22b6:	a8 89       	ldd	r26, Y+16	; 0x10
    22b8:	b9 89       	ldd	r27, Y+17	; 0x11
    22ba:	89 2b       	or	r24, r25
    22bc:	8a 2b       	or	r24, r26
    22be:	8b 2b       	or	r24, r27
    22c0:	21 f4       	brne	.+8      	; 0x22ca <xQueueGenericSend+0xa8>
    22c2:	0f 90       	pop	r0
    22c4:	0f be       	out	0x3f, r0	; 63
    22c6:	80 e0       	ldi	r24, 0x00	; 0
    22c8:	58 c0       	rjmp	.+176    	; 0x237a <xQueueGenericSend+0x158>
    22ca:	89 81       	ldd	r24, Y+1	; 0x01
    22cc:	88 23       	and	r24, r24
    22ce:	31 f4       	brne	.+12     	; 0x22dc <xQueueGenericSend+0xba>
    22d0:	ce 01       	movw	r24, r28
    22d2:	05 96       	adiw	r24, 0x05	; 5
    22d4:	0e 94 58 27 	call	0x4eb0	; 0x4eb0 <vTaskInternalSetTimeOutState>
    22d8:	81 e0       	ldi	r24, 0x01	; 1
    22da:	89 83       	std	Y+1, r24	; 0x01
    22dc:	0f 90       	pop	r0
    22de:	0f be       	out	0x3f, r0	; 63
    22e0:	0e 94 14 1f 	call	0x3e28	; 0x3e28 <vTaskSuspendAll>
    22e4:	0f b6       	in	r0, 0x3f	; 63
    22e6:	f8 94       	cli
    22e8:	0f 92       	push	r0
    22ea:	8a 81       	ldd	r24, Y+2	; 0x02
    22ec:	9b 81       	ldd	r25, Y+3	; 0x03
    22ee:	fc 01       	movw	r30, r24
    22f0:	81 a1       	ldd	r24, Z+33	; 0x21
    22f2:	8f 3f       	cpi	r24, 0xFF	; 255
    22f4:	21 f4       	brne	.+8      	; 0x22fe <xQueueGenericSend+0xdc>
    22f6:	8a 81       	ldd	r24, Y+2	; 0x02
    22f8:	9b 81       	ldd	r25, Y+3	; 0x03
    22fa:	fc 01       	movw	r30, r24
    22fc:	11 a2       	std	Z+33, r1	; 0x21
    22fe:	8a 81       	ldd	r24, Y+2	; 0x02
    2300:	9b 81       	ldd	r25, Y+3	; 0x03
    2302:	fc 01       	movw	r30, r24
    2304:	82 a1       	ldd	r24, Z+34	; 0x22
    2306:	8f 3f       	cpi	r24, 0xFF	; 255
    2308:	21 f4       	brne	.+8      	; 0x2312 <xQueueGenericSend+0xf0>
    230a:	8a 81       	ldd	r24, Y+2	; 0x02
    230c:	9b 81       	ldd	r25, Y+3	; 0x03
    230e:	fc 01       	movw	r30, r24
    2310:	12 a2       	std	Z+34, r1	; 0x22
    2312:	0f 90       	pop	r0
    2314:	0f be       	out	0x3f, r0	; 63
    2316:	9e 01       	movw	r18, r28
    2318:	22 5f       	subi	r18, 0xF2	; 242
    231a:	3f 4f       	sbci	r19, 0xFF	; 255
    231c:	ce 01       	movw	r24, r28
    231e:	05 96       	adiw	r24, 0x05	; 5
    2320:	b9 01       	movw	r22, r18
    2322:	0e 94 7b 27 	call	0x4ef6	; 0x4ef6 <xTaskCheckForTimeOut>
    2326:	88 23       	and	r24, r24
    2328:	11 f5       	brne	.+68     	; 0x236e <xQueueGenericSend+0x14c>
    232a:	8a 81       	ldd	r24, Y+2	; 0x02
    232c:	9b 81       	ldd	r25, Y+3	; 0x03
    232e:	eb d3       	rcall	.+2006   	; 0x2b06 <prvIsQueueFull>
    2330:	88 23       	and	r24, r24
    2332:	b9 f0       	breq	.+46     	; 0x2362 <xQueueGenericSend+0x140>
    2334:	8e 85       	ldd	r24, Y+14	; 0x0e
    2336:	9f 85       	ldd	r25, Y+15	; 0x0f
    2338:	a8 89       	ldd	r26, Y+16	; 0x10
    233a:	b9 89       	ldd	r27, Y+17	; 0x11
    233c:	2a 81       	ldd	r18, Y+2	; 0x02
    233e:	3b 81       	ldd	r19, Y+3	; 0x03
    2340:	28 5f       	subi	r18, 0xF8	; 248
    2342:	3f 4f       	sbci	r19, 0xFF	; 255
    2344:	ac 01       	movw	r20, r24
    2346:	bd 01       	movw	r22, r26
    2348:	c9 01       	movw	r24, r18
    234a:	0e 94 59 23 	call	0x46b2	; 0x46b2 <vTaskPlaceOnEventList>
    234e:	8a 81       	ldd	r24, Y+2	; 0x02
    2350:	9b 81       	ldd	r25, Y+3	; 0x03
    2352:	5e d3       	rcall	.+1724   	; 0x2a10 <prvUnlockQueue>
    2354:	0e 94 21 1f 	call	0x3e42	; 0x3e42 <xTaskResumeAll>
    2358:	88 23       	and	r24, r24
    235a:	09 f0       	breq	.+2      	; 0x235e <xQueueGenericSend+0x13c>
    235c:	7b cf       	rjmp	.-266    	; 0x2254 <xQueueGenericSend+0x32>
    235e:	13 dd       	rcall	.-1498   	; 0x1d86 <vPortYield>
    2360:	79 cf       	rjmp	.-270    	; 0x2254 <xQueueGenericSend+0x32>
    2362:	8a 81       	ldd	r24, Y+2	; 0x02
    2364:	9b 81       	ldd	r25, Y+3	; 0x03
    2366:	54 d3       	rcall	.+1704   	; 0x2a10 <prvUnlockQueue>
    2368:	0e 94 21 1f 	call	0x3e42	; 0x3e42 <xTaskResumeAll>
    236c:	73 cf       	rjmp	.-282    	; 0x2254 <xQueueGenericSend+0x32>
    236e:	8a 81       	ldd	r24, Y+2	; 0x02
    2370:	9b 81       	ldd	r25, Y+3	; 0x03
    2372:	4e d3       	rcall	.+1692   	; 0x2a10 <prvUnlockQueue>
    2374:	0e 94 21 1f 	call	0x3e42	; 0x3e42 <xTaskResumeAll>
    2378:	80 e0       	ldi	r24, 0x00	; 0
    237a:	62 96       	adiw	r28, 0x12	; 18
    237c:	0f b6       	in	r0, 0x3f	; 63
    237e:	f8 94       	cli
    2380:	de bf       	out	0x3e, r29	; 62
    2382:	0f be       	out	0x3f, r0	; 63
    2384:	cd bf       	out	0x3d, r28	; 61
    2386:	df 91       	pop	r29
    2388:	cf 91       	pop	r28
    238a:	0f 91       	pop	r16
    238c:	08 95       	ret

0000238e <xQueueGenericSendFromISR>:
    238e:	cf 93       	push	r28
    2390:	df 93       	push	r29
    2392:	cd b7       	in	r28, 0x3d	; 61
    2394:	de b7       	in	r29, 0x3e	; 62
    2396:	2d 97       	sbiw	r28, 0x0d	; 13
    2398:	0f b6       	in	r0, 0x3f	; 63
    239a:	f8 94       	cli
    239c:	de bf       	out	0x3e, r29	; 62
    239e:	0f be       	out	0x3f, r0	; 63
    23a0:	cd bf       	out	0x3d, r28	; 61
    23a2:	98 87       	std	Y+8, r25	; 0x08
    23a4:	8f 83       	std	Y+7, r24	; 0x07
    23a6:	7a 87       	std	Y+10, r23	; 0x0a
    23a8:	69 87       	std	Y+9, r22	; 0x09
    23aa:	5c 87       	std	Y+12, r21	; 0x0c
    23ac:	4b 87       	std	Y+11, r20	; 0x0b
    23ae:	2d 87       	std	Y+13, r18	; 0x0d
    23b0:	8f 81       	ldd	r24, Y+7	; 0x07
    23b2:	98 85       	ldd	r25, Y+8	; 0x08
    23b4:	9b 83       	std	Y+3, r25	; 0x03
    23b6:	8a 83       	std	Y+2, r24	; 0x02
    23b8:	1c 82       	std	Y+4, r1	; 0x04
    23ba:	8a 81       	ldd	r24, Y+2	; 0x02
    23bc:	9b 81       	ldd	r25, Y+3	; 0x03
    23be:	fc 01       	movw	r30, r24
    23c0:	26 8d       	ldd	r18, Z+30	; 0x1e
    23c2:	8a 81       	ldd	r24, Y+2	; 0x02
    23c4:	9b 81       	ldd	r25, Y+3	; 0x03
    23c6:	fc 01       	movw	r30, r24
    23c8:	87 8d       	ldd	r24, Z+31	; 0x1f
    23ca:	28 17       	cp	r18, r24
    23cc:	18 f0       	brcs	.+6      	; 0x23d4 <xQueueGenericSendFromISR+0x46>
    23ce:	8d 85       	ldd	r24, Y+13	; 0x0d
    23d0:	82 30       	cpi	r24, 0x02	; 2
    23d2:	a9 f5       	brne	.+106    	; 0x243e <xQueueGenericSendFromISR+0xb0>
    23d4:	8a 81       	ldd	r24, Y+2	; 0x02
    23d6:	9b 81       	ldd	r25, Y+3	; 0x03
    23d8:	fc 01       	movw	r30, r24
    23da:	82 a1       	ldd	r24, Z+34	; 0x22
    23dc:	8d 83       	std	Y+5, r24	; 0x05
    23de:	8a 81       	ldd	r24, Y+2	; 0x02
    23e0:	9b 81       	ldd	r25, Y+3	; 0x03
    23e2:	fc 01       	movw	r30, r24
    23e4:	86 8d       	ldd	r24, Z+30	; 0x1e
    23e6:	8e 83       	std	Y+6, r24	; 0x06
    23e8:	29 85       	ldd	r18, Y+9	; 0x09
    23ea:	3a 85       	ldd	r19, Y+10	; 0x0a
    23ec:	8a 81       	ldd	r24, Y+2	; 0x02
    23ee:	9b 81       	ldd	r25, Y+3	; 0x03
    23f0:	4d 85       	ldd	r20, Y+13	; 0x0d
    23f2:	b9 01       	movw	r22, r18
    23f4:	ec d1       	rcall	.+984    	; 0x27ce <prvCopyDataToQueue>
    23f6:	8d 81       	ldd	r24, Y+5	; 0x05
    23f8:	8f 3f       	cpi	r24, 0xFF	; 255
    23fa:	b9 f4       	brne	.+46     	; 0x242a <xQueueGenericSendFromISR+0x9c>
    23fc:	8a 81       	ldd	r24, Y+2	; 0x02
    23fe:	9b 81       	ldd	r25, Y+3	; 0x03
    2400:	fc 01       	movw	r30, r24
    2402:	83 89       	ldd	r24, Z+19	; 0x13
    2404:	88 23       	and	r24, r24
    2406:	c1 f0       	breq	.+48     	; 0x2438 <xQueueGenericSendFromISR+0xaa>
    2408:	8a 81       	ldd	r24, Y+2	; 0x02
    240a:	9b 81       	ldd	r25, Y+3	; 0x03
    240c:	43 96       	adiw	r24, 0x13	; 19
    240e:	0e 94 7d 24 	call	0x48fa	; 0x48fa <xTaskRemoveFromEventList>
    2412:	88 23       	and	r24, r24
    2414:	89 f0       	breq	.+34     	; 0x2438 <xQueueGenericSendFromISR+0xaa>
    2416:	8b 85       	ldd	r24, Y+11	; 0x0b
    2418:	9c 85       	ldd	r25, Y+12	; 0x0c
    241a:	89 2b       	or	r24, r25
    241c:	69 f0       	breq	.+26     	; 0x2438 <xQueueGenericSendFromISR+0xaa>
    241e:	8b 85       	ldd	r24, Y+11	; 0x0b
    2420:	9c 85       	ldd	r25, Y+12	; 0x0c
    2422:	21 e0       	ldi	r18, 0x01	; 1
    2424:	fc 01       	movw	r30, r24
    2426:	20 83       	st	Z, r18
    2428:	07 c0       	rjmp	.+14     	; 0x2438 <xQueueGenericSendFromISR+0xaa>
    242a:	8d 81       	ldd	r24, Y+5	; 0x05
    242c:	8f 5f       	subi	r24, 0xFF	; 255
    242e:	28 2f       	mov	r18, r24
    2430:	8a 81       	ldd	r24, Y+2	; 0x02
    2432:	9b 81       	ldd	r25, Y+3	; 0x03
    2434:	fc 01       	movw	r30, r24
    2436:	22 a3       	std	Z+34, r18	; 0x22
    2438:	81 e0       	ldi	r24, 0x01	; 1
    243a:	89 83       	std	Y+1, r24	; 0x01
    243c:	01 c0       	rjmp	.+2      	; 0x2440 <xQueueGenericSendFromISR+0xb2>
    243e:	19 82       	std	Y+1, r1	; 0x01
    2440:	89 81       	ldd	r24, Y+1	; 0x01
    2442:	2d 96       	adiw	r28, 0x0d	; 13
    2444:	0f b6       	in	r0, 0x3f	; 63
    2446:	f8 94       	cli
    2448:	de bf       	out	0x3e, r29	; 62
    244a:	0f be       	out	0x3f, r0	; 63
    244c:	cd bf       	out	0x3d, r28	; 61
    244e:	df 91       	pop	r29
    2450:	cf 91       	pop	r28
    2452:	08 95       	ret

00002454 <xQueueReceive>:
    2454:	cf 93       	push	r28
    2456:	df 93       	push	r29
    2458:	cd b7       	in	r28, 0x3d	; 61
    245a:	de b7       	in	r29, 0x3e	; 62
    245c:	61 97       	sbiw	r28, 0x11	; 17
    245e:	0f b6       	in	r0, 0x3f	; 63
    2460:	f8 94       	cli
    2462:	de bf       	out	0x3e, r29	; 62
    2464:	0f be       	out	0x3f, r0	; 63
    2466:	cd bf       	out	0x3d, r28	; 61
    2468:	9b 87       	std	Y+11, r25	; 0x0b
    246a:	8a 87       	std	Y+10, r24	; 0x0a
    246c:	7d 87       	std	Y+13, r23	; 0x0d
    246e:	6c 87       	std	Y+12, r22	; 0x0c
    2470:	2e 87       	std	Y+14, r18	; 0x0e
    2472:	3f 87       	std	Y+15, r19	; 0x0f
    2474:	48 8b       	std	Y+16, r20	; 0x10
    2476:	59 8b       	std	Y+17, r21	; 0x11
    2478:	19 82       	std	Y+1, r1	; 0x01
    247a:	8a 85       	ldd	r24, Y+10	; 0x0a
    247c:	9b 85       	ldd	r25, Y+11	; 0x0b
    247e:	9b 83       	std	Y+3, r25	; 0x03
    2480:	8a 83       	std	Y+2, r24	; 0x02
    2482:	0f b6       	in	r0, 0x3f	; 63
    2484:	f8 94       	cli
    2486:	0f 92       	push	r0
    2488:	8a 81       	ldd	r24, Y+2	; 0x02
    248a:	9b 81       	ldd	r25, Y+3	; 0x03
    248c:	fc 01       	movw	r30, r24
    248e:	86 8d       	ldd	r24, Z+30	; 0x1e
    2490:	8c 83       	std	Y+4, r24	; 0x04
    2492:	8c 81       	ldd	r24, Y+4	; 0x04
    2494:	88 23       	and	r24, r24
    2496:	f9 f0       	breq	.+62     	; 0x24d6 <xQueueReceive+0x82>
    2498:	2c 85       	ldd	r18, Y+12	; 0x0c
    249a:	3d 85       	ldd	r19, Y+13	; 0x0d
    249c:	8a 81       	ldd	r24, Y+2	; 0x02
    249e:	9b 81       	ldd	r25, Y+3	; 0x03
    24a0:	b9 01       	movw	r22, r18
    24a2:	65 d2       	rcall	.+1226   	; 0x296e <prvCopyDataFromQueue>
    24a4:	8c 81       	ldd	r24, Y+4	; 0x04
    24a6:	2f ef       	ldi	r18, 0xFF	; 255
    24a8:	28 0f       	add	r18, r24
    24aa:	8a 81       	ldd	r24, Y+2	; 0x02
    24ac:	9b 81       	ldd	r25, Y+3	; 0x03
    24ae:	fc 01       	movw	r30, r24
    24b0:	26 8f       	std	Z+30, r18	; 0x1e
    24b2:	8a 81       	ldd	r24, Y+2	; 0x02
    24b4:	9b 81       	ldd	r25, Y+3	; 0x03
    24b6:	fc 01       	movw	r30, r24
    24b8:	80 85       	ldd	r24, Z+8	; 0x08
    24ba:	88 23       	and	r24, r24
    24bc:	41 f0       	breq	.+16     	; 0x24ce <xQueueReceive+0x7a>
    24be:	8a 81       	ldd	r24, Y+2	; 0x02
    24c0:	9b 81       	ldd	r25, Y+3	; 0x03
    24c2:	08 96       	adiw	r24, 0x08	; 8
    24c4:	0e 94 7d 24 	call	0x48fa	; 0x48fa <xTaskRemoveFromEventList>
    24c8:	88 23       	and	r24, r24
    24ca:	09 f0       	breq	.+2      	; 0x24ce <xQueueReceive+0x7a>
    24cc:	5c dc       	rcall	.-1864   	; 0x1d86 <vPortYield>
    24ce:	0f 90       	pop	r0
    24d0:	0f be       	out	0x3f, r0	; 63
    24d2:	81 e0       	ldi	r24, 0x01	; 1
    24d4:	6a c0       	rjmp	.+212    	; 0x25aa <xQueueReceive+0x156>
    24d6:	8e 85       	ldd	r24, Y+14	; 0x0e
    24d8:	9f 85       	ldd	r25, Y+15	; 0x0f
    24da:	a8 89       	ldd	r26, Y+16	; 0x10
    24dc:	b9 89       	ldd	r27, Y+17	; 0x11
    24de:	89 2b       	or	r24, r25
    24e0:	8a 2b       	or	r24, r26
    24e2:	8b 2b       	or	r24, r27
    24e4:	21 f4       	brne	.+8      	; 0x24ee <xQueueReceive+0x9a>
    24e6:	0f 90       	pop	r0
    24e8:	0f be       	out	0x3f, r0	; 63
    24ea:	80 e0       	ldi	r24, 0x00	; 0
    24ec:	5e c0       	rjmp	.+188    	; 0x25aa <xQueueReceive+0x156>
    24ee:	89 81       	ldd	r24, Y+1	; 0x01
    24f0:	88 23       	and	r24, r24
    24f2:	31 f4       	brne	.+12     	; 0x2500 <xQueueReceive+0xac>
    24f4:	ce 01       	movw	r24, r28
    24f6:	05 96       	adiw	r24, 0x05	; 5
    24f8:	0e 94 58 27 	call	0x4eb0	; 0x4eb0 <vTaskInternalSetTimeOutState>
    24fc:	81 e0       	ldi	r24, 0x01	; 1
    24fe:	89 83       	std	Y+1, r24	; 0x01
    2500:	0f 90       	pop	r0
    2502:	0f be       	out	0x3f, r0	; 63
    2504:	0e 94 14 1f 	call	0x3e28	; 0x3e28 <vTaskSuspendAll>
    2508:	0f b6       	in	r0, 0x3f	; 63
    250a:	f8 94       	cli
    250c:	0f 92       	push	r0
    250e:	8a 81       	ldd	r24, Y+2	; 0x02
    2510:	9b 81       	ldd	r25, Y+3	; 0x03
    2512:	fc 01       	movw	r30, r24
    2514:	81 a1       	ldd	r24, Z+33	; 0x21
    2516:	8f 3f       	cpi	r24, 0xFF	; 255
    2518:	21 f4       	brne	.+8      	; 0x2522 <xQueueReceive+0xce>
    251a:	8a 81       	ldd	r24, Y+2	; 0x02
    251c:	9b 81       	ldd	r25, Y+3	; 0x03
    251e:	fc 01       	movw	r30, r24
    2520:	11 a2       	std	Z+33, r1	; 0x21
    2522:	8a 81       	ldd	r24, Y+2	; 0x02
    2524:	9b 81       	ldd	r25, Y+3	; 0x03
    2526:	fc 01       	movw	r30, r24
    2528:	82 a1       	ldd	r24, Z+34	; 0x22
    252a:	8f 3f       	cpi	r24, 0xFF	; 255
    252c:	21 f4       	brne	.+8      	; 0x2536 <xQueueReceive+0xe2>
    252e:	8a 81       	ldd	r24, Y+2	; 0x02
    2530:	9b 81       	ldd	r25, Y+3	; 0x03
    2532:	fc 01       	movw	r30, r24
    2534:	12 a2       	std	Z+34, r1	; 0x22
    2536:	0f 90       	pop	r0
    2538:	0f be       	out	0x3f, r0	; 63
    253a:	9e 01       	movw	r18, r28
    253c:	22 5f       	subi	r18, 0xF2	; 242
    253e:	3f 4f       	sbci	r19, 0xFF	; 255
    2540:	ce 01       	movw	r24, r28
    2542:	05 96       	adiw	r24, 0x05	; 5
    2544:	b9 01       	movw	r22, r18
    2546:	0e 94 7b 27 	call	0x4ef6	; 0x4ef6 <xTaskCheckForTimeOut>
    254a:	88 23       	and	r24, r24
    254c:	11 f5       	brne	.+68     	; 0x2592 <xQueueReceive+0x13e>
    254e:	8a 81       	ldd	r24, Y+2	; 0x02
    2550:	9b 81       	ldd	r25, Y+3	; 0x03
    2552:	bc d2       	rcall	.+1400   	; 0x2acc <prvIsQueueEmpty>
    2554:	88 23       	and	r24, r24
    2556:	b9 f0       	breq	.+46     	; 0x2586 <xQueueReceive+0x132>
    2558:	8e 85       	ldd	r24, Y+14	; 0x0e
    255a:	9f 85       	ldd	r25, Y+15	; 0x0f
    255c:	a8 89       	ldd	r26, Y+16	; 0x10
    255e:	b9 89       	ldd	r27, Y+17	; 0x11
    2560:	2a 81       	ldd	r18, Y+2	; 0x02
    2562:	3b 81       	ldd	r19, Y+3	; 0x03
    2564:	2d 5e       	subi	r18, 0xED	; 237
    2566:	3f 4f       	sbci	r19, 0xFF	; 255
    2568:	ac 01       	movw	r20, r24
    256a:	bd 01       	movw	r22, r26
    256c:	c9 01       	movw	r24, r18
    256e:	0e 94 59 23 	call	0x46b2	; 0x46b2 <vTaskPlaceOnEventList>
    2572:	8a 81       	ldd	r24, Y+2	; 0x02
    2574:	9b 81       	ldd	r25, Y+3	; 0x03
    2576:	4c d2       	rcall	.+1176   	; 0x2a10 <prvUnlockQueue>
    2578:	0e 94 21 1f 	call	0x3e42	; 0x3e42 <xTaskResumeAll>
    257c:	88 23       	and	r24, r24
    257e:	09 f0       	breq	.+2      	; 0x2582 <xQueueReceive+0x12e>
    2580:	80 cf       	rjmp	.-256    	; 0x2482 <xQueueReceive+0x2e>
    2582:	01 dc       	rcall	.-2046   	; 0x1d86 <vPortYield>
    2584:	7e cf       	rjmp	.-260    	; 0x2482 <xQueueReceive+0x2e>
    2586:	8a 81       	ldd	r24, Y+2	; 0x02
    2588:	9b 81       	ldd	r25, Y+3	; 0x03
    258a:	42 d2       	rcall	.+1156   	; 0x2a10 <prvUnlockQueue>
    258c:	0e 94 21 1f 	call	0x3e42	; 0x3e42 <xTaskResumeAll>
    2590:	78 cf       	rjmp	.-272    	; 0x2482 <xQueueReceive+0x2e>
    2592:	8a 81       	ldd	r24, Y+2	; 0x02
    2594:	9b 81       	ldd	r25, Y+3	; 0x03
    2596:	3c d2       	rcall	.+1144   	; 0x2a10 <prvUnlockQueue>
    2598:	0e 94 21 1f 	call	0x3e42	; 0x3e42 <xTaskResumeAll>
    259c:	8a 81       	ldd	r24, Y+2	; 0x02
    259e:	9b 81       	ldd	r25, Y+3	; 0x03
    25a0:	95 d2       	rcall	.+1322   	; 0x2acc <prvIsQueueEmpty>
    25a2:	88 23       	and	r24, r24
    25a4:	09 f4       	brne	.+2      	; 0x25a8 <xQueueReceive+0x154>
    25a6:	6d cf       	rjmp	.-294    	; 0x2482 <xQueueReceive+0x2e>
    25a8:	80 e0       	ldi	r24, 0x00	; 0
    25aa:	61 96       	adiw	r28, 0x11	; 17
    25ac:	0f b6       	in	r0, 0x3f	; 63
    25ae:	f8 94       	cli
    25b0:	de bf       	out	0x3e, r29	; 62
    25b2:	0f be       	out	0x3f, r0	; 63
    25b4:	cd bf       	out	0x3d, r28	; 61
    25b6:	df 91       	pop	r29
    25b8:	cf 91       	pop	r28
    25ba:	08 95       	ret

000025bc <xQueueSemaphoreTake>:
    25bc:	cf 93       	push	r28
    25be:	df 93       	push	r29
    25c0:	cd b7       	in	r28, 0x3d	; 61
    25c2:	de b7       	in	r29, 0x3e	; 62
    25c4:	61 97       	sbiw	r28, 0x11	; 17
    25c6:	0f b6       	in	r0, 0x3f	; 63
    25c8:	f8 94       	cli
    25ca:	de bf       	out	0x3e, r29	; 62
    25cc:	0f be       	out	0x3f, r0	; 63
    25ce:	cd bf       	out	0x3d, r28	; 61
    25d0:	9d 87       	std	Y+13, r25	; 0x0d
    25d2:	8c 87       	std	Y+12, r24	; 0x0c
    25d4:	4e 87       	std	Y+14, r20	; 0x0e
    25d6:	5f 87       	std	Y+15, r21	; 0x0f
    25d8:	68 8b       	std	Y+16, r22	; 0x10
    25da:	79 8b       	std	Y+17, r23	; 0x11
    25dc:	19 82       	std	Y+1, r1	; 0x01
    25de:	8c 85       	ldd	r24, Y+12	; 0x0c
    25e0:	9d 85       	ldd	r25, Y+13	; 0x0d
    25e2:	9c 83       	std	Y+4, r25	; 0x04
    25e4:	8b 83       	std	Y+3, r24	; 0x03
    25e6:	1a 82       	std	Y+2, r1	; 0x02
    25e8:	0f b6       	in	r0, 0x3f	; 63
    25ea:	f8 94       	cli
    25ec:	0f 92       	push	r0
    25ee:	8b 81       	ldd	r24, Y+3	; 0x03
    25f0:	9c 81       	ldd	r25, Y+4	; 0x04
    25f2:	fc 01       	movw	r30, r24
    25f4:	86 8d       	ldd	r24, Z+30	; 0x1e
    25f6:	8d 83       	std	Y+5, r24	; 0x05
    25f8:	8d 81       	ldd	r24, Y+5	; 0x05
    25fa:	88 23       	and	r24, r24
    25fc:	41 f1       	breq	.+80     	; 0x264e <xQueueSemaphoreTake+0x92>
    25fe:	8d 81       	ldd	r24, Y+5	; 0x05
    2600:	2f ef       	ldi	r18, 0xFF	; 255
    2602:	28 0f       	add	r18, r24
    2604:	8b 81       	ldd	r24, Y+3	; 0x03
    2606:	9c 81       	ldd	r25, Y+4	; 0x04
    2608:	fc 01       	movw	r30, r24
    260a:	26 8f       	std	Z+30, r18	; 0x1e
    260c:	8b 81       	ldd	r24, Y+3	; 0x03
    260e:	9c 81       	ldd	r25, Y+4	; 0x04
    2610:	fc 01       	movw	r30, r24
    2612:	80 81       	ld	r24, Z
    2614:	91 81       	ldd	r25, Z+1	; 0x01
    2616:	89 2b       	or	r24, r25
    2618:	41 f4       	brne	.+16     	; 0x262a <xQueueSemaphoreTake+0x6e>
    261a:	0e 94 53 2c 	call	0x58a6	; 0x58a6 <pvTaskIncrementMutexHeldCount>
    261e:	9c 01       	movw	r18, r24
    2620:	8b 81       	ldd	r24, Y+3	; 0x03
    2622:	9c 81       	ldd	r25, Y+4	; 0x04
    2624:	fc 01       	movw	r30, r24
    2626:	35 83       	std	Z+5, r19	; 0x05
    2628:	24 83       	std	Z+4, r18	; 0x04
    262a:	8b 81       	ldd	r24, Y+3	; 0x03
    262c:	9c 81       	ldd	r25, Y+4	; 0x04
    262e:	fc 01       	movw	r30, r24
    2630:	80 85       	ldd	r24, Z+8	; 0x08
    2632:	88 23       	and	r24, r24
    2634:	41 f0       	breq	.+16     	; 0x2646 <xQueueSemaphoreTake+0x8a>
    2636:	8b 81       	ldd	r24, Y+3	; 0x03
    2638:	9c 81       	ldd	r25, Y+4	; 0x04
    263a:	08 96       	adiw	r24, 0x08	; 8
    263c:	0e 94 7d 24 	call	0x48fa	; 0x48fa <xTaskRemoveFromEventList>
    2640:	88 23       	and	r24, r24
    2642:	09 f0       	breq	.+2      	; 0x2646 <xQueueSemaphoreTake+0x8a>
    2644:	a0 db       	rcall	.-2240   	; 0x1d86 <vPortYield>
    2646:	0f 90       	pop	r0
    2648:	0f be       	out	0x3f, r0	; 63
    264a:	81 e0       	ldi	r24, 0x01	; 1
    264c:	93 c0       	rjmp	.+294    	; 0x2774 <xQueueSemaphoreTake+0x1b8>
    264e:	8e 85       	ldd	r24, Y+14	; 0x0e
    2650:	9f 85       	ldd	r25, Y+15	; 0x0f
    2652:	a8 89       	ldd	r26, Y+16	; 0x10
    2654:	b9 89       	ldd	r27, Y+17	; 0x11
    2656:	89 2b       	or	r24, r25
    2658:	8a 2b       	or	r24, r26
    265a:	8b 2b       	or	r24, r27
    265c:	21 f4       	brne	.+8      	; 0x2666 <xQueueSemaphoreTake+0xaa>
    265e:	0f 90       	pop	r0
    2660:	0f be       	out	0x3f, r0	; 63
    2662:	80 e0       	ldi	r24, 0x00	; 0
    2664:	87 c0       	rjmp	.+270    	; 0x2774 <xQueueSemaphoreTake+0x1b8>
    2666:	89 81       	ldd	r24, Y+1	; 0x01
    2668:	88 23       	and	r24, r24
    266a:	31 f4       	brne	.+12     	; 0x2678 <xQueueSemaphoreTake+0xbc>
    266c:	ce 01       	movw	r24, r28
    266e:	07 96       	adiw	r24, 0x07	; 7
    2670:	0e 94 58 27 	call	0x4eb0	; 0x4eb0 <vTaskInternalSetTimeOutState>
    2674:	81 e0       	ldi	r24, 0x01	; 1
    2676:	89 83       	std	Y+1, r24	; 0x01
    2678:	0f 90       	pop	r0
    267a:	0f be       	out	0x3f, r0	; 63
    267c:	0e 94 14 1f 	call	0x3e28	; 0x3e28 <vTaskSuspendAll>
    2680:	0f b6       	in	r0, 0x3f	; 63
    2682:	f8 94       	cli
    2684:	0f 92       	push	r0
    2686:	8b 81       	ldd	r24, Y+3	; 0x03
    2688:	9c 81       	ldd	r25, Y+4	; 0x04
    268a:	fc 01       	movw	r30, r24
    268c:	81 a1       	ldd	r24, Z+33	; 0x21
    268e:	8f 3f       	cpi	r24, 0xFF	; 255
    2690:	21 f4       	brne	.+8      	; 0x269a <xQueueSemaphoreTake+0xde>
    2692:	8b 81       	ldd	r24, Y+3	; 0x03
    2694:	9c 81       	ldd	r25, Y+4	; 0x04
    2696:	fc 01       	movw	r30, r24
    2698:	11 a2       	std	Z+33, r1	; 0x21
    269a:	8b 81       	ldd	r24, Y+3	; 0x03
    269c:	9c 81       	ldd	r25, Y+4	; 0x04
    269e:	fc 01       	movw	r30, r24
    26a0:	82 a1       	ldd	r24, Z+34	; 0x22
    26a2:	8f 3f       	cpi	r24, 0xFF	; 255
    26a4:	21 f4       	brne	.+8      	; 0x26ae <xQueueSemaphoreTake+0xf2>
    26a6:	8b 81       	ldd	r24, Y+3	; 0x03
    26a8:	9c 81       	ldd	r25, Y+4	; 0x04
    26aa:	fc 01       	movw	r30, r24
    26ac:	12 a2       	std	Z+34, r1	; 0x22
    26ae:	0f 90       	pop	r0
    26b0:	0f be       	out	0x3f, r0	; 63
    26b2:	9e 01       	movw	r18, r28
    26b4:	22 5f       	subi	r18, 0xF2	; 242
    26b6:	3f 4f       	sbci	r19, 0xFF	; 255
    26b8:	ce 01       	movw	r24, r28
    26ba:	07 96       	adiw	r24, 0x07	; 7
    26bc:	b9 01       	movw	r22, r18
    26be:	0e 94 7b 27 	call	0x4ef6	; 0x4ef6 <xTaskCheckForTimeOut>
    26c2:	88 23       	and	r24, r24
    26c4:	09 f0       	breq	.+2      	; 0x26c8 <xQueueSemaphoreTake+0x10c>
    26c6:	36 c0       	rjmp	.+108    	; 0x2734 <xQueueSemaphoreTake+0x178>
    26c8:	8b 81       	ldd	r24, Y+3	; 0x03
    26ca:	9c 81       	ldd	r25, Y+4	; 0x04
    26cc:	ff d1       	rcall	.+1022   	; 0x2acc <prvIsQueueEmpty>
    26ce:	88 23       	and	r24, r24
    26d0:	59 f1       	breq	.+86     	; 0x2728 <xQueueSemaphoreTake+0x16c>
    26d2:	8b 81       	ldd	r24, Y+3	; 0x03
    26d4:	9c 81       	ldd	r25, Y+4	; 0x04
    26d6:	fc 01       	movw	r30, r24
    26d8:	80 81       	ld	r24, Z
    26da:	91 81       	ldd	r25, Z+1	; 0x01
    26dc:	89 2b       	or	r24, r25
    26de:	69 f4       	brne	.+26     	; 0x26fa <xQueueSemaphoreTake+0x13e>
    26e0:	0f b6       	in	r0, 0x3f	; 63
    26e2:	f8 94       	cli
    26e4:	0f 92       	push	r0
    26e6:	8b 81       	ldd	r24, Y+3	; 0x03
    26e8:	9c 81       	ldd	r25, Y+4	; 0x04
    26ea:	fc 01       	movw	r30, r24
    26ec:	84 81       	ldd	r24, Z+4	; 0x04
    26ee:	95 81       	ldd	r25, Z+5	; 0x05
    26f0:	0e 94 09 29 	call	0x5212	; 0x5212 <xTaskPriorityInherit>
    26f4:	8a 83       	std	Y+2, r24	; 0x02
    26f6:	0f 90       	pop	r0
    26f8:	0f be       	out	0x3f, r0	; 63
    26fa:	8e 85       	ldd	r24, Y+14	; 0x0e
    26fc:	9f 85       	ldd	r25, Y+15	; 0x0f
    26fe:	a8 89       	ldd	r26, Y+16	; 0x10
    2700:	b9 89       	ldd	r27, Y+17	; 0x11
    2702:	2b 81       	ldd	r18, Y+3	; 0x03
    2704:	3c 81       	ldd	r19, Y+4	; 0x04
    2706:	2d 5e       	subi	r18, 0xED	; 237
    2708:	3f 4f       	sbci	r19, 0xFF	; 255
    270a:	ac 01       	movw	r20, r24
    270c:	bd 01       	movw	r22, r26
    270e:	c9 01       	movw	r24, r18
    2710:	0e 94 59 23 	call	0x46b2	; 0x46b2 <vTaskPlaceOnEventList>
    2714:	8b 81       	ldd	r24, Y+3	; 0x03
    2716:	9c 81       	ldd	r25, Y+4	; 0x04
    2718:	7b d1       	rcall	.+758    	; 0x2a10 <prvUnlockQueue>
    271a:	0e 94 21 1f 	call	0x3e42	; 0x3e42 <xTaskResumeAll>
    271e:	88 23       	and	r24, r24
    2720:	09 f0       	breq	.+2      	; 0x2724 <xQueueSemaphoreTake+0x168>
    2722:	62 cf       	rjmp	.-316    	; 0x25e8 <xQueueSemaphoreTake+0x2c>
    2724:	30 db       	rcall	.-2464   	; 0x1d86 <vPortYield>
    2726:	60 cf       	rjmp	.-320    	; 0x25e8 <xQueueSemaphoreTake+0x2c>
    2728:	8b 81       	ldd	r24, Y+3	; 0x03
    272a:	9c 81       	ldd	r25, Y+4	; 0x04
    272c:	71 d1       	rcall	.+738    	; 0x2a10 <prvUnlockQueue>
    272e:	0e 94 21 1f 	call	0x3e42	; 0x3e42 <xTaskResumeAll>
    2732:	5a cf       	rjmp	.-332    	; 0x25e8 <xQueueSemaphoreTake+0x2c>
    2734:	8b 81       	ldd	r24, Y+3	; 0x03
    2736:	9c 81       	ldd	r25, Y+4	; 0x04
    2738:	6b d1       	rcall	.+726    	; 0x2a10 <prvUnlockQueue>
    273a:	0e 94 21 1f 	call	0x3e42	; 0x3e42 <xTaskResumeAll>
    273e:	8b 81       	ldd	r24, Y+3	; 0x03
    2740:	9c 81       	ldd	r25, Y+4	; 0x04
    2742:	c4 d1       	rcall	.+904    	; 0x2acc <prvIsQueueEmpty>
    2744:	88 23       	and	r24, r24
    2746:	09 f4       	brne	.+2      	; 0x274a <xQueueSemaphoreTake+0x18e>
    2748:	4f cf       	rjmp	.-354    	; 0x25e8 <xQueueSemaphoreTake+0x2c>
    274a:	8a 81       	ldd	r24, Y+2	; 0x02
    274c:	88 23       	and	r24, r24
    274e:	89 f0       	breq	.+34     	; 0x2772 <xQueueSemaphoreTake+0x1b6>
    2750:	0f b6       	in	r0, 0x3f	; 63
    2752:	f8 94       	cli
    2754:	0f 92       	push	r0
    2756:	8b 81       	ldd	r24, Y+3	; 0x03
    2758:	9c 81       	ldd	r25, Y+4	; 0x04
    275a:	15 d0       	rcall	.+42     	; 0x2786 <prvGetDisinheritPriorityAfterTimeout>
    275c:	8e 83       	std	Y+6, r24	; 0x06
    275e:	8b 81       	ldd	r24, Y+3	; 0x03
    2760:	9c 81       	ldd	r25, Y+4	; 0x04
    2762:	fc 01       	movw	r30, r24
    2764:	84 81       	ldd	r24, Z+4	; 0x04
    2766:	95 81       	ldd	r25, Z+5	; 0x05
    2768:	6e 81       	ldd	r22, Y+6	; 0x06
    276a:	0e 94 06 2b 	call	0x560c	; 0x560c <vTaskPriorityDisinheritAfterTimeout>
    276e:	0f 90       	pop	r0
    2770:	0f be       	out	0x3f, r0	; 63
    2772:	80 e0       	ldi	r24, 0x00	; 0
    2774:	61 96       	adiw	r28, 0x11	; 17
    2776:	0f b6       	in	r0, 0x3f	; 63
    2778:	f8 94       	cli
    277a:	de bf       	out	0x3e, r29	; 62
    277c:	0f be       	out	0x3f, r0	; 63
    277e:	cd bf       	out	0x3d, r28	; 61
    2780:	df 91       	pop	r29
    2782:	cf 91       	pop	r28
    2784:	08 95       	ret

00002786 <prvGetDisinheritPriorityAfterTimeout>:
    2786:	cf 93       	push	r28
    2788:	df 93       	push	r29
    278a:	00 d0       	rcall	.+0      	; 0x278c <prvGetDisinheritPriorityAfterTimeout+0x6>
    278c:	cd b7       	in	r28, 0x3d	; 61
    278e:	de b7       	in	r29, 0x3e	; 62
    2790:	9b 83       	std	Y+3, r25	; 0x03
    2792:	8a 83       	std	Y+2, r24	; 0x02
    2794:	8a 81       	ldd	r24, Y+2	; 0x02
    2796:	9b 81       	ldd	r25, Y+3	; 0x03
    2798:	fc 01       	movw	r30, r24
    279a:	83 89       	ldd	r24, Z+19	; 0x13
    279c:	88 23       	and	r24, r24
    279e:	79 f0       	breq	.+30     	; 0x27be <prvGetDisinheritPriorityAfterTimeout+0x38>
    27a0:	8a 81       	ldd	r24, Y+2	; 0x02
    27a2:	9b 81       	ldd	r25, Y+3	; 0x03
    27a4:	fc 01       	movw	r30, r24
    27a6:	82 8d       	ldd	r24, Z+26	; 0x1a
    27a8:	93 8d       	ldd	r25, Z+27	; 0x1b
    27aa:	fc 01       	movw	r30, r24
    27ac:	80 81       	ld	r24, Z
    27ae:	91 81       	ldd	r25, Z+1	; 0x01
    27b0:	a2 81       	ldd	r26, Z+2	; 0x02
    27b2:	b3 81       	ldd	r27, Z+3	; 0x03
    27b4:	98 2f       	mov	r25, r24
    27b6:	8a e0       	ldi	r24, 0x0A	; 10
    27b8:	89 1b       	sub	r24, r25
    27ba:	89 83       	std	Y+1, r24	; 0x01
    27bc:	01 c0       	rjmp	.+2      	; 0x27c0 <prvGetDisinheritPriorityAfterTimeout+0x3a>
    27be:	19 82       	std	Y+1, r1	; 0x01
    27c0:	89 81       	ldd	r24, Y+1	; 0x01
    27c2:	0f 90       	pop	r0
    27c4:	0f 90       	pop	r0
    27c6:	0f 90       	pop	r0
    27c8:	df 91       	pop	r29
    27ca:	cf 91       	pop	r28
    27cc:	08 95       	ret

000027ce <prvCopyDataToQueue>:
    27ce:	cf 93       	push	r28
    27d0:	df 93       	push	r29
    27d2:	cd b7       	in	r28, 0x3d	; 61
    27d4:	de b7       	in	r29, 0x3e	; 62
    27d6:	27 97       	sbiw	r28, 0x07	; 7
    27d8:	0f b6       	in	r0, 0x3f	; 63
    27da:	f8 94       	cli
    27dc:	de bf       	out	0x3e, r29	; 62
    27de:	0f be       	out	0x3f, r0	; 63
    27e0:	cd bf       	out	0x3d, r28	; 61
    27e2:	9c 83       	std	Y+4, r25	; 0x04
    27e4:	8b 83       	std	Y+3, r24	; 0x03
    27e6:	7e 83       	std	Y+6, r23	; 0x06
    27e8:	6d 83       	std	Y+5, r22	; 0x05
    27ea:	4f 83       	std	Y+7, r20	; 0x07
    27ec:	19 82       	std	Y+1, r1	; 0x01
    27ee:	8b 81       	ldd	r24, Y+3	; 0x03
    27f0:	9c 81       	ldd	r25, Y+4	; 0x04
    27f2:	fc 01       	movw	r30, r24
    27f4:	86 8d       	ldd	r24, Z+30	; 0x1e
    27f6:	8a 83       	std	Y+2, r24	; 0x02
    27f8:	8b 81       	ldd	r24, Y+3	; 0x03
    27fa:	9c 81       	ldd	r25, Y+4	; 0x04
    27fc:	fc 01       	movw	r30, r24
    27fe:	80 a1       	ldd	r24, Z+32	; 0x20
    2800:	88 23       	and	r24, r24
    2802:	b1 f4       	brne	.+44     	; 0x2830 <prvCopyDataToQueue+0x62>
    2804:	8b 81       	ldd	r24, Y+3	; 0x03
    2806:	9c 81       	ldd	r25, Y+4	; 0x04
    2808:	fc 01       	movw	r30, r24
    280a:	80 81       	ld	r24, Z
    280c:	91 81       	ldd	r25, Z+1	; 0x01
    280e:	89 2b       	or	r24, r25
    2810:	09 f0       	breq	.+2      	; 0x2814 <prvCopyDataToQueue+0x46>
    2812:	9c c0       	rjmp	.+312    	; 0x294c <prvCopyDataToQueue+0x17e>
    2814:	8b 81       	ldd	r24, Y+3	; 0x03
    2816:	9c 81       	ldd	r25, Y+4	; 0x04
    2818:	fc 01       	movw	r30, r24
    281a:	84 81       	ldd	r24, Z+4	; 0x04
    281c:	95 81       	ldd	r25, Z+5	; 0x05
    281e:	0e 94 1f 2a 	call	0x543e	; 0x543e <xTaskPriorityDisinherit>
    2822:	89 83       	std	Y+1, r24	; 0x01
    2824:	8b 81       	ldd	r24, Y+3	; 0x03
    2826:	9c 81       	ldd	r25, Y+4	; 0x04
    2828:	fc 01       	movw	r30, r24
    282a:	15 82       	std	Z+5, r1	; 0x05
    282c:	14 82       	std	Z+4, r1	; 0x04
    282e:	8e c0       	rjmp	.+284    	; 0x294c <prvCopyDataToQueue+0x17e>
    2830:	8f 81       	ldd	r24, Y+7	; 0x07
    2832:	88 23       	and	r24, r24
    2834:	d9 f5       	brne	.+118    	; 0x28ac <prvCopyDataToQueue+0xde>
    2836:	8b 81       	ldd	r24, Y+3	; 0x03
    2838:	9c 81       	ldd	r25, Y+4	; 0x04
    283a:	fc 01       	movw	r30, r24
    283c:	80 a1       	ldd	r24, Z+32	; 0x20
    283e:	48 2f       	mov	r20, r24
    2840:	50 e0       	ldi	r21, 0x00	; 0
    2842:	8b 81       	ldd	r24, Y+3	; 0x03
    2844:	9c 81       	ldd	r25, Y+4	; 0x04
    2846:	fc 01       	movw	r30, r24
    2848:	82 81       	ldd	r24, Z+2	; 0x02
    284a:	93 81       	ldd	r25, Z+3	; 0x03
    284c:	2d 81       	ldd	r18, Y+5	; 0x05
    284e:	3e 81       	ldd	r19, Y+6	; 0x06
    2850:	b9 01       	movw	r22, r18
    2852:	0e 94 29 49 	call	0x9252	; 0x9252 <memcpy>
    2856:	8b 81       	ldd	r24, Y+3	; 0x03
    2858:	9c 81       	ldd	r25, Y+4	; 0x04
    285a:	fc 01       	movw	r30, r24
    285c:	22 81       	ldd	r18, Z+2	; 0x02
    285e:	33 81       	ldd	r19, Z+3	; 0x03
    2860:	8b 81       	ldd	r24, Y+3	; 0x03
    2862:	9c 81       	ldd	r25, Y+4	; 0x04
    2864:	fc 01       	movw	r30, r24
    2866:	80 a1       	ldd	r24, Z+32	; 0x20
    2868:	88 2f       	mov	r24, r24
    286a:	90 e0       	ldi	r25, 0x00	; 0
    286c:	28 0f       	add	r18, r24
    286e:	39 1f       	adc	r19, r25
    2870:	8b 81       	ldd	r24, Y+3	; 0x03
    2872:	9c 81       	ldd	r25, Y+4	; 0x04
    2874:	fc 01       	movw	r30, r24
    2876:	33 83       	std	Z+3, r19	; 0x03
    2878:	22 83       	std	Z+2, r18	; 0x02
    287a:	8b 81       	ldd	r24, Y+3	; 0x03
    287c:	9c 81       	ldd	r25, Y+4	; 0x04
    287e:	fc 01       	movw	r30, r24
    2880:	22 81       	ldd	r18, Z+2	; 0x02
    2882:	33 81       	ldd	r19, Z+3	; 0x03
    2884:	8b 81       	ldd	r24, Y+3	; 0x03
    2886:	9c 81       	ldd	r25, Y+4	; 0x04
    2888:	fc 01       	movw	r30, r24
    288a:	84 81       	ldd	r24, Z+4	; 0x04
    288c:	95 81       	ldd	r25, Z+5	; 0x05
    288e:	28 17       	cp	r18, r24
    2890:	39 07       	cpc	r19, r25
    2892:	08 f4       	brcc	.+2      	; 0x2896 <prvCopyDataToQueue+0xc8>
    2894:	5b c0       	rjmp	.+182    	; 0x294c <prvCopyDataToQueue+0x17e>
    2896:	8b 81       	ldd	r24, Y+3	; 0x03
    2898:	9c 81       	ldd	r25, Y+4	; 0x04
    289a:	fc 01       	movw	r30, r24
    289c:	20 81       	ld	r18, Z
    289e:	31 81       	ldd	r19, Z+1	; 0x01
    28a0:	8b 81       	ldd	r24, Y+3	; 0x03
    28a2:	9c 81       	ldd	r25, Y+4	; 0x04
    28a4:	fc 01       	movw	r30, r24
    28a6:	33 83       	std	Z+3, r19	; 0x03
    28a8:	22 83       	std	Z+2, r18	; 0x02
    28aa:	50 c0       	rjmp	.+160    	; 0x294c <prvCopyDataToQueue+0x17e>
    28ac:	8b 81       	ldd	r24, Y+3	; 0x03
    28ae:	9c 81       	ldd	r25, Y+4	; 0x04
    28b0:	fc 01       	movw	r30, r24
    28b2:	80 a1       	ldd	r24, Z+32	; 0x20
    28b4:	48 2f       	mov	r20, r24
    28b6:	50 e0       	ldi	r21, 0x00	; 0
    28b8:	8b 81       	ldd	r24, Y+3	; 0x03
    28ba:	9c 81       	ldd	r25, Y+4	; 0x04
    28bc:	fc 01       	movw	r30, r24
    28be:	86 81       	ldd	r24, Z+6	; 0x06
    28c0:	97 81       	ldd	r25, Z+7	; 0x07
    28c2:	2d 81       	ldd	r18, Y+5	; 0x05
    28c4:	3e 81       	ldd	r19, Y+6	; 0x06
    28c6:	b9 01       	movw	r22, r18
    28c8:	0e 94 29 49 	call	0x9252	; 0x9252 <memcpy>
    28cc:	8b 81       	ldd	r24, Y+3	; 0x03
    28ce:	9c 81       	ldd	r25, Y+4	; 0x04
    28d0:	fc 01       	movw	r30, r24
    28d2:	26 81       	ldd	r18, Z+6	; 0x06
    28d4:	37 81       	ldd	r19, Z+7	; 0x07
    28d6:	8b 81       	ldd	r24, Y+3	; 0x03
    28d8:	9c 81       	ldd	r25, Y+4	; 0x04
    28da:	fc 01       	movw	r30, r24
    28dc:	80 a1       	ldd	r24, Z+32	; 0x20
    28de:	88 2f       	mov	r24, r24
    28e0:	90 e0       	ldi	r25, 0x00	; 0
    28e2:	91 95       	neg	r25
    28e4:	81 95       	neg	r24
    28e6:	91 09       	sbc	r25, r1
    28e8:	28 0f       	add	r18, r24
    28ea:	39 1f       	adc	r19, r25
    28ec:	8b 81       	ldd	r24, Y+3	; 0x03
    28ee:	9c 81       	ldd	r25, Y+4	; 0x04
    28f0:	fc 01       	movw	r30, r24
    28f2:	37 83       	std	Z+7, r19	; 0x07
    28f4:	26 83       	std	Z+6, r18	; 0x06
    28f6:	8b 81       	ldd	r24, Y+3	; 0x03
    28f8:	9c 81       	ldd	r25, Y+4	; 0x04
    28fa:	fc 01       	movw	r30, r24
    28fc:	26 81       	ldd	r18, Z+6	; 0x06
    28fe:	37 81       	ldd	r19, Z+7	; 0x07
    2900:	8b 81       	ldd	r24, Y+3	; 0x03
    2902:	9c 81       	ldd	r25, Y+4	; 0x04
    2904:	fc 01       	movw	r30, r24
    2906:	80 81       	ld	r24, Z
    2908:	91 81       	ldd	r25, Z+1	; 0x01
    290a:	28 17       	cp	r18, r24
    290c:	39 07       	cpc	r19, r25
    290e:	a8 f4       	brcc	.+42     	; 0x293a <prvCopyDataToQueue+0x16c>
    2910:	8b 81       	ldd	r24, Y+3	; 0x03
    2912:	9c 81       	ldd	r25, Y+4	; 0x04
    2914:	fc 01       	movw	r30, r24
    2916:	24 81       	ldd	r18, Z+4	; 0x04
    2918:	35 81       	ldd	r19, Z+5	; 0x05
    291a:	8b 81       	ldd	r24, Y+3	; 0x03
    291c:	9c 81       	ldd	r25, Y+4	; 0x04
    291e:	fc 01       	movw	r30, r24
    2920:	80 a1       	ldd	r24, Z+32	; 0x20
    2922:	88 2f       	mov	r24, r24
    2924:	90 e0       	ldi	r25, 0x00	; 0
    2926:	91 95       	neg	r25
    2928:	81 95       	neg	r24
    292a:	91 09       	sbc	r25, r1
    292c:	28 0f       	add	r18, r24
    292e:	39 1f       	adc	r19, r25
    2930:	8b 81       	ldd	r24, Y+3	; 0x03
    2932:	9c 81       	ldd	r25, Y+4	; 0x04
    2934:	fc 01       	movw	r30, r24
    2936:	37 83       	std	Z+7, r19	; 0x07
    2938:	26 83       	std	Z+6, r18	; 0x06
    293a:	8f 81       	ldd	r24, Y+7	; 0x07
    293c:	82 30       	cpi	r24, 0x02	; 2
    293e:	31 f4       	brne	.+12     	; 0x294c <prvCopyDataToQueue+0x17e>
    2940:	8a 81       	ldd	r24, Y+2	; 0x02
    2942:	88 23       	and	r24, r24
    2944:	19 f0       	breq	.+6      	; 0x294c <prvCopyDataToQueue+0x17e>
    2946:	8a 81       	ldd	r24, Y+2	; 0x02
    2948:	81 50       	subi	r24, 0x01	; 1
    294a:	8a 83       	std	Y+2, r24	; 0x02
    294c:	8a 81       	ldd	r24, Y+2	; 0x02
    294e:	21 e0       	ldi	r18, 0x01	; 1
    2950:	28 0f       	add	r18, r24
    2952:	8b 81       	ldd	r24, Y+3	; 0x03
    2954:	9c 81       	ldd	r25, Y+4	; 0x04
    2956:	fc 01       	movw	r30, r24
    2958:	26 8f       	std	Z+30, r18	; 0x1e
    295a:	89 81       	ldd	r24, Y+1	; 0x01
    295c:	27 96       	adiw	r28, 0x07	; 7
    295e:	0f b6       	in	r0, 0x3f	; 63
    2960:	f8 94       	cli
    2962:	de bf       	out	0x3e, r29	; 62
    2964:	0f be       	out	0x3f, r0	; 63
    2966:	cd bf       	out	0x3d, r28	; 61
    2968:	df 91       	pop	r29
    296a:	cf 91       	pop	r28
    296c:	08 95       	ret

0000296e <prvCopyDataFromQueue>:
    296e:	cf 93       	push	r28
    2970:	df 93       	push	r29
    2972:	00 d0       	rcall	.+0      	; 0x2974 <prvCopyDataFromQueue+0x6>
    2974:	1f 92       	push	r1
    2976:	cd b7       	in	r28, 0x3d	; 61
    2978:	de b7       	in	r29, 0x3e	; 62
    297a:	9a 83       	std	Y+2, r25	; 0x02
    297c:	89 83       	std	Y+1, r24	; 0x01
    297e:	7c 83       	std	Y+4, r23	; 0x04
    2980:	6b 83       	std	Y+3, r22	; 0x03
    2982:	89 81       	ldd	r24, Y+1	; 0x01
    2984:	9a 81       	ldd	r25, Y+2	; 0x02
    2986:	fc 01       	movw	r30, r24
    2988:	80 a1       	ldd	r24, Z+32	; 0x20
    298a:	88 23       	and	r24, r24
    298c:	c9 f1       	breq	.+114    	; 0x2a00 <prvCopyDataFromQueue+0x92>
    298e:	89 81       	ldd	r24, Y+1	; 0x01
    2990:	9a 81       	ldd	r25, Y+2	; 0x02
    2992:	fc 01       	movw	r30, r24
    2994:	26 81       	ldd	r18, Z+6	; 0x06
    2996:	37 81       	ldd	r19, Z+7	; 0x07
    2998:	89 81       	ldd	r24, Y+1	; 0x01
    299a:	9a 81       	ldd	r25, Y+2	; 0x02
    299c:	fc 01       	movw	r30, r24
    299e:	80 a1       	ldd	r24, Z+32	; 0x20
    29a0:	88 2f       	mov	r24, r24
    29a2:	90 e0       	ldi	r25, 0x00	; 0
    29a4:	28 0f       	add	r18, r24
    29a6:	39 1f       	adc	r19, r25
    29a8:	89 81       	ldd	r24, Y+1	; 0x01
    29aa:	9a 81       	ldd	r25, Y+2	; 0x02
    29ac:	fc 01       	movw	r30, r24
    29ae:	37 83       	std	Z+7, r19	; 0x07
    29b0:	26 83       	std	Z+6, r18	; 0x06
    29b2:	89 81       	ldd	r24, Y+1	; 0x01
    29b4:	9a 81       	ldd	r25, Y+2	; 0x02
    29b6:	fc 01       	movw	r30, r24
    29b8:	26 81       	ldd	r18, Z+6	; 0x06
    29ba:	37 81       	ldd	r19, Z+7	; 0x07
    29bc:	89 81       	ldd	r24, Y+1	; 0x01
    29be:	9a 81       	ldd	r25, Y+2	; 0x02
    29c0:	fc 01       	movw	r30, r24
    29c2:	84 81       	ldd	r24, Z+4	; 0x04
    29c4:	95 81       	ldd	r25, Z+5	; 0x05
    29c6:	28 17       	cp	r18, r24
    29c8:	39 07       	cpc	r19, r25
    29ca:	50 f0       	brcs	.+20     	; 0x29e0 <prvCopyDataFromQueue+0x72>
    29cc:	89 81       	ldd	r24, Y+1	; 0x01
    29ce:	9a 81       	ldd	r25, Y+2	; 0x02
    29d0:	fc 01       	movw	r30, r24
    29d2:	20 81       	ld	r18, Z
    29d4:	31 81       	ldd	r19, Z+1	; 0x01
    29d6:	89 81       	ldd	r24, Y+1	; 0x01
    29d8:	9a 81       	ldd	r25, Y+2	; 0x02
    29da:	fc 01       	movw	r30, r24
    29dc:	37 83       	std	Z+7, r19	; 0x07
    29de:	26 83       	std	Z+6, r18	; 0x06
    29e0:	89 81       	ldd	r24, Y+1	; 0x01
    29e2:	9a 81       	ldd	r25, Y+2	; 0x02
    29e4:	fc 01       	movw	r30, r24
    29e6:	80 a1       	ldd	r24, Z+32	; 0x20
    29e8:	48 2f       	mov	r20, r24
    29ea:	50 e0       	ldi	r21, 0x00	; 0
    29ec:	89 81       	ldd	r24, Y+1	; 0x01
    29ee:	9a 81       	ldd	r25, Y+2	; 0x02
    29f0:	fc 01       	movw	r30, r24
    29f2:	26 81       	ldd	r18, Z+6	; 0x06
    29f4:	37 81       	ldd	r19, Z+7	; 0x07
    29f6:	8b 81       	ldd	r24, Y+3	; 0x03
    29f8:	9c 81       	ldd	r25, Y+4	; 0x04
    29fa:	b9 01       	movw	r22, r18
    29fc:	0e 94 29 49 	call	0x9252	; 0x9252 <memcpy>
    2a00:	00 00       	nop
    2a02:	0f 90       	pop	r0
    2a04:	0f 90       	pop	r0
    2a06:	0f 90       	pop	r0
    2a08:	0f 90       	pop	r0
    2a0a:	df 91       	pop	r29
    2a0c:	cf 91       	pop	r28
    2a0e:	08 95       	ret

00002a10 <prvUnlockQueue>:
    2a10:	cf 93       	push	r28
    2a12:	df 93       	push	r29
    2a14:	00 d0       	rcall	.+0      	; 0x2a16 <prvUnlockQueue+0x6>
    2a16:	1f 92       	push	r1
    2a18:	cd b7       	in	r28, 0x3d	; 61
    2a1a:	de b7       	in	r29, 0x3e	; 62
    2a1c:	9c 83       	std	Y+4, r25	; 0x04
    2a1e:	8b 83       	std	Y+3, r24	; 0x03
    2a20:	0f b6       	in	r0, 0x3f	; 63
    2a22:	f8 94       	cli
    2a24:	0f 92       	push	r0
    2a26:	8b 81       	ldd	r24, Y+3	; 0x03
    2a28:	9c 81       	ldd	r25, Y+4	; 0x04
    2a2a:	fc 01       	movw	r30, r24
    2a2c:	82 a1       	ldd	r24, Z+34	; 0x22
    2a2e:	89 83       	std	Y+1, r24	; 0x01
    2a30:	12 c0       	rjmp	.+36     	; 0x2a56 <prvUnlockQueue+0x46>
    2a32:	8b 81       	ldd	r24, Y+3	; 0x03
    2a34:	9c 81       	ldd	r25, Y+4	; 0x04
    2a36:	fc 01       	movw	r30, r24
    2a38:	83 89       	ldd	r24, Z+19	; 0x13
    2a3a:	88 23       	and	r24, r24
    2a3c:	81 f0       	breq	.+32     	; 0x2a5e <prvUnlockQueue+0x4e>
    2a3e:	8b 81       	ldd	r24, Y+3	; 0x03
    2a40:	9c 81       	ldd	r25, Y+4	; 0x04
    2a42:	43 96       	adiw	r24, 0x13	; 19
    2a44:	0e 94 7d 24 	call	0x48fa	; 0x48fa <xTaskRemoveFromEventList>
    2a48:	88 23       	and	r24, r24
    2a4a:	11 f0       	breq	.+4      	; 0x2a50 <prvUnlockQueue+0x40>
    2a4c:	0e 94 1d 28 	call	0x503a	; 0x503a <vTaskMissedYield>
    2a50:	89 81       	ldd	r24, Y+1	; 0x01
    2a52:	81 50       	subi	r24, 0x01	; 1
    2a54:	89 83       	std	Y+1, r24	; 0x01
    2a56:	89 81       	ldd	r24, Y+1	; 0x01
    2a58:	18 16       	cp	r1, r24
    2a5a:	5c f3       	brlt	.-42     	; 0x2a32 <prvUnlockQueue+0x22>
    2a5c:	01 c0       	rjmp	.+2      	; 0x2a60 <prvUnlockQueue+0x50>
    2a5e:	00 00       	nop
    2a60:	8b 81       	ldd	r24, Y+3	; 0x03
    2a62:	9c 81       	ldd	r25, Y+4	; 0x04
    2a64:	2f ef       	ldi	r18, 0xFF	; 255
    2a66:	fc 01       	movw	r30, r24
    2a68:	22 a3       	std	Z+34, r18	; 0x22
    2a6a:	0f 90       	pop	r0
    2a6c:	0f be       	out	0x3f, r0	; 63
    2a6e:	0f b6       	in	r0, 0x3f	; 63
    2a70:	f8 94       	cli
    2a72:	0f 92       	push	r0
    2a74:	8b 81       	ldd	r24, Y+3	; 0x03
    2a76:	9c 81       	ldd	r25, Y+4	; 0x04
    2a78:	fc 01       	movw	r30, r24
    2a7a:	81 a1       	ldd	r24, Z+33	; 0x21
    2a7c:	8a 83       	std	Y+2, r24	; 0x02
    2a7e:	12 c0       	rjmp	.+36     	; 0x2aa4 <prvUnlockQueue+0x94>
    2a80:	8b 81       	ldd	r24, Y+3	; 0x03
    2a82:	9c 81       	ldd	r25, Y+4	; 0x04
    2a84:	fc 01       	movw	r30, r24
    2a86:	80 85       	ldd	r24, Z+8	; 0x08
    2a88:	88 23       	and	r24, r24
    2a8a:	81 f0       	breq	.+32     	; 0x2aac <prvUnlockQueue+0x9c>
    2a8c:	8b 81       	ldd	r24, Y+3	; 0x03
    2a8e:	9c 81       	ldd	r25, Y+4	; 0x04
    2a90:	08 96       	adiw	r24, 0x08	; 8
    2a92:	0e 94 7d 24 	call	0x48fa	; 0x48fa <xTaskRemoveFromEventList>
    2a96:	88 23       	and	r24, r24
    2a98:	11 f0       	breq	.+4      	; 0x2a9e <prvUnlockQueue+0x8e>
    2a9a:	0e 94 1d 28 	call	0x503a	; 0x503a <vTaskMissedYield>
    2a9e:	8a 81       	ldd	r24, Y+2	; 0x02
    2aa0:	81 50       	subi	r24, 0x01	; 1
    2aa2:	8a 83       	std	Y+2, r24	; 0x02
    2aa4:	8a 81       	ldd	r24, Y+2	; 0x02
    2aa6:	18 16       	cp	r1, r24
    2aa8:	5c f3       	brlt	.-42     	; 0x2a80 <prvUnlockQueue+0x70>
    2aaa:	01 c0       	rjmp	.+2      	; 0x2aae <prvUnlockQueue+0x9e>
    2aac:	00 00       	nop
    2aae:	8b 81       	ldd	r24, Y+3	; 0x03
    2ab0:	9c 81       	ldd	r25, Y+4	; 0x04
    2ab2:	2f ef       	ldi	r18, 0xFF	; 255
    2ab4:	fc 01       	movw	r30, r24
    2ab6:	21 a3       	std	Z+33, r18	; 0x21
    2ab8:	0f 90       	pop	r0
    2aba:	0f be       	out	0x3f, r0	; 63
    2abc:	00 00       	nop
    2abe:	0f 90       	pop	r0
    2ac0:	0f 90       	pop	r0
    2ac2:	0f 90       	pop	r0
    2ac4:	0f 90       	pop	r0
    2ac6:	df 91       	pop	r29
    2ac8:	cf 91       	pop	r28
    2aca:	08 95       	ret

00002acc <prvIsQueueEmpty>:
    2acc:	cf 93       	push	r28
    2ace:	df 93       	push	r29
    2ad0:	00 d0       	rcall	.+0      	; 0x2ad2 <prvIsQueueEmpty+0x6>
    2ad2:	cd b7       	in	r28, 0x3d	; 61
    2ad4:	de b7       	in	r29, 0x3e	; 62
    2ad6:	9b 83       	std	Y+3, r25	; 0x03
    2ad8:	8a 83       	std	Y+2, r24	; 0x02
    2ada:	0f b6       	in	r0, 0x3f	; 63
    2adc:	f8 94       	cli
    2ade:	0f 92       	push	r0
    2ae0:	8a 81       	ldd	r24, Y+2	; 0x02
    2ae2:	9b 81       	ldd	r25, Y+3	; 0x03
    2ae4:	fc 01       	movw	r30, r24
    2ae6:	86 8d       	ldd	r24, Z+30	; 0x1e
    2ae8:	88 23       	and	r24, r24
    2aea:	19 f4       	brne	.+6      	; 0x2af2 <prvIsQueueEmpty+0x26>
    2aec:	81 e0       	ldi	r24, 0x01	; 1
    2aee:	89 83       	std	Y+1, r24	; 0x01
    2af0:	01 c0       	rjmp	.+2      	; 0x2af4 <prvIsQueueEmpty+0x28>
    2af2:	19 82       	std	Y+1, r1	; 0x01
    2af4:	0f 90       	pop	r0
    2af6:	0f be       	out	0x3f, r0	; 63
    2af8:	89 81       	ldd	r24, Y+1	; 0x01
    2afa:	0f 90       	pop	r0
    2afc:	0f 90       	pop	r0
    2afe:	0f 90       	pop	r0
    2b00:	df 91       	pop	r29
    2b02:	cf 91       	pop	r28
    2b04:	08 95       	ret

00002b06 <prvIsQueueFull>:
    2b06:	cf 93       	push	r28
    2b08:	df 93       	push	r29
    2b0a:	00 d0       	rcall	.+0      	; 0x2b0c <prvIsQueueFull+0x6>
    2b0c:	cd b7       	in	r28, 0x3d	; 61
    2b0e:	de b7       	in	r29, 0x3e	; 62
    2b10:	9b 83       	std	Y+3, r25	; 0x03
    2b12:	8a 83       	std	Y+2, r24	; 0x02
    2b14:	0f b6       	in	r0, 0x3f	; 63
    2b16:	f8 94       	cli
    2b18:	0f 92       	push	r0
    2b1a:	8a 81       	ldd	r24, Y+2	; 0x02
    2b1c:	9b 81       	ldd	r25, Y+3	; 0x03
    2b1e:	fc 01       	movw	r30, r24
    2b20:	26 8d       	ldd	r18, Z+30	; 0x1e
    2b22:	8a 81       	ldd	r24, Y+2	; 0x02
    2b24:	9b 81       	ldd	r25, Y+3	; 0x03
    2b26:	fc 01       	movw	r30, r24
    2b28:	87 8d       	ldd	r24, Z+31	; 0x1f
    2b2a:	28 17       	cp	r18, r24
    2b2c:	19 f4       	brne	.+6      	; 0x2b34 <prvIsQueueFull+0x2e>
    2b2e:	81 e0       	ldi	r24, 0x01	; 1
    2b30:	89 83       	std	Y+1, r24	; 0x01
    2b32:	01 c0       	rjmp	.+2      	; 0x2b36 <prvIsQueueFull+0x30>
    2b34:	19 82       	std	Y+1, r1	; 0x01
    2b36:	0f 90       	pop	r0
    2b38:	0f be       	out	0x3f, r0	; 63
    2b3a:	89 81       	ldd	r24, Y+1	; 0x01
    2b3c:	0f 90       	pop	r0
    2b3e:	0f 90       	pop	r0
    2b40:	0f 90       	pop	r0
    2b42:	df 91       	pop	r29
    2b44:	cf 91       	pop	r28
    2b46:	08 95       	ret

00002b48 <vQueueWaitForMessageRestricted>:
    2b48:	cf 93       	push	r28
    2b4a:	df 93       	push	r29
    2b4c:	cd b7       	in	r28, 0x3d	; 61
    2b4e:	de b7       	in	r29, 0x3e	; 62
    2b50:	29 97       	sbiw	r28, 0x09	; 9
    2b52:	0f b6       	in	r0, 0x3f	; 63
    2b54:	f8 94       	cli
    2b56:	de bf       	out	0x3e, r29	; 62
    2b58:	0f be       	out	0x3f, r0	; 63
    2b5a:	cd bf       	out	0x3d, r28	; 61
    2b5c:	9c 83       	std	Y+4, r25	; 0x04
    2b5e:	8b 83       	std	Y+3, r24	; 0x03
    2b60:	4d 83       	std	Y+5, r20	; 0x05
    2b62:	5e 83       	std	Y+6, r21	; 0x06
    2b64:	6f 83       	std	Y+7, r22	; 0x07
    2b66:	78 87       	std	Y+8, r23	; 0x08
    2b68:	29 87       	std	Y+9, r18	; 0x09
    2b6a:	8b 81       	ldd	r24, Y+3	; 0x03
    2b6c:	9c 81       	ldd	r25, Y+4	; 0x04
    2b6e:	9a 83       	std	Y+2, r25	; 0x02
    2b70:	89 83       	std	Y+1, r24	; 0x01
    2b72:	0f b6       	in	r0, 0x3f	; 63
    2b74:	f8 94       	cli
    2b76:	0f 92       	push	r0
    2b78:	89 81       	ldd	r24, Y+1	; 0x01
    2b7a:	9a 81       	ldd	r25, Y+2	; 0x02
    2b7c:	fc 01       	movw	r30, r24
    2b7e:	81 a1       	ldd	r24, Z+33	; 0x21
    2b80:	8f 3f       	cpi	r24, 0xFF	; 255
    2b82:	21 f4       	brne	.+8      	; 0x2b8c <vQueueWaitForMessageRestricted+0x44>
    2b84:	89 81       	ldd	r24, Y+1	; 0x01
    2b86:	9a 81       	ldd	r25, Y+2	; 0x02
    2b88:	fc 01       	movw	r30, r24
    2b8a:	11 a2       	std	Z+33, r1	; 0x21
    2b8c:	89 81       	ldd	r24, Y+1	; 0x01
    2b8e:	9a 81       	ldd	r25, Y+2	; 0x02
    2b90:	fc 01       	movw	r30, r24
    2b92:	82 a1       	ldd	r24, Z+34	; 0x22
    2b94:	8f 3f       	cpi	r24, 0xFF	; 255
    2b96:	21 f4       	brne	.+8      	; 0x2ba0 <vQueueWaitForMessageRestricted+0x58>
    2b98:	89 81       	ldd	r24, Y+1	; 0x01
    2b9a:	9a 81       	ldd	r25, Y+2	; 0x02
    2b9c:	fc 01       	movw	r30, r24
    2b9e:	12 a2       	std	Z+34, r1	; 0x22
    2ba0:	0f 90       	pop	r0
    2ba2:	0f be       	out	0x3f, r0	; 63
    2ba4:	89 81       	ldd	r24, Y+1	; 0x01
    2ba6:	9a 81       	ldd	r25, Y+2	; 0x02
    2ba8:	fc 01       	movw	r30, r24
    2baa:	86 8d       	ldd	r24, Z+30	; 0x1e
    2bac:	88 23       	and	r24, r24
    2bae:	71 f4       	brne	.+28     	; 0x2bcc <vQueueWaitForMessageRestricted+0x84>
    2bb0:	89 81       	ldd	r24, Y+1	; 0x01
    2bb2:	9a 81       	ldd	r25, Y+2	; 0x02
    2bb4:	fc 01       	movw	r30, r24
    2bb6:	73 96       	adiw	r30, 0x13	; 19
    2bb8:	8d 81       	ldd	r24, Y+5	; 0x05
    2bba:	9e 81       	ldd	r25, Y+6	; 0x06
    2bbc:	af 81       	ldd	r26, Y+7	; 0x07
    2bbe:	b8 85       	ldd	r27, Y+8	; 0x08
    2bc0:	29 85       	ldd	r18, Y+9	; 0x09
    2bc2:	ac 01       	movw	r20, r24
    2bc4:	bd 01       	movw	r22, r26
    2bc6:	cf 01       	movw	r24, r30
    2bc8:	0e 94 06 24 	call	0x480c	; 0x480c <vTaskPlaceOnEventListRestricted>
    2bcc:	89 81       	ldd	r24, Y+1	; 0x01
    2bce:	9a 81       	ldd	r25, Y+2	; 0x02
    2bd0:	1f df       	rcall	.-450    	; 0x2a10 <prvUnlockQueue>
    2bd2:	00 00       	nop
    2bd4:	29 96       	adiw	r28, 0x09	; 9
    2bd6:	0f b6       	in	r0, 0x3f	; 63
    2bd8:	f8 94       	cli
    2bda:	de bf       	out	0x3e, r29	; 62
    2bdc:	0f be       	out	0x3f, r0	; 63
    2bde:	cd bf       	out	0x3d, r28	; 61
    2be0:	df 91       	pop	r29
    2be2:	cf 91       	pop	r28
    2be4:	08 95       	ret

00002be6 <xStreamBufferGenericCreate>:
    2be6:	0f 93       	push	r16
    2be8:	cf 93       	push	r28
    2bea:	df 93       	push	r29
    2bec:	cd b7       	in	r28, 0x3d	; 61
    2bee:	de b7       	in	r29, 0x3e	; 62
    2bf0:	28 97       	sbiw	r28, 0x08	; 8
    2bf2:	0f b6       	in	r0, 0x3f	; 63
    2bf4:	f8 94       	cli
    2bf6:	de bf       	out	0x3e, r29	; 62
    2bf8:	0f be       	out	0x3f, r0	; 63
    2bfa:	cd bf       	out	0x3d, r28	; 61
    2bfc:	9d 83       	std	Y+5, r25	; 0x05
    2bfe:	8c 83       	std	Y+4, r24	; 0x04
    2c00:	7f 83       	std	Y+7, r23	; 0x07
    2c02:	6e 83       	std	Y+6, r22	; 0x06
    2c04:	48 87       	std	Y+8, r20	; 0x08
    2c06:	88 85       	ldd	r24, Y+8	; 0x08
    2c08:	81 30       	cpi	r24, 0x01	; 1
    2c0a:	19 f4       	brne	.+6      	; 0x2c12 <xStreamBufferGenericCreate+0x2c>
    2c0c:	81 e0       	ldi	r24, 0x01	; 1
    2c0e:	8b 83       	std	Y+3, r24	; 0x03
    2c10:	01 c0       	rjmp	.+2      	; 0x2c14 <xStreamBufferGenericCreate+0x2e>
    2c12:	1b 82       	std	Y+3, r1	; 0x03
    2c14:	8e 81       	ldd	r24, Y+6	; 0x06
    2c16:	9f 81       	ldd	r25, Y+7	; 0x07
    2c18:	89 2b       	or	r24, r25
    2c1a:	21 f4       	brne	.+8      	; 0x2c24 <xStreamBufferGenericCreate+0x3e>
    2c1c:	81 e0       	ldi	r24, 0x01	; 1
    2c1e:	90 e0       	ldi	r25, 0x00	; 0
    2c20:	9f 83       	std	Y+7, r25	; 0x07
    2c22:	8e 83       	std	Y+6, r24	; 0x06
    2c24:	8c 81       	ldd	r24, Y+4	; 0x04
    2c26:	9d 81       	ldd	r25, Y+5	; 0x05
    2c28:	9c 01       	movw	r18, r24
    2c2a:	20 5f       	subi	r18, 0xF0	; 240
    2c2c:	3f 4f       	sbci	r19, 0xFF	; 255
    2c2e:	8c 81       	ldd	r24, Y+4	; 0x04
    2c30:	9d 81       	ldd	r25, Y+5	; 0x05
    2c32:	82 17       	cp	r24, r18
    2c34:	93 07       	cpc	r25, r19
    2c36:	68 f4       	brcc	.+26     	; 0x2c52 <xStreamBufferGenericCreate+0x6c>
    2c38:	8c 81       	ldd	r24, Y+4	; 0x04
    2c3a:	9d 81       	ldd	r25, Y+5	; 0x05
    2c3c:	01 96       	adiw	r24, 0x01	; 1
    2c3e:	9d 83       	std	Y+5, r25	; 0x05
    2c40:	8c 83       	std	Y+4, r24	; 0x04
    2c42:	8c 81       	ldd	r24, Y+4	; 0x04
    2c44:	9d 81       	ldd	r25, Y+5	; 0x05
    2c46:	0f 96       	adiw	r24, 0x0f	; 15
    2c48:	0e 94 19 0a 	call	0x1432	; 0x1432 <pvPortMalloc>
    2c4c:	9a 83       	std	Y+2, r25	; 0x02
    2c4e:	89 83       	std	Y+1, r24	; 0x01
    2c50:	02 c0       	rjmp	.+4      	; 0x2c56 <xStreamBufferGenericCreate+0x70>
    2c52:	1a 82       	std	Y+2, r1	; 0x02
    2c54:	19 82       	std	Y+1, r1	; 0x01
    2c56:	89 81       	ldd	r24, Y+1	; 0x01
    2c58:	9a 81       	ldd	r25, Y+2	; 0x02
    2c5a:	89 2b       	or	r24, r25
    2c5c:	69 f0       	breq	.+26     	; 0x2c78 <xStreamBufferGenericCreate+0x92>
    2c5e:	89 81       	ldd	r24, Y+1	; 0x01
    2c60:	9a 81       	ldd	r25, Y+2	; 0x02
    2c62:	bc 01       	movw	r22, r24
    2c64:	61 5f       	subi	r22, 0xF1	; 241
    2c66:	7f 4f       	sbci	r23, 0xFF	; 255
    2c68:	2e 81       	ldd	r18, Y+6	; 0x06
    2c6a:	3f 81       	ldd	r19, Y+7	; 0x07
    2c6c:	4c 81       	ldd	r20, Y+4	; 0x04
    2c6e:	5d 81       	ldd	r21, Y+5	; 0x05
    2c70:	89 81       	ldd	r24, Y+1	; 0x01
    2c72:	9a 81       	ldd	r25, Y+2	; 0x02
    2c74:	0b 81       	ldd	r16, Y+3	; 0x03
    2c76:	38 d5       	rcall	.+2672   	; 0x36e8 <prvInitialiseNewStreamBuffer>
    2c78:	89 81       	ldd	r24, Y+1	; 0x01
    2c7a:	9a 81       	ldd	r25, Y+2	; 0x02
    2c7c:	28 96       	adiw	r28, 0x08	; 8
    2c7e:	0f b6       	in	r0, 0x3f	; 63
    2c80:	f8 94       	cli
    2c82:	de bf       	out	0x3e, r29	; 62
    2c84:	0f be       	out	0x3f, r0	; 63
    2c86:	cd bf       	out	0x3d, r28	; 61
    2c88:	df 91       	pop	r29
    2c8a:	cf 91       	pop	r28
    2c8c:	0f 91       	pop	r16
    2c8e:	08 95       	ret

00002c90 <xStreamBufferReset>:
    2c90:	0f 93       	push	r16
    2c92:	cf 93       	push	r28
    2c94:	df 93       	push	r29
    2c96:	00 d0       	rcall	.+0      	; 0x2c98 <xStreamBufferReset+0x8>
    2c98:	1f 92       	push	r1
    2c9a:	1f 92       	push	r1
    2c9c:	cd b7       	in	r28, 0x3d	; 61
    2c9e:	de b7       	in	r29, 0x3e	; 62
    2ca0:	9d 83       	std	Y+5, r25	; 0x05
    2ca2:	8c 83       	std	Y+4, r24	; 0x04
    2ca4:	8c 81       	ldd	r24, Y+4	; 0x04
    2ca6:	9d 81       	ldd	r25, Y+5	; 0x05
    2ca8:	9b 83       	std	Y+3, r25	; 0x03
    2caa:	8a 83       	std	Y+2, r24	; 0x02
    2cac:	19 82       	std	Y+1, r1	; 0x01
    2cae:	0f b6       	in	r0, 0x3f	; 63
    2cb0:	f8 94       	cli
    2cb2:	0f 92       	push	r0
    2cb4:	8a 81       	ldd	r24, Y+2	; 0x02
    2cb6:	9b 81       	ldd	r25, Y+3	; 0x03
    2cb8:	dc 01       	movw	r26, r24
    2cba:	18 96       	adiw	r26, 0x08	; 8
    2cbc:	8d 91       	ld	r24, X+
    2cbe:	9c 91       	ld	r25, X
    2cc0:	19 97       	sbiw	r26, 0x09	; 9
    2cc2:	89 2b       	or	r24, r25
    2cc4:	39 f5       	brne	.+78     	; 0x2d14 <xStreamBufferReset+0x84>
    2cc6:	8a 81       	ldd	r24, Y+2	; 0x02
    2cc8:	9b 81       	ldd	r25, Y+3	; 0x03
    2cca:	fc 01       	movw	r30, r24
    2ccc:	82 85       	ldd	r24, Z+10	; 0x0a
    2cce:	93 85       	ldd	r25, Z+11	; 0x0b
    2cd0:	89 2b       	or	r24, r25
    2cd2:	01 f5       	brne	.+64     	; 0x2d14 <xStreamBufferReset+0x84>
    2cd4:	8a 81       	ldd	r24, Y+2	; 0x02
    2cd6:	9b 81       	ldd	r25, Y+3	; 0x03
    2cd8:	dc 01       	movw	r26, r24
    2cda:	1e 96       	adiw	r26, 0x0e	; 14
    2cdc:	ec 91       	ld	r30, X
    2cde:	8a 81       	ldd	r24, Y+2	; 0x02
    2ce0:	9b 81       	ldd	r25, Y+3	; 0x03
    2ce2:	dc 01       	movw	r26, r24
    2ce4:	16 96       	adiw	r26, 0x06	; 6
    2ce6:	2d 91       	ld	r18, X+
    2ce8:	3c 91       	ld	r19, X
    2cea:	17 97       	sbiw	r26, 0x07	; 7
    2cec:	8a 81       	ldd	r24, Y+2	; 0x02
    2cee:	9b 81       	ldd	r25, Y+3	; 0x03
    2cf0:	dc 01       	movw	r26, r24
    2cf2:	14 96       	adiw	r26, 0x04	; 4
    2cf4:	4d 91       	ld	r20, X+
    2cf6:	5c 91       	ld	r21, X
    2cf8:	15 97       	sbiw	r26, 0x05	; 5
    2cfa:	8a 81       	ldd	r24, Y+2	; 0x02
    2cfc:	9b 81       	ldd	r25, Y+3	; 0x03
    2cfe:	dc 01       	movw	r26, r24
    2d00:	1c 96       	adiw	r26, 0x0c	; 12
    2d02:	6d 91       	ld	r22, X+
    2d04:	7c 91       	ld	r23, X
    2d06:	1d 97       	sbiw	r26, 0x0d	; 13
    2d08:	8a 81       	ldd	r24, Y+2	; 0x02
    2d0a:	9b 81       	ldd	r25, Y+3	; 0x03
    2d0c:	0e 2f       	mov	r16, r30
    2d0e:	ec d4       	rcall	.+2520   	; 0x36e8 <prvInitialiseNewStreamBuffer>
    2d10:	81 e0       	ldi	r24, 0x01	; 1
    2d12:	89 83       	std	Y+1, r24	; 0x01
    2d14:	0f 90       	pop	r0
    2d16:	0f be       	out	0x3f, r0	; 63
    2d18:	89 81       	ldd	r24, Y+1	; 0x01
    2d1a:	0f 90       	pop	r0
    2d1c:	0f 90       	pop	r0
    2d1e:	0f 90       	pop	r0
    2d20:	0f 90       	pop	r0
    2d22:	0f 90       	pop	r0
    2d24:	df 91       	pop	r29
    2d26:	cf 91       	pop	r28
    2d28:	0f 91       	pop	r16
    2d2a:	08 95       	ret

00002d2c <xStreamBufferSpacesAvailable>:
    2d2c:	cf 93       	push	r28
    2d2e:	df 93       	push	r29
    2d30:	00 d0       	rcall	.+0      	; 0x2d32 <xStreamBufferSpacesAvailable+0x6>
    2d32:	00 d0       	rcall	.+0      	; 0x2d34 <xStreamBufferSpacesAvailable+0x8>
    2d34:	cd b7       	in	r28, 0x3d	; 61
    2d36:	de b7       	in	r29, 0x3e	; 62
    2d38:	9e 83       	std	Y+6, r25	; 0x06
    2d3a:	8d 83       	std	Y+5, r24	; 0x05
    2d3c:	8d 81       	ldd	r24, Y+5	; 0x05
    2d3e:	9e 81       	ldd	r25, Y+6	; 0x06
    2d40:	9c 83       	std	Y+4, r25	; 0x04
    2d42:	8b 83       	std	Y+3, r24	; 0x03
    2d44:	8b 81       	ldd	r24, Y+3	; 0x03
    2d46:	9c 81       	ldd	r25, Y+4	; 0x04
    2d48:	fc 01       	movw	r30, r24
    2d4a:	24 81       	ldd	r18, Z+4	; 0x04
    2d4c:	35 81       	ldd	r19, Z+5	; 0x05
    2d4e:	8b 81       	ldd	r24, Y+3	; 0x03
    2d50:	9c 81       	ldd	r25, Y+4	; 0x04
    2d52:	fc 01       	movw	r30, r24
    2d54:	80 81       	ld	r24, Z
    2d56:	91 81       	ldd	r25, Z+1	; 0x01
    2d58:	82 0f       	add	r24, r18
    2d5a:	93 1f       	adc	r25, r19
    2d5c:	9a 83       	std	Y+2, r25	; 0x02
    2d5e:	89 83       	std	Y+1, r24	; 0x01
    2d60:	8b 81       	ldd	r24, Y+3	; 0x03
    2d62:	9c 81       	ldd	r25, Y+4	; 0x04
    2d64:	fc 01       	movw	r30, r24
    2d66:	82 81       	ldd	r24, Z+2	; 0x02
    2d68:	93 81       	ldd	r25, Z+3	; 0x03
    2d6a:	29 81       	ldd	r18, Y+1	; 0x01
    2d6c:	3a 81       	ldd	r19, Y+2	; 0x02
    2d6e:	a9 01       	movw	r20, r18
    2d70:	48 1b       	sub	r20, r24
    2d72:	59 0b       	sbc	r21, r25
    2d74:	ca 01       	movw	r24, r20
    2d76:	9a 83       	std	Y+2, r25	; 0x02
    2d78:	89 83       	std	Y+1, r24	; 0x01
    2d7a:	89 81       	ldd	r24, Y+1	; 0x01
    2d7c:	9a 81       	ldd	r25, Y+2	; 0x02
    2d7e:	01 97       	sbiw	r24, 0x01	; 1
    2d80:	9a 83       	std	Y+2, r25	; 0x02
    2d82:	89 83       	std	Y+1, r24	; 0x01
    2d84:	8b 81       	ldd	r24, Y+3	; 0x03
    2d86:	9c 81       	ldd	r25, Y+4	; 0x04
    2d88:	fc 01       	movw	r30, r24
    2d8a:	24 81       	ldd	r18, Z+4	; 0x04
    2d8c:	35 81       	ldd	r19, Z+5	; 0x05
    2d8e:	89 81       	ldd	r24, Y+1	; 0x01
    2d90:	9a 81       	ldd	r25, Y+2	; 0x02
    2d92:	82 17       	cp	r24, r18
    2d94:	93 07       	cpc	r25, r19
    2d96:	68 f0       	brcs	.+26     	; 0x2db2 <xStreamBufferSpacesAvailable+0x86>
    2d98:	8b 81       	ldd	r24, Y+3	; 0x03
    2d9a:	9c 81       	ldd	r25, Y+4	; 0x04
    2d9c:	fc 01       	movw	r30, r24
    2d9e:	84 81       	ldd	r24, Z+4	; 0x04
    2da0:	95 81       	ldd	r25, Z+5	; 0x05
    2da2:	29 81       	ldd	r18, Y+1	; 0x01
    2da4:	3a 81       	ldd	r19, Y+2	; 0x02
    2da6:	a9 01       	movw	r20, r18
    2da8:	48 1b       	sub	r20, r24
    2daa:	59 0b       	sbc	r21, r25
    2dac:	ca 01       	movw	r24, r20
    2dae:	9a 83       	std	Y+2, r25	; 0x02
    2db0:	89 83       	std	Y+1, r24	; 0x01
    2db2:	89 81       	ldd	r24, Y+1	; 0x01
    2db4:	9a 81       	ldd	r25, Y+2	; 0x02
    2db6:	26 96       	adiw	r28, 0x06	; 6
    2db8:	0f b6       	in	r0, 0x3f	; 63
    2dba:	f8 94       	cli
    2dbc:	de bf       	out	0x3e, r29	; 62
    2dbe:	0f be       	out	0x3f, r0	; 63
    2dc0:	cd bf       	out	0x3d, r28	; 61
    2dc2:	df 91       	pop	r29
    2dc4:	cf 91       	pop	r28
    2dc6:	08 95       	ret

00002dc8 <xStreamBufferSend>:
    2dc8:	af 92       	push	r10
    2dca:	bf 92       	push	r11
    2dcc:	cf 92       	push	r12
    2dce:	df 92       	push	r13
    2dd0:	ef 92       	push	r14
    2dd2:	ff 92       	push	r15
    2dd4:	0f 93       	push	r16
    2dd6:	1f 93       	push	r17
    2dd8:	cf 93       	push	r28
    2dda:	df 93       	push	r29
    2ddc:	cd b7       	in	r28, 0x3d	; 61
    2dde:	de b7       	in	r29, 0x3e	; 62
    2de0:	69 97       	sbiw	r28, 0x19	; 25
    2de2:	0f b6       	in	r0, 0x3f	; 63
    2de4:	f8 94       	cli
    2de6:	de bf       	out	0x3e, r29	; 62
    2de8:	0f be       	out	0x3f, r0	; 63
    2dea:	cd bf       	out	0x3d, r28	; 61
    2dec:	99 8b       	std	Y+17, r25	; 0x11
    2dee:	88 8b       	std	Y+16, r24	; 0x10
    2df0:	7b 8b       	std	Y+19, r23	; 0x13
    2df2:	6a 8b       	std	Y+18, r22	; 0x12
    2df4:	5d 8b       	std	Y+21, r21	; 0x15
    2df6:	4c 8b       	std	Y+20, r20	; 0x14
    2df8:	0e 8b       	std	Y+22, r16	; 0x16
    2dfa:	1f 8b       	std	Y+23, r17	; 0x17
    2dfc:	28 8f       	std	Y+24, r18	; 0x18
    2dfe:	39 8f       	std	Y+25, r19	; 0x19
    2e00:	88 89       	ldd	r24, Y+16	; 0x10
    2e02:	99 89       	ldd	r25, Y+17	; 0x11
    2e04:	9e 83       	std	Y+6, r25	; 0x06
    2e06:	8d 83       	std	Y+5, r24	; 0x05
    2e08:	1a 82       	std	Y+2, r1	; 0x02
    2e0a:	19 82       	std	Y+1, r1	; 0x01
    2e0c:	8c 89       	ldd	r24, Y+20	; 0x14
    2e0e:	9d 89       	ldd	r25, Y+21	; 0x15
    2e10:	9c 83       	std	Y+4, r25	; 0x04
    2e12:	8b 83       	std	Y+3, r24	; 0x03
    2e14:	8d 81       	ldd	r24, Y+5	; 0x05
    2e16:	9e 81       	ldd	r25, Y+6	; 0x06
    2e18:	fc 01       	movw	r30, r24
    2e1a:	84 81       	ldd	r24, Z+4	; 0x04
    2e1c:	95 81       	ldd	r25, Z+5	; 0x05
    2e1e:	01 97       	sbiw	r24, 0x01	; 1
    2e20:	98 87       	std	Y+8, r25	; 0x08
    2e22:	8f 83       	std	Y+7, r24	; 0x07
    2e24:	8d 81       	ldd	r24, Y+5	; 0x05
    2e26:	9e 81       	ldd	r25, Y+6	; 0x06
    2e28:	fc 01       	movw	r30, r24
    2e2a:	86 85       	ldd	r24, Z+14	; 0x0e
    2e2c:	88 2f       	mov	r24, r24
    2e2e:	90 e0       	ldi	r25, 0x00	; 0
    2e30:	81 70       	andi	r24, 0x01	; 1
    2e32:	99 27       	eor	r25, r25
    2e34:	89 2b       	or	r24, r25
    2e36:	89 f0       	breq	.+34     	; 0x2e5a <xStreamBufferSend+0x92>
    2e38:	8b 81       	ldd	r24, Y+3	; 0x03
    2e3a:	9c 81       	ldd	r25, Y+4	; 0x04
    2e3c:	02 96       	adiw	r24, 0x02	; 2
    2e3e:	9c 83       	std	Y+4, r25	; 0x04
    2e40:	8b 83       	std	Y+3, r24	; 0x03
    2e42:	2b 81       	ldd	r18, Y+3	; 0x03
    2e44:	3c 81       	ldd	r19, Y+4	; 0x04
    2e46:	8f 81       	ldd	r24, Y+7	; 0x07
    2e48:	98 85       	ldd	r25, Y+8	; 0x08
    2e4a:	82 17       	cp	r24, r18
    2e4c:	93 07       	cpc	r25, r19
    2e4e:	80 f4       	brcc	.+32     	; 0x2e70 <xStreamBufferSend+0xa8>
    2e50:	1e 8a       	std	Y+22, r1	; 0x16
    2e52:	1f 8a       	std	Y+23, r1	; 0x17
    2e54:	18 8e       	std	Y+24, r1	; 0x18
    2e56:	19 8e       	std	Y+25, r1	; 0x19
    2e58:	0b c0       	rjmp	.+22     	; 0x2e70 <xStreamBufferSend+0xa8>
    2e5a:	2b 81       	ldd	r18, Y+3	; 0x03
    2e5c:	3c 81       	ldd	r19, Y+4	; 0x04
    2e5e:	8f 81       	ldd	r24, Y+7	; 0x07
    2e60:	98 85       	ldd	r25, Y+8	; 0x08
    2e62:	82 17       	cp	r24, r18
    2e64:	93 07       	cpc	r25, r19
    2e66:	20 f4       	brcc	.+8      	; 0x2e70 <xStreamBufferSend+0xa8>
    2e68:	8f 81       	ldd	r24, Y+7	; 0x07
    2e6a:	98 85       	ldd	r25, Y+8	; 0x08
    2e6c:	9c 83       	std	Y+4, r25	; 0x04
    2e6e:	8b 83       	std	Y+3, r24	; 0x03
    2e70:	8e 89       	ldd	r24, Y+22	; 0x16
    2e72:	9f 89       	ldd	r25, Y+23	; 0x17
    2e74:	a8 8d       	ldd	r26, Y+24	; 0x18
    2e76:	b9 8d       	ldd	r27, Y+25	; 0x19
    2e78:	89 2b       	or	r24, r25
    2e7a:	8a 2b       	or	r24, r26
    2e7c:	8b 2b       	or	r24, r27
    2e7e:	09 f4       	brne	.+2      	; 0x2e82 <xStreamBufferSend+0xba>
    2e80:	47 c0       	rjmp	.+142    	; 0x2f10 <xStreamBufferSend+0x148>
    2e82:	ce 01       	movw	r24, r28
    2e84:	0b 96       	adiw	r24, 0x0b	; 11
    2e86:	0e 94 30 27 	call	0x4e60	; 0x4e60 <vTaskSetTimeOutState>
    2e8a:	0f b6       	in	r0, 0x3f	; 63
    2e8c:	f8 94       	cli
    2e8e:	0f 92       	push	r0
    2e90:	8d 81       	ldd	r24, Y+5	; 0x05
    2e92:	9e 81       	ldd	r25, Y+6	; 0x06
    2e94:	4b df       	rcall	.-362    	; 0x2d2c <xStreamBufferSpacesAvailable>
    2e96:	9a 83       	std	Y+2, r25	; 0x02
    2e98:	89 83       	std	Y+1, r24	; 0x01
    2e9a:	29 81       	ldd	r18, Y+1	; 0x01
    2e9c:	3a 81       	ldd	r19, Y+2	; 0x02
    2e9e:	8b 81       	ldd	r24, Y+3	; 0x03
    2ea0:	9c 81       	ldd	r25, Y+4	; 0x04
    2ea2:	28 17       	cp	r18, r24
    2ea4:	39 07       	cpc	r19, r25
    2ea6:	70 f4       	brcc	.+28     	; 0x2ec4 <xStreamBufferSend+0xfc>
    2ea8:	60 e0       	ldi	r22, 0x00	; 0
    2eaa:	80 e0       	ldi	r24, 0x00	; 0
    2eac:	90 e0       	ldi	r25, 0x00	; 0
    2eae:	0e 94 61 31 	call	0x62c2	; 0x62c2 <xTaskGenericNotifyStateClear>
    2eb2:	0e 94 dd 28 	call	0x51ba	; 0x51ba <xTaskGetCurrentTaskHandle>
    2eb6:	9c 01       	movw	r18, r24
    2eb8:	8d 81       	ldd	r24, Y+5	; 0x05
    2eba:	9e 81       	ldd	r25, Y+6	; 0x06
    2ebc:	fc 01       	movw	r30, r24
    2ebe:	33 87       	std	Z+11, r19	; 0x0b
    2ec0:	22 87       	std	Z+10, r18	; 0x0a
    2ec2:	03 c0       	rjmp	.+6      	; 0x2eca <xStreamBufferSend+0x102>
    2ec4:	0f 90       	pop	r0
    2ec6:	0f be       	out	0x3f, r0	; 63
    2ec8:	23 c0       	rjmp	.+70     	; 0x2f10 <xStreamBufferSend+0x148>
    2eca:	0f 90       	pop	r0
    2ecc:	0f be       	out	0x3f, r0	; 63
    2ece:	8e 89       	ldd	r24, Y+22	; 0x16
    2ed0:	9f 89       	ldd	r25, Y+23	; 0x17
    2ed2:	a8 8d       	ldd	r26, Y+24	; 0x18
    2ed4:	b9 8d       	ldd	r27, Y+25	; 0x19
    2ed6:	5c 01       	movw	r10, r24
    2ed8:	6d 01       	movw	r12, r26
    2eda:	e1 2c       	mov	r14, r1
    2edc:	f1 2c       	mov	r15, r1
    2ede:	00 e0       	ldi	r16, 0x00	; 0
    2ee0:	10 e0       	ldi	r17, 0x00	; 0
    2ee2:	98 01       	movw	r18, r16
    2ee4:	40 e0       	ldi	r20, 0x00	; 0
    2ee6:	50 e0       	ldi	r21, 0x00	; 0
    2ee8:	ba 01       	movw	r22, r20
    2eea:	80 e0       	ldi	r24, 0x00	; 0
    2eec:	0e 94 6d 2c 	call	0x58da	; 0x58da <xTaskGenericNotifyWait>
    2ef0:	8d 81       	ldd	r24, Y+5	; 0x05
    2ef2:	9e 81       	ldd	r25, Y+6	; 0x06
    2ef4:	fc 01       	movw	r30, r24
    2ef6:	13 86       	std	Z+11, r1	; 0x0b
    2ef8:	12 86       	std	Z+10, r1	; 0x0a
    2efa:	9e 01       	movw	r18, r28
    2efc:	2a 5e       	subi	r18, 0xEA	; 234
    2efe:	3f 4f       	sbci	r19, 0xFF	; 255
    2f00:	ce 01       	movw	r24, r28
    2f02:	0b 96       	adiw	r24, 0x0b	; 11
    2f04:	b9 01       	movw	r22, r18
    2f06:	0e 94 7b 27 	call	0x4ef6	; 0x4ef6 <xTaskCheckForTimeOut>
    2f0a:	88 23       	and	r24, r24
    2f0c:	09 f4       	brne	.+2      	; 0x2f10 <xStreamBufferSend+0x148>
    2f0e:	bd cf       	rjmp	.-134    	; 0x2e8a <xStreamBufferSend+0xc2>
    2f10:	89 81       	ldd	r24, Y+1	; 0x01
    2f12:	9a 81       	ldd	r25, Y+2	; 0x02
    2f14:	89 2b       	or	r24, r25
    2f16:	29 f4       	brne	.+10     	; 0x2f22 <xStreamBufferSend+0x15a>
    2f18:	8d 81       	ldd	r24, Y+5	; 0x05
    2f1a:	9e 81       	ldd	r25, Y+6	; 0x06
    2f1c:	07 df       	rcall	.-498    	; 0x2d2c <xStreamBufferSpacesAvailable>
    2f1e:	9a 83       	std	Y+2, r25	; 0x02
    2f20:	89 83       	std	Y+1, r24	; 0x01
    2f22:	eb 81       	ldd	r30, Y+3	; 0x03
    2f24:	fc 81       	ldd	r31, Y+4	; 0x04
    2f26:	29 81       	ldd	r18, Y+1	; 0x01
    2f28:	3a 81       	ldd	r19, Y+2	; 0x02
    2f2a:	4c 89       	ldd	r20, Y+20	; 0x14
    2f2c:	5d 89       	ldd	r21, Y+21	; 0x15
    2f2e:	6a 89       	ldd	r22, Y+18	; 0x12
    2f30:	7b 89       	ldd	r23, Y+19	; 0x13
    2f32:	8d 81       	ldd	r24, Y+5	; 0x05
    2f34:	9e 81       	ldd	r25, Y+6	; 0x06
    2f36:	8f 01       	movw	r16, r30
    2f38:	c2 d0       	rcall	.+388    	; 0x30be <prvWriteMessageToBuffer>
    2f3a:	9a 87       	std	Y+10, r25	; 0x0a
    2f3c:	89 87       	std	Y+9, r24	; 0x09
    2f3e:	89 85       	ldd	r24, Y+9	; 0x09
    2f40:	9a 85       	ldd	r25, Y+10	; 0x0a
    2f42:	89 2b       	or	r24, r25
    2f44:	41 f1       	breq	.+80     	; 0x2f96 <xStreamBufferSend+0x1ce>
    2f46:	8d 81       	ldd	r24, Y+5	; 0x05
    2f48:	9e 81       	ldd	r25, Y+6	; 0x06
    2f4a:	8b d3       	rcall	.+1814   	; 0x3662 <prvBytesInBuffer>
    2f4c:	9c 01       	movw	r18, r24
    2f4e:	8d 81       	ldd	r24, Y+5	; 0x05
    2f50:	9e 81       	ldd	r25, Y+6	; 0x06
    2f52:	fc 01       	movw	r30, r24
    2f54:	86 81       	ldd	r24, Z+6	; 0x06
    2f56:	97 81       	ldd	r25, Z+7	; 0x07
    2f58:	28 17       	cp	r18, r24
    2f5a:	39 07       	cpc	r19, r25
    2f5c:	e0 f0       	brcs	.+56     	; 0x2f96 <xStreamBufferSend+0x1ce>
    2f5e:	64 d7       	rcall	.+3784   	; 0x3e28 <vTaskSuspendAll>
    2f60:	8d 81       	ldd	r24, Y+5	; 0x05
    2f62:	9e 81       	ldd	r25, Y+6	; 0x06
    2f64:	fc 01       	movw	r30, r24
    2f66:	80 85       	ldd	r24, Z+8	; 0x08
    2f68:	91 85       	ldd	r25, Z+9	; 0x09
    2f6a:	89 2b       	or	r24, r25
    2f6c:	99 f0       	breq	.+38     	; 0x2f94 <xStreamBufferSend+0x1cc>
    2f6e:	8d 81       	ldd	r24, Y+5	; 0x05
    2f70:	9e 81       	ldd	r25, Y+6	; 0x06
    2f72:	fc 01       	movw	r30, r24
    2f74:	80 85       	ldd	r24, Z+8	; 0x08
    2f76:	91 85       	ldd	r25, Z+9	; 0x09
    2f78:	e1 2c       	mov	r14, r1
    2f7a:	f1 2c       	mov	r15, r1
    2f7c:	00 e0       	ldi	r16, 0x00	; 0
    2f7e:	20 e0       	ldi	r18, 0x00	; 0
    2f80:	30 e0       	ldi	r19, 0x00	; 0
    2f82:	a9 01       	movw	r20, r18
    2f84:	60 e0       	ldi	r22, 0x00	; 0
    2f86:	0e 94 74 2d 	call	0x5ae8	; 0x5ae8 <xTaskGenericNotify>
    2f8a:	8d 81       	ldd	r24, Y+5	; 0x05
    2f8c:	9e 81       	ldd	r25, Y+6	; 0x06
    2f8e:	fc 01       	movw	r30, r24
    2f90:	11 86       	std	Z+9, r1	; 0x09
    2f92:	10 86       	std	Z+8, r1	; 0x08
    2f94:	56 d7       	rcall	.+3756   	; 0x3e42 <xTaskResumeAll>
    2f96:	89 85       	ldd	r24, Y+9	; 0x09
    2f98:	9a 85       	ldd	r25, Y+10	; 0x0a
    2f9a:	69 96       	adiw	r28, 0x19	; 25
    2f9c:	0f b6       	in	r0, 0x3f	; 63
    2f9e:	f8 94       	cli
    2fa0:	de bf       	out	0x3e, r29	; 62
    2fa2:	0f be       	out	0x3f, r0	; 63
    2fa4:	cd bf       	out	0x3d, r28	; 61
    2fa6:	df 91       	pop	r29
    2fa8:	cf 91       	pop	r28
    2faa:	1f 91       	pop	r17
    2fac:	0f 91       	pop	r16
    2fae:	ff 90       	pop	r15
    2fb0:	ef 90       	pop	r14
    2fb2:	df 90       	pop	r13
    2fb4:	cf 90       	pop	r12
    2fb6:	bf 90       	pop	r11
    2fb8:	af 90       	pop	r10
    2fba:	08 95       	ret

00002fbc <xStreamBufferSendFromISR>:
    2fbc:	cf 92       	push	r12
    2fbe:	df 92       	push	r13
    2fc0:	ef 92       	push	r14
    2fc2:	ff 92       	push	r15
    2fc4:	0f 93       	push	r16
    2fc6:	1f 93       	push	r17
    2fc8:	cf 93       	push	r28
    2fca:	df 93       	push	r29
    2fcc:	cd b7       	in	r28, 0x3d	; 61
    2fce:	de b7       	in	r29, 0x3e	; 62
    2fd0:	61 97       	sbiw	r28, 0x11	; 17
    2fd2:	0f b6       	in	r0, 0x3f	; 63
    2fd4:	f8 94       	cli
    2fd6:	de bf       	out	0x3e, r29	; 62
    2fd8:	0f be       	out	0x3f, r0	; 63
    2fda:	cd bf       	out	0x3d, r28	; 61
    2fdc:	9b 87       	std	Y+11, r25	; 0x0b
    2fde:	8a 87       	std	Y+10, r24	; 0x0a
    2fe0:	7d 87       	std	Y+13, r23	; 0x0d
    2fe2:	6c 87       	std	Y+12, r22	; 0x0c
    2fe4:	5f 87       	std	Y+15, r21	; 0x0f
    2fe6:	4e 87       	std	Y+14, r20	; 0x0e
    2fe8:	39 8b       	std	Y+17, r19	; 0x11
    2fea:	28 8b       	std	Y+16, r18	; 0x10
    2fec:	8a 85       	ldd	r24, Y+10	; 0x0a
    2fee:	9b 85       	ldd	r25, Y+11	; 0x0b
    2ff0:	9c 83       	std	Y+4, r25	; 0x04
    2ff2:	8b 83       	std	Y+3, r24	; 0x03
    2ff4:	8e 85       	ldd	r24, Y+14	; 0x0e
    2ff6:	9f 85       	ldd	r25, Y+15	; 0x0f
    2ff8:	9a 83       	std	Y+2, r25	; 0x02
    2ffa:	89 83       	std	Y+1, r24	; 0x01
    2ffc:	8b 81       	ldd	r24, Y+3	; 0x03
    2ffe:	9c 81       	ldd	r25, Y+4	; 0x04
    3000:	fc 01       	movw	r30, r24
    3002:	86 85       	ldd	r24, Z+14	; 0x0e
    3004:	88 2f       	mov	r24, r24
    3006:	90 e0       	ldi	r25, 0x00	; 0
    3008:	81 70       	andi	r24, 0x01	; 1
    300a:	99 27       	eor	r25, r25
    300c:	89 2b       	or	r24, r25
    300e:	29 f0       	breq	.+10     	; 0x301a <xStreamBufferSendFromISR+0x5e>
    3010:	89 81       	ldd	r24, Y+1	; 0x01
    3012:	9a 81       	ldd	r25, Y+2	; 0x02
    3014:	02 96       	adiw	r24, 0x02	; 2
    3016:	9a 83       	std	Y+2, r25	; 0x02
    3018:	89 83       	std	Y+1, r24	; 0x01
    301a:	8b 81       	ldd	r24, Y+3	; 0x03
    301c:	9c 81       	ldd	r25, Y+4	; 0x04
    301e:	86 de       	rcall	.-756    	; 0x2d2c <xStreamBufferSpacesAvailable>
    3020:	9e 83       	std	Y+6, r25	; 0x06
    3022:	8d 83       	std	Y+5, r24	; 0x05
    3024:	e9 81       	ldd	r30, Y+1	; 0x01
    3026:	fa 81       	ldd	r31, Y+2	; 0x02
    3028:	2d 81       	ldd	r18, Y+5	; 0x05
    302a:	3e 81       	ldd	r19, Y+6	; 0x06
    302c:	4e 85       	ldd	r20, Y+14	; 0x0e
    302e:	5f 85       	ldd	r21, Y+15	; 0x0f
    3030:	6c 85       	ldd	r22, Y+12	; 0x0c
    3032:	7d 85       	ldd	r23, Y+13	; 0x0d
    3034:	8b 81       	ldd	r24, Y+3	; 0x03
    3036:	9c 81       	ldd	r25, Y+4	; 0x04
    3038:	8f 01       	movw	r16, r30
    303a:	41 d0       	rcall	.+130    	; 0x30be <prvWriteMessageToBuffer>
    303c:	98 87       	std	Y+8, r25	; 0x08
    303e:	8f 83       	std	Y+7, r24	; 0x07
    3040:	8f 81       	ldd	r24, Y+7	; 0x07
    3042:	98 85       	ldd	r25, Y+8	; 0x08
    3044:	89 2b       	or	r24, r25
    3046:	51 f1       	breq	.+84     	; 0x309c <xStreamBufferSendFromISR+0xe0>
    3048:	8b 81       	ldd	r24, Y+3	; 0x03
    304a:	9c 81       	ldd	r25, Y+4	; 0x04
    304c:	0a d3       	rcall	.+1556   	; 0x3662 <prvBytesInBuffer>
    304e:	9c 01       	movw	r18, r24
    3050:	8b 81       	ldd	r24, Y+3	; 0x03
    3052:	9c 81       	ldd	r25, Y+4	; 0x04
    3054:	fc 01       	movw	r30, r24
    3056:	86 81       	ldd	r24, Z+6	; 0x06
    3058:	97 81       	ldd	r25, Z+7	; 0x07
    305a:	28 17       	cp	r18, r24
    305c:	39 07       	cpc	r19, r25
    305e:	f0 f0       	brcs	.+60     	; 0x309c <xStreamBufferSendFromISR+0xe0>
    3060:	19 86       	std	Y+9, r1	; 0x09
    3062:	8b 81       	ldd	r24, Y+3	; 0x03
    3064:	9c 81       	ldd	r25, Y+4	; 0x04
    3066:	fc 01       	movw	r30, r24
    3068:	80 85       	ldd	r24, Z+8	; 0x08
    306a:	91 85       	ldd	r25, Z+9	; 0x09
    306c:	89 2b       	or	r24, r25
    306e:	b1 f0       	breq	.+44     	; 0x309c <xStreamBufferSendFromISR+0xe0>
    3070:	8b 81       	ldd	r24, Y+3	; 0x03
    3072:	9c 81       	ldd	r25, Y+4	; 0x04
    3074:	fc 01       	movw	r30, r24
    3076:	80 85       	ldd	r24, Z+8	; 0x08
    3078:	91 85       	ldd	r25, Z+9	; 0x09
    307a:	28 89       	ldd	r18, Y+16	; 0x10
    307c:	39 89       	ldd	r19, Y+17	; 0x11
    307e:	69 01       	movw	r12, r18
    3080:	e1 2c       	mov	r14, r1
    3082:	f1 2c       	mov	r15, r1
    3084:	00 e0       	ldi	r16, 0x00	; 0
    3086:	20 e0       	ldi	r18, 0x00	; 0
    3088:	30 e0       	ldi	r19, 0x00	; 0
    308a:	a9 01       	movw	r20, r18
    308c:	60 e0       	ldi	r22, 0x00	; 0
    308e:	0e 94 45 2f 	call	0x5e8a	; 0x5e8a <xTaskGenericNotifyFromISR>
    3092:	8b 81       	ldd	r24, Y+3	; 0x03
    3094:	9c 81       	ldd	r25, Y+4	; 0x04
    3096:	fc 01       	movw	r30, r24
    3098:	11 86       	std	Z+9, r1	; 0x09
    309a:	10 86       	std	Z+8, r1	; 0x08
    309c:	8f 81       	ldd	r24, Y+7	; 0x07
    309e:	98 85       	ldd	r25, Y+8	; 0x08
    30a0:	61 96       	adiw	r28, 0x11	; 17
    30a2:	0f b6       	in	r0, 0x3f	; 63
    30a4:	f8 94       	cli
    30a6:	de bf       	out	0x3e, r29	; 62
    30a8:	0f be       	out	0x3f, r0	; 63
    30aa:	cd bf       	out	0x3d, r28	; 61
    30ac:	df 91       	pop	r29
    30ae:	cf 91       	pop	r28
    30b0:	1f 91       	pop	r17
    30b2:	0f 91       	pop	r16
    30b4:	ff 90       	pop	r15
    30b6:	ef 90       	pop	r14
    30b8:	df 90       	pop	r13
    30ba:	cf 90       	pop	r12
    30bc:	08 95       	ret

000030be <prvWriteMessageToBuffer>:
    30be:	0f 93       	push	r16
    30c0:	1f 93       	push	r17
    30c2:	cf 93       	push	r28
    30c4:	df 93       	push	r29
    30c6:	cd b7       	in	r28, 0x3d	; 61
    30c8:	de b7       	in	r29, 0x3e	; 62
    30ca:	61 97       	sbiw	r28, 0x11	; 17
    30cc:	0f b6       	in	r0, 0x3f	; 63
    30ce:	f8 94       	cli
    30d0:	de bf       	out	0x3e, r29	; 62
    30d2:	0f be       	out	0x3f, r0	; 63
    30d4:	cd bf       	out	0x3d, r28	; 61
    30d6:	99 87       	std	Y+9, r25	; 0x09
    30d8:	88 87       	std	Y+8, r24	; 0x08
    30da:	7b 87       	std	Y+11, r23	; 0x0b
    30dc:	6a 87       	std	Y+10, r22	; 0x0a
    30de:	5d 87       	std	Y+13, r21	; 0x0d
    30e0:	4c 87       	std	Y+12, r20	; 0x0c
    30e2:	3f 87       	std	Y+15, r19	; 0x0f
    30e4:	2e 87       	std	Y+14, r18	; 0x0e
    30e6:	19 8b       	std	Y+17, r17	; 0x11
    30e8:	08 8b       	std	Y+16, r16	; 0x10
    30ea:	8e 85       	ldd	r24, Y+14	; 0x0e
    30ec:	9f 85       	ldd	r25, Y+15	; 0x0f
    30ee:	89 2b       	or	r24, r25
    30f0:	11 f4       	brne	.+4      	; 0x30f6 <prvWriteMessageToBuffer+0x38>
    30f2:	19 82       	std	Y+1, r1	; 0x01
    30f4:	33 c0       	rjmp	.+102    	; 0x315c <prvWriteMessageToBuffer+0x9e>
    30f6:	88 85       	ldd	r24, Y+8	; 0x08
    30f8:	99 85       	ldd	r25, Y+9	; 0x09
    30fa:	fc 01       	movw	r30, r24
    30fc:	86 85       	ldd	r24, Z+14	; 0x0e
    30fe:	88 2f       	mov	r24, r24
    3100:	90 e0       	ldi	r25, 0x00	; 0
    3102:	81 70       	andi	r24, 0x01	; 1
    3104:	99 27       	eor	r25, r25
    3106:	89 2b       	or	r24, r25
    3108:	a9 f4       	brne	.+42     	; 0x3134 <prvWriteMessageToBuffer+0x76>
    310a:	81 e0       	ldi	r24, 0x01	; 1
    310c:	89 83       	std	Y+1, r24	; 0x01
    310e:	8c 85       	ldd	r24, Y+12	; 0x0c
    3110:	9d 85       	ldd	r25, Y+13	; 0x0d
    3112:	9d 83       	std	Y+5, r25	; 0x05
    3114:	8c 83       	std	Y+4, r24	; 0x04
    3116:	8e 85       	ldd	r24, Y+14	; 0x0e
    3118:	9f 85       	ldd	r25, Y+15	; 0x0f
    311a:	9f 83       	std	Y+7, r25	; 0x07
    311c:	8e 83       	std	Y+6, r24	; 0x06
    311e:	2c 81       	ldd	r18, Y+4	; 0x04
    3120:	3d 81       	ldd	r19, Y+5	; 0x05
    3122:	8e 81       	ldd	r24, Y+6	; 0x06
    3124:	9f 81       	ldd	r25, Y+7	; 0x07
    3126:	28 17       	cp	r18, r24
    3128:	39 07       	cpc	r19, r25
    312a:	08 f4       	brcc	.+2      	; 0x312e <prvWriteMessageToBuffer+0x70>
    312c:	c9 01       	movw	r24, r18
    312e:	9d 87       	std	Y+13, r25	; 0x0d
    3130:	8c 87       	std	Y+12, r24	; 0x0c
    3132:	14 c0       	rjmp	.+40     	; 0x315c <prvWriteMessageToBuffer+0x9e>
    3134:	2e 85       	ldd	r18, Y+14	; 0x0e
    3136:	3f 85       	ldd	r19, Y+15	; 0x0f
    3138:	88 89       	ldd	r24, Y+16	; 0x10
    313a:	99 89       	ldd	r25, Y+17	; 0x11
    313c:	28 17       	cp	r18, r24
    313e:	39 07       	cpc	r19, r25
    3140:	60 f0       	brcs	.+24     	; 0x315a <prvWriteMessageToBuffer+0x9c>
    3142:	81 e0       	ldi	r24, 0x01	; 1
    3144:	89 83       	std	Y+1, r24	; 0x01
    3146:	9e 01       	movw	r18, r28
    3148:	24 5f       	subi	r18, 0xF4	; 244
    314a:	3f 4f       	sbci	r19, 0xFF	; 255
    314c:	88 85       	ldd	r24, Y+8	; 0x08
    314e:	99 85       	ldd	r25, Y+9	; 0x09
    3150:	42 e0       	ldi	r20, 0x02	; 2
    3152:	50 e0       	ldi	r21, 0x00	; 0
    3154:	b9 01       	movw	r22, r18
    3156:	4f d1       	rcall	.+670    	; 0x33f6 <prvWriteBytesToBuffer>
    3158:	01 c0       	rjmp	.+2      	; 0x315c <prvWriteMessageToBuffer+0x9e>
    315a:	19 82       	std	Y+1, r1	; 0x01
    315c:	89 81       	ldd	r24, Y+1	; 0x01
    315e:	88 23       	and	r24, r24
    3160:	59 f0       	breq	.+22     	; 0x3178 <prvWriteMessageToBuffer+0xba>
    3162:	4c 85       	ldd	r20, Y+12	; 0x0c
    3164:	5d 85       	ldd	r21, Y+13	; 0x0d
    3166:	2a 85       	ldd	r18, Y+10	; 0x0a
    3168:	3b 85       	ldd	r19, Y+11	; 0x0b
    316a:	88 85       	ldd	r24, Y+8	; 0x08
    316c:	99 85       	ldd	r25, Y+9	; 0x09
    316e:	b9 01       	movw	r22, r18
    3170:	42 d1       	rcall	.+644    	; 0x33f6 <prvWriteBytesToBuffer>
    3172:	9b 83       	std	Y+3, r25	; 0x03
    3174:	8a 83       	std	Y+2, r24	; 0x02
    3176:	02 c0       	rjmp	.+4      	; 0x317c <prvWriteMessageToBuffer+0xbe>
    3178:	1b 82       	std	Y+3, r1	; 0x03
    317a:	1a 82       	std	Y+2, r1	; 0x02
    317c:	8a 81       	ldd	r24, Y+2	; 0x02
    317e:	9b 81       	ldd	r25, Y+3	; 0x03
    3180:	61 96       	adiw	r28, 0x11	; 17
    3182:	0f b6       	in	r0, 0x3f	; 63
    3184:	f8 94       	cli
    3186:	de bf       	out	0x3e, r29	; 62
    3188:	0f be       	out	0x3f, r0	; 63
    318a:	cd bf       	out	0x3d, r28	; 61
    318c:	df 91       	pop	r29
    318e:	cf 91       	pop	r28
    3190:	1f 91       	pop	r17
    3192:	0f 91       	pop	r16
    3194:	08 95       	ret

00003196 <xStreamBufferReceive>:
    3196:	af 92       	push	r10
    3198:	bf 92       	push	r11
    319a:	cf 92       	push	r12
    319c:	df 92       	push	r13
    319e:	ef 92       	push	r14
    31a0:	ff 92       	push	r15
    31a2:	0f 93       	push	r16
    31a4:	1f 93       	push	r17
    31a6:	cf 93       	push	r28
    31a8:	df 93       	push	r29
    31aa:	cd b7       	in	r28, 0x3d	; 61
    31ac:	de b7       	in	r29, 0x3e	; 62
    31ae:	62 97       	sbiw	r28, 0x12	; 18
    31b0:	0f b6       	in	r0, 0x3f	; 63
    31b2:	f8 94       	cli
    31b4:	de bf       	out	0x3e, r29	; 62
    31b6:	0f be       	out	0x3f, r0	; 63
    31b8:	cd bf       	out	0x3d, r28	; 61
    31ba:	9a 87       	std	Y+10, r25	; 0x0a
    31bc:	89 87       	std	Y+9, r24	; 0x09
    31be:	7c 87       	std	Y+12, r23	; 0x0c
    31c0:	6b 87       	std	Y+11, r22	; 0x0b
    31c2:	5e 87       	std	Y+14, r21	; 0x0e
    31c4:	4d 87       	std	Y+13, r20	; 0x0d
    31c6:	0f 87       	std	Y+15, r16	; 0x0f
    31c8:	18 8b       	std	Y+16, r17	; 0x10
    31ca:	29 8b       	std	Y+17, r18	; 0x11
    31cc:	3a 8b       	std	Y+18, r19	; 0x12
    31ce:	89 85       	ldd	r24, Y+9	; 0x09
    31d0:	9a 85       	ldd	r25, Y+10	; 0x0a
    31d2:	98 87       	std	Y+8, r25	; 0x08
    31d4:	8f 83       	std	Y+7, r24	; 0x07
    31d6:	1a 82       	std	Y+2, r1	; 0x02
    31d8:	19 82       	std	Y+1, r1	; 0x01
    31da:	8f 81       	ldd	r24, Y+7	; 0x07
    31dc:	98 85       	ldd	r25, Y+8	; 0x08
    31de:	fc 01       	movw	r30, r24
    31e0:	86 85       	ldd	r24, Z+14	; 0x0e
    31e2:	88 2f       	mov	r24, r24
    31e4:	90 e0       	ldi	r25, 0x00	; 0
    31e6:	81 70       	andi	r24, 0x01	; 1
    31e8:	99 27       	eor	r25, r25
    31ea:	89 2b       	or	r24, r25
    31ec:	29 f0       	breq	.+10     	; 0x31f8 <xStreamBufferReceive+0x62>
    31ee:	82 e0       	ldi	r24, 0x02	; 2
    31f0:	90 e0       	ldi	r25, 0x00	; 0
    31f2:	9e 83       	std	Y+6, r25	; 0x06
    31f4:	8d 83       	std	Y+5, r24	; 0x05
    31f6:	02 c0       	rjmp	.+4      	; 0x31fc <xStreamBufferReceive+0x66>
    31f8:	1e 82       	std	Y+6, r1	; 0x06
    31fa:	1d 82       	std	Y+5, r1	; 0x05
    31fc:	8f 85       	ldd	r24, Y+15	; 0x0f
    31fe:	98 89       	ldd	r25, Y+16	; 0x10
    3200:	a9 89       	ldd	r26, Y+17	; 0x11
    3202:	ba 89       	ldd	r27, Y+18	; 0x12
    3204:	89 2b       	or	r24, r25
    3206:	8a 2b       	or	r24, r26
    3208:	8b 2b       	or	r24, r27
    320a:	09 f4       	brne	.+2      	; 0x320e <xStreamBufferReceive+0x78>
    320c:	41 c0       	rjmp	.+130    	; 0x3290 <xStreamBufferReceive+0xfa>
    320e:	0f b6       	in	r0, 0x3f	; 63
    3210:	f8 94       	cli
    3212:	0f 92       	push	r0
    3214:	8f 81       	ldd	r24, Y+7	; 0x07
    3216:	98 85       	ldd	r25, Y+8	; 0x08
    3218:	24 d2       	rcall	.+1096   	; 0x3662 <prvBytesInBuffer>
    321a:	9c 83       	std	Y+4, r25	; 0x04
    321c:	8b 83       	std	Y+3, r24	; 0x03
    321e:	2b 81       	ldd	r18, Y+3	; 0x03
    3220:	3c 81       	ldd	r19, Y+4	; 0x04
    3222:	8d 81       	ldd	r24, Y+5	; 0x05
    3224:	9e 81       	ldd	r25, Y+6	; 0x06
    3226:	82 17       	cp	r24, r18
    3228:	93 07       	cpc	r25, r19
    322a:	68 f0       	brcs	.+26     	; 0x3246 <xStreamBufferReceive+0xb0>
    322c:	60 e0       	ldi	r22, 0x00	; 0
    322e:	80 e0       	ldi	r24, 0x00	; 0
    3230:	90 e0       	ldi	r25, 0x00	; 0
    3232:	0e 94 61 31 	call	0x62c2	; 0x62c2 <xTaskGenericNotifyStateClear>
    3236:	0e 94 dd 28 	call	0x51ba	; 0x51ba <xTaskGetCurrentTaskHandle>
    323a:	9c 01       	movw	r18, r24
    323c:	8f 81       	ldd	r24, Y+7	; 0x07
    323e:	98 85       	ldd	r25, Y+8	; 0x08
    3240:	fc 01       	movw	r30, r24
    3242:	31 87       	std	Z+9, r19	; 0x09
    3244:	20 87       	std	Z+8, r18	; 0x08
    3246:	0f 90       	pop	r0
    3248:	0f be       	out	0x3f, r0	; 63
    324a:	2b 81       	ldd	r18, Y+3	; 0x03
    324c:	3c 81       	ldd	r19, Y+4	; 0x04
    324e:	8d 81       	ldd	r24, Y+5	; 0x05
    3250:	9e 81       	ldd	r25, Y+6	; 0x06
    3252:	82 17       	cp	r24, r18
    3254:	93 07       	cpc	r25, r19
    3256:	08 f1       	brcs	.+66     	; 0x329a <xStreamBufferReceive+0x104>
    3258:	8f 85       	ldd	r24, Y+15	; 0x0f
    325a:	98 89       	ldd	r25, Y+16	; 0x10
    325c:	a9 89       	ldd	r26, Y+17	; 0x11
    325e:	ba 89       	ldd	r27, Y+18	; 0x12
    3260:	5c 01       	movw	r10, r24
    3262:	6d 01       	movw	r12, r26
    3264:	e1 2c       	mov	r14, r1
    3266:	f1 2c       	mov	r15, r1
    3268:	00 e0       	ldi	r16, 0x00	; 0
    326a:	10 e0       	ldi	r17, 0x00	; 0
    326c:	98 01       	movw	r18, r16
    326e:	40 e0       	ldi	r20, 0x00	; 0
    3270:	50 e0       	ldi	r21, 0x00	; 0
    3272:	ba 01       	movw	r22, r20
    3274:	80 e0       	ldi	r24, 0x00	; 0
    3276:	0e 94 6d 2c 	call	0x58da	; 0x58da <xTaskGenericNotifyWait>
    327a:	8f 81       	ldd	r24, Y+7	; 0x07
    327c:	98 85       	ldd	r25, Y+8	; 0x08
    327e:	fc 01       	movw	r30, r24
    3280:	11 86       	std	Z+9, r1	; 0x09
    3282:	10 86       	std	Z+8, r1	; 0x08
    3284:	8f 81       	ldd	r24, Y+7	; 0x07
    3286:	98 85       	ldd	r25, Y+8	; 0x08
    3288:	ec d1       	rcall	.+984    	; 0x3662 <prvBytesInBuffer>
    328a:	9c 83       	std	Y+4, r25	; 0x04
    328c:	8b 83       	std	Y+3, r24	; 0x03
    328e:	05 c0       	rjmp	.+10     	; 0x329a <xStreamBufferReceive+0x104>
    3290:	8f 81       	ldd	r24, Y+7	; 0x07
    3292:	98 85       	ldd	r25, Y+8	; 0x08
    3294:	e6 d1       	rcall	.+972    	; 0x3662 <prvBytesInBuffer>
    3296:	9c 83       	std	Y+4, r25	; 0x04
    3298:	8b 83       	std	Y+3, r24	; 0x03
    329a:	2b 81       	ldd	r18, Y+3	; 0x03
    329c:	3c 81       	ldd	r19, Y+4	; 0x04
    329e:	8d 81       	ldd	r24, Y+5	; 0x05
    32a0:	9e 81       	ldd	r25, Y+6	; 0x06
    32a2:	82 17       	cp	r24, r18
    32a4:	93 07       	cpc	r25, r19
    32a6:	70 f5       	brcc	.+92     	; 0x3304 <xStreamBufferReceive+0x16e>
    32a8:	ed 81       	ldd	r30, Y+5	; 0x05
    32aa:	fe 81       	ldd	r31, Y+6	; 0x06
    32ac:	2b 81       	ldd	r18, Y+3	; 0x03
    32ae:	3c 81       	ldd	r19, Y+4	; 0x04
    32b0:	4d 85       	ldd	r20, Y+13	; 0x0d
    32b2:	5e 85       	ldd	r21, Y+14	; 0x0e
    32b4:	6b 85       	ldd	r22, Y+11	; 0x0b
    32b6:	7c 85       	ldd	r23, Y+12	; 0x0c
    32b8:	8f 81       	ldd	r24, Y+7	; 0x07
    32ba:	98 85       	ldd	r25, Y+8	; 0x08
    32bc:	8f 01       	movw	r16, r30
    32be:	35 d0       	rcall	.+106    	; 0x332a <prvReadMessageFromBuffer>
    32c0:	9a 83       	std	Y+2, r25	; 0x02
    32c2:	89 83       	std	Y+1, r24	; 0x01
    32c4:	89 81       	ldd	r24, Y+1	; 0x01
    32c6:	9a 81       	ldd	r25, Y+2	; 0x02
    32c8:	89 2b       	or	r24, r25
    32ca:	e1 f0       	breq	.+56     	; 0x3304 <xStreamBufferReceive+0x16e>
    32cc:	ad d5       	rcall	.+2906   	; 0x3e28 <vTaskSuspendAll>
    32ce:	8f 81       	ldd	r24, Y+7	; 0x07
    32d0:	98 85       	ldd	r25, Y+8	; 0x08
    32d2:	fc 01       	movw	r30, r24
    32d4:	82 85       	ldd	r24, Z+10	; 0x0a
    32d6:	93 85       	ldd	r25, Z+11	; 0x0b
    32d8:	89 2b       	or	r24, r25
    32da:	99 f0       	breq	.+38     	; 0x3302 <xStreamBufferReceive+0x16c>
    32dc:	8f 81       	ldd	r24, Y+7	; 0x07
    32de:	98 85       	ldd	r25, Y+8	; 0x08
    32e0:	fc 01       	movw	r30, r24
    32e2:	82 85       	ldd	r24, Z+10	; 0x0a
    32e4:	93 85       	ldd	r25, Z+11	; 0x0b
    32e6:	e1 2c       	mov	r14, r1
    32e8:	f1 2c       	mov	r15, r1
    32ea:	00 e0       	ldi	r16, 0x00	; 0
    32ec:	20 e0       	ldi	r18, 0x00	; 0
    32ee:	30 e0       	ldi	r19, 0x00	; 0
    32f0:	a9 01       	movw	r20, r18
    32f2:	60 e0       	ldi	r22, 0x00	; 0
    32f4:	0e 94 74 2d 	call	0x5ae8	; 0x5ae8 <xTaskGenericNotify>
    32f8:	8f 81       	ldd	r24, Y+7	; 0x07
    32fa:	98 85       	ldd	r25, Y+8	; 0x08
    32fc:	fc 01       	movw	r30, r24
    32fe:	13 86       	std	Z+11, r1	; 0x0b
    3300:	12 86       	std	Z+10, r1	; 0x0a
    3302:	9f d5       	rcall	.+2878   	; 0x3e42 <xTaskResumeAll>
    3304:	89 81       	ldd	r24, Y+1	; 0x01
    3306:	9a 81       	ldd	r25, Y+2	; 0x02
    3308:	62 96       	adiw	r28, 0x12	; 18
    330a:	0f b6       	in	r0, 0x3f	; 63
    330c:	f8 94       	cli
    330e:	de bf       	out	0x3e, r29	; 62
    3310:	0f be       	out	0x3f, r0	; 63
    3312:	cd bf       	out	0x3d, r28	; 61
    3314:	df 91       	pop	r29
    3316:	cf 91       	pop	r28
    3318:	1f 91       	pop	r17
    331a:	0f 91       	pop	r16
    331c:	ff 90       	pop	r15
    331e:	ef 90       	pop	r14
    3320:	df 90       	pop	r13
    3322:	cf 90       	pop	r12
    3324:	bf 90       	pop	r11
    3326:	af 90       	pop	r10
    3328:	08 95       	ret

0000332a <prvReadMessageFromBuffer>:
    332a:	0f 93       	push	r16
    332c:	1f 93       	push	r17
    332e:	cf 93       	push	r28
    3330:	df 93       	push	r29
    3332:	cd b7       	in	r28, 0x3d	; 61
    3334:	de b7       	in	r29, 0x3e	; 62
    3336:	62 97       	sbiw	r28, 0x12	; 18
    3338:	0f b6       	in	r0, 0x3f	; 63
    333a:	f8 94       	cli
    333c:	de bf       	out	0x3e, r29	; 62
    333e:	0f be       	out	0x3f, r0	; 63
    3340:	cd bf       	out	0x3d, r28	; 61
    3342:	9a 87       	std	Y+10, r25	; 0x0a
    3344:	89 87       	std	Y+9, r24	; 0x09
    3346:	7c 87       	std	Y+12, r23	; 0x0c
    3348:	6b 87       	std	Y+11, r22	; 0x0b
    334a:	5e 87       	std	Y+14, r21	; 0x0e
    334c:	4d 87       	std	Y+13, r20	; 0x0d
    334e:	38 8b       	std	Y+16, r19	; 0x10
    3350:	2f 87       	std	Y+15, r18	; 0x0f
    3352:	1a 8b       	std	Y+18, r17	; 0x12
    3354:	09 8b       	std	Y+17, r16	; 0x11
    3356:	89 89       	ldd	r24, Y+17	; 0x11
    3358:	9a 89       	ldd	r25, Y+18	; 0x12
    335a:	89 2b       	or	r24, r25
    335c:	81 f1       	breq	.+96     	; 0x33be <prvReadMessageFromBuffer+0x94>
    335e:	89 85       	ldd	r24, Y+9	; 0x09
    3360:	9a 85       	ldd	r25, Y+10	; 0x0a
    3362:	fc 01       	movw	r30, r24
    3364:	80 81       	ld	r24, Z
    3366:	91 81       	ldd	r25, Z+1	; 0x01
    3368:	9c 83       	std	Y+4, r25	; 0x04
    336a:	8b 83       	std	Y+3, r24	; 0x03
    336c:	2f 85       	ldd	r18, Y+15	; 0x0f
    336e:	38 89       	ldd	r19, Y+16	; 0x10
    3370:	49 89       	ldd	r20, Y+17	; 0x11
    3372:	5a 89       	ldd	r21, Y+18	; 0x12
    3374:	be 01       	movw	r22, r28
    3376:	69 5f       	subi	r22, 0xF9	; 249
    3378:	7f 4f       	sbci	r23, 0xFF	; 255
    337a:	89 85       	ldd	r24, Y+9	; 0x09
    337c:	9a 85       	ldd	r25, Y+10	; 0x0a
    337e:	ca d0       	rcall	.+404    	; 0x3514 <prvReadBytesFromBuffer>
    3380:	8f 81       	ldd	r24, Y+7	; 0x07
    3382:	98 85       	ldd	r25, Y+8	; 0x08
    3384:	9a 83       	std	Y+2, r25	; 0x02
    3386:	89 83       	std	Y+1, r24	; 0x01
    3388:	2f 85       	ldd	r18, Y+15	; 0x0f
    338a:	38 89       	ldd	r19, Y+16	; 0x10
    338c:	89 89       	ldd	r24, Y+17	; 0x11
    338e:	9a 89       	ldd	r25, Y+18	; 0x12
    3390:	a9 01       	movw	r20, r18
    3392:	48 1b       	sub	r20, r24
    3394:	59 0b       	sbc	r21, r25
    3396:	ca 01       	movw	r24, r20
    3398:	98 8b       	std	Y+16, r25	; 0x10
    339a:	8f 87       	std	Y+15, r24	; 0x0f
    339c:	29 81       	ldd	r18, Y+1	; 0x01
    339e:	3a 81       	ldd	r19, Y+2	; 0x02
    33a0:	8d 85       	ldd	r24, Y+13	; 0x0d
    33a2:	9e 85       	ldd	r25, Y+14	; 0x0e
    33a4:	82 17       	cp	r24, r18
    33a6:	93 07       	cpc	r25, r19
    33a8:	70 f4       	brcc	.+28     	; 0x33c6 <prvReadMessageFromBuffer+0x9c>
    33aa:	89 85       	ldd	r24, Y+9	; 0x09
    33ac:	9a 85       	ldd	r25, Y+10	; 0x0a
    33ae:	2b 81       	ldd	r18, Y+3	; 0x03
    33b0:	3c 81       	ldd	r19, Y+4	; 0x04
    33b2:	fc 01       	movw	r30, r24
    33b4:	31 83       	std	Z+1, r19	; 0x01
    33b6:	20 83       	st	Z, r18
    33b8:	1a 82       	std	Y+2, r1	; 0x02
    33ba:	19 82       	std	Y+1, r1	; 0x01
    33bc:	04 c0       	rjmp	.+8      	; 0x33c6 <prvReadMessageFromBuffer+0x9c>
    33be:	8d 85       	ldd	r24, Y+13	; 0x0d
    33c0:	9e 85       	ldd	r25, Y+14	; 0x0e
    33c2:	9a 83       	std	Y+2, r25	; 0x02
    33c4:	89 83       	std	Y+1, r24	; 0x01
    33c6:	2f 85       	ldd	r18, Y+15	; 0x0f
    33c8:	38 89       	ldd	r19, Y+16	; 0x10
    33ca:	49 81       	ldd	r20, Y+1	; 0x01
    33cc:	5a 81       	ldd	r21, Y+2	; 0x02
    33ce:	6b 85       	ldd	r22, Y+11	; 0x0b
    33d0:	7c 85       	ldd	r23, Y+12	; 0x0c
    33d2:	89 85       	ldd	r24, Y+9	; 0x09
    33d4:	9a 85       	ldd	r25, Y+10	; 0x0a
    33d6:	9e d0       	rcall	.+316    	; 0x3514 <prvReadBytesFromBuffer>
    33d8:	9e 83       	std	Y+6, r25	; 0x06
    33da:	8d 83       	std	Y+5, r24	; 0x05
    33dc:	8d 81       	ldd	r24, Y+5	; 0x05
    33de:	9e 81       	ldd	r25, Y+6	; 0x06
    33e0:	62 96       	adiw	r28, 0x12	; 18
    33e2:	0f b6       	in	r0, 0x3f	; 63
    33e4:	f8 94       	cli
    33e6:	de bf       	out	0x3e, r29	; 62
    33e8:	0f be       	out	0x3f, r0	; 63
    33ea:	cd bf       	out	0x3d, r28	; 61
    33ec:	df 91       	pop	r29
    33ee:	cf 91       	pop	r28
    33f0:	1f 91       	pop	r17
    33f2:	0f 91       	pop	r16
    33f4:	08 95       	ret

000033f6 <prvWriteBytesToBuffer>:
    33f6:	cf 93       	push	r28
    33f8:	df 93       	push	r29
    33fa:	cd b7       	in	r28, 0x3d	; 61
    33fc:	de b7       	in	r29, 0x3e	; 62
    33fe:	2e 97       	sbiw	r28, 0x0e	; 14
    3400:	0f b6       	in	r0, 0x3f	; 63
    3402:	f8 94       	cli
    3404:	de bf       	out	0x3e, r29	; 62
    3406:	0f be       	out	0x3f, r0	; 63
    3408:	cd bf       	out	0x3d, r28	; 61
    340a:	9a 87       	std	Y+10, r25	; 0x0a
    340c:	89 87       	std	Y+9, r24	; 0x09
    340e:	7c 87       	std	Y+12, r23	; 0x0c
    3410:	6b 87       	std	Y+11, r22	; 0x0b
    3412:	5e 87       	std	Y+14, r21	; 0x0e
    3414:	4d 87       	std	Y+13, r20	; 0x0d
    3416:	89 85       	ldd	r24, Y+9	; 0x09
    3418:	9a 85       	ldd	r25, Y+10	; 0x0a
    341a:	fc 01       	movw	r30, r24
    341c:	82 81       	ldd	r24, Z+2	; 0x02
    341e:	93 81       	ldd	r25, Z+3	; 0x03
    3420:	9a 83       	std	Y+2, r25	; 0x02
    3422:	89 83       	std	Y+1, r24	; 0x01
    3424:	89 85       	ldd	r24, Y+9	; 0x09
    3426:	9a 85       	ldd	r25, Y+10	; 0x0a
    3428:	fc 01       	movw	r30, r24
    342a:	24 81       	ldd	r18, Z+4	; 0x04
    342c:	35 81       	ldd	r19, Z+5	; 0x05
    342e:	89 81       	ldd	r24, Y+1	; 0x01
    3430:	9a 81       	ldd	r25, Y+2	; 0x02
    3432:	a9 01       	movw	r20, r18
    3434:	48 1b       	sub	r20, r24
    3436:	59 0b       	sbc	r21, r25
    3438:	ca 01       	movw	r24, r20
    343a:	9c 83       	std	Y+4, r25	; 0x04
    343c:	8b 83       	std	Y+3, r24	; 0x03
    343e:	8d 85       	ldd	r24, Y+13	; 0x0d
    3440:	9e 85       	ldd	r25, Y+14	; 0x0e
    3442:	9e 83       	std	Y+6, r25	; 0x06
    3444:	8d 83       	std	Y+5, r24	; 0x05
    3446:	2b 81       	ldd	r18, Y+3	; 0x03
    3448:	3c 81       	ldd	r19, Y+4	; 0x04
    344a:	8d 81       	ldd	r24, Y+5	; 0x05
    344c:	9e 81       	ldd	r25, Y+6	; 0x06
    344e:	28 17       	cp	r18, r24
    3450:	39 07       	cpc	r19, r25
    3452:	08 f4       	brcc	.+2      	; 0x3456 <prvWriteBytesToBuffer+0x60>
    3454:	c9 01       	movw	r24, r18
    3456:	98 87       	std	Y+8, r25	; 0x08
    3458:	8f 83       	std	Y+7, r24	; 0x07
    345a:	89 85       	ldd	r24, Y+9	; 0x09
    345c:	9a 85       	ldd	r25, Y+10	; 0x0a
    345e:	fc 01       	movw	r30, r24
    3460:	24 85       	ldd	r18, Z+12	; 0x0c
    3462:	35 85       	ldd	r19, Z+13	; 0x0d
    3464:	89 81       	ldd	r24, Y+1	; 0x01
    3466:	9a 81       	ldd	r25, Y+2	; 0x02
    3468:	82 0f       	add	r24, r18
    346a:	93 1f       	adc	r25, r19
    346c:	4f 81       	ldd	r20, Y+7	; 0x07
    346e:	58 85       	ldd	r21, Y+8	; 0x08
    3470:	2b 85       	ldd	r18, Y+11	; 0x0b
    3472:	3c 85       	ldd	r19, Y+12	; 0x0c
    3474:	b9 01       	movw	r22, r18
    3476:	0e 94 29 49 	call	0x9252	; 0x9252 <memcpy>
    347a:	2d 85       	ldd	r18, Y+13	; 0x0d
    347c:	3e 85       	ldd	r19, Y+14	; 0x0e
    347e:	8f 81       	ldd	r24, Y+7	; 0x07
    3480:	98 85       	ldd	r25, Y+8	; 0x08
    3482:	82 17       	cp	r24, r18
    3484:	93 07       	cpc	r25, r19
    3486:	a8 f4       	brcc	.+42     	; 0x34b2 <prvWriteBytesToBuffer+0xbc>
    3488:	2d 85       	ldd	r18, Y+13	; 0x0d
    348a:	3e 85       	ldd	r19, Y+14	; 0x0e
    348c:	8f 81       	ldd	r24, Y+7	; 0x07
    348e:	98 85       	ldd	r25, Y+8	; 0x08
    3490:	a9 01       	movw	r20, r18
    3492:	48 1b       	sub	r20, r24
    3494:	59 0b       	sbc	r21, r25
    3496:	2b 85       	ldd	r18, Y+11	; 0x0b
    3498:	3c 85       	ldd	r19, Y+12	; 0x0c
    349a:	8f 81       	ldd	r24, Y+7	; 0x07
    349c:	98 85       	ldd	r25, Y+8	; 0x08
    349e:	28 0f       	add	r18, r24
    34a0:	39 1f       	adc	r19, r25
    34a2:	89 85       	ldd	r24, Y+9	; 0x09
    34a4:	9a 85       	ldd	r25, Y+10	; 0x0a
    34a6:	fc 01       	movw	r30, r24
    34a8:	84 85       	ldd	r24, Z+12	; 0x0c
    34aa:	95 85       	ldd	r25, Z+13	; 0x0d
    34ac:	b9 01       	movw	r22, r18
    34ae:	0e 94 29 49 	call	0x9252	; 0x9252 <memcpy>
    34b2:	29 81       	ldd	r18, Y+1	; 0x01
    34b4:	3a 81       	ldd	r19, Y+2	; 0x02
    34b6:	8d 85       	ldd	r24, Y+13	; 0x0d
    34b8:	9e 85       	ldd	r25, Y+14	; 0x0e
    34ba:	82 0f       	add	r24, r18
    34bc:	93 1f       	adc	r25, r19
    34be:	9a 83       	std	Y+2, r25	; 0x02
    34c0:	89 83       	std	Y+1, r24	; 0x01
    34c2:	89 85       	ldd	r24, Y+9	; 0x09
    34c4:	9a 85       	ldd	r25, Y+10	; 0x0a
    34c6:	fc 01       	movw	r30, r24
    34c8:	24 81       	ldd	r18, Z+4	; 0x04
    34ca:	35 81       	ldd	r19, Z+5	; 0x05
    34cc:	89 81       	ldd	r24, Y+1	; 0x01
    34ce:	9a 81       	ldd	r25, Y+2	; 0x02
    34d0:	82 17       	cp	r24, r18
    34d2:	93 07       	cpc	r25, r19
    34d4:	68 f0       	brcs	.+26     	; 0x34f0 <prvWriteBytesToBuffer+0xfa>
    34d6:	89 85       	ldd	r24, Y+9	; 0x09
    34d8:	9a 85       	ldd	r25, Y+10	; 0x0a
    34da:	fc 01       	movw	r30, r24
    34dc:	84 81       	ldd	r24, Z+4	; 0x04
    34de:	95 81       	ldd	r25, Z+5	; 0x05
    34e0:	29 81       	ldd	r18, Y+1	; 0x01
    34e2:	3a 81       	ldd	r19, Y+2	; 0x02
    34e4:	a9 01       	movw	r20, r18
    34e6:	48 1b       	sub	r20, r24
    34e8:	59 0b       	sbc	r21, r25
    34ea:	ca 01       	movw	r24, r20
    34ec:	9a 83       	std	Y+2, r25	; 0x02
    34ee:	89 83       	std	Y+1, r24	; 0x01
    34f0:	89 85       	ldd	r24, Y+9	; 0x09
    34f2:	9a 85       	ldd	r25, Y+10	; 0x0a
    34f4:	29 81       	ldd	r18, Y+1	; 0x01
    34f6:	3a 81       	ldd	r19, Y+2	; 0x02
    34f8:	fc 01       	movw	r30, r24
    34fa:	33 83       	std	Z+3, r19	; 0x03
    34fc:	22 83       	std	Z+2, r18	; 0x02
    34fe:	8d 85       	ldd	r24, Y+13	; 0x0d
    3500:	9e 85       	ldd	r25, Y+14	; 0x0e
    3502:	2e 96       	adiw	r28, 0x0e	; 14
    3504:	0f b6       	in	r0, 0x3f	; 63
    3506:	f8 94       	cli
    3508:	de bf       	out	0x3e, r29	; 62
    350a:	0f be       	out	0x3f, r0	; 63
    350c:	cd bf       	out	0x3d, r28	; 61
    350e:	df 91       	pop	r29
    3510:	cf 91       	pop	r28
    3512:	08 95       	ret

00003514 <prvReadBytesFromBuffer>:
    3514:	cf 93       	push	r28
    3516:	df 93       	push	r29
    3518:	cd b7       	in	r28, 0x3d	; 61
    351a:	de b7       	in	r29, 0x3e	; 62
    351c:	66 97       	sbiw	r28, 0x16	; 22
    351e:	0f b6       	in	r0, 0x3f	; 63
    3520:	f8 94       	cli
    3522:	de bf       	out	0x3e, r29	; 62
    3524:	0f be       	out	0x3f, r0	; 63
    3526:	cd bf       	out	0x3d, r28	; 61
    3528:	98 8b       	std	Y+16, r25	; 0x10
    352a:	8f 87       	std	Y+15, r24	; 0x0f
    352c:	7a 8b       	std	Y+18, r23	; 0x12
    352e:	69 8b       	std	Y+17, r22	; 0x11
    3530:	5c 8b       	std	Y+20, r21	; 0x14
    3532:	4b 8b       	std	Y+19, r20	; 0x13
    3534:	3e 8b       	std	Y+22, r19	; 0x16
    3536:	2d 8b       	std	Y+21, r18	; 0x15
    3538:	8d 89       	ldd	r24, Y+21	; 0x15
    353a:	9e 89       	ldd	r25, Y+22	; 0x16
    353c:	9c 83       	std	Y+4, r25	; 0x04
    353e:	8b 83       	std	Y+3, r24	; 0x03
    3540:	8b 89       	ldd	r24, Y+19	; 0x13
    3542:	9c 89       	ldd	r25, Y+20	; 0x14
    3544:	9e 83       	std	Y+6, r25	; 0x06
    3546:	8d 83       	std	Y+5, r24	; 0x05
    3548:	2b 81       	ldd	r18, Y+3	; 0x03
    354a:	3c 81       	ldd	r19, Y+4	; 0x04
    354c:	8d 81       	ldd	r24, Y+5	; 0x05
    354e:	9e 81       	ldd	r25, Y+6	; 0x06
    3550:	28 17       	cp	r18, r24
    3552:	39 07       	cpc	r19, r25
    3554:	08 f4       	brcc	.+2      	; 0x3558 <prvReadBytesFromBuffer+0x44>
    3556:	c9 01       	movw	r24, r18
    3558:	98 87       	std	Y+8, r25	; 0x08
    355a:	8f 83       	std	Y+7, r24	; 0x07
    355c:	8f 81       	ldd	r24, Y+7	; 0x07
    355e:	98 85       	ldd	r25, Y+8	; 0x08
    3560:	89 2b       	or	r24, r25
    3562:	09 f4       	brne	.+2      	; 0x3566 <prvReadBytesFromBuffer+0x52>
    3564:	73 c0       	rjmp	.+230    	; 0x364c <prvReadBytesFromBuffer+0x138>
    3566:	8f 85       	ldd	r24, Y+15	; 0x0f
    3568:	98 89       	ldd	r25, Y+16	; 0x10
    356a:	fc 01       	movw	r30, r24
    356c:	80 81       	ld	r24, Z
    356e:	91 81       	ldd	r25, Z+1	; 0x01
    3570:	9a 83       	std	Y+2, r25	; 0x02
    3572:	89 83       	std	Y+1, r24	; 0x01
    3574:	8f 85       	ldd	r24, Y+15	; 0x0f
    3576:	98 89       	ldd	r25, Y+16	; 0x10
    3578:	fc 01       	movw	r30, r24
    357a:	24 81       	ldd	r18, Z+4	; 0x04
    357c:	35 81       	ldd	r19, Z+5	; 0x05
    357e:	89 81       	ldd	r24, Y+1	; 0x01
    3580:	9a 81       	ldd	r25, Y+2	; 0x02
    3582:	a9 01       	movw	r20, r18
    3584:	48 1b       	sub	r20, r24
    3586:	59 0b       	sbc	r21, r25
    3588:	ca 01       	movw	r24, r20
    358a:	9a 87       	std	Y+10, r25	; 0x0a
    358c:	89 87       	std	Y+9, r24	; 0x09
    358e:	8f 81       	ldd	r24, Y+7	; 0x07
    3590:	98 85       	ldd	r25, Y+8	; 0x08
    3592:	9c 87       	std	Y+12, r25	; 0x0c
    3594:	8b 87       	std	Y+11, r24	; 0x0b
    3596:	29 85       	ldd	r18, Y+9	; 0x09
    3598:	3a 85       	ldd	r19, Y+10	; 0x0a
    359a:	8b 85       	ldd	r24, Y+11	; 0x0b
    359c:	9c 85       	ldd	r25, Y+12	; 0x0c
    359e:	28 17       	cp	r18, r24
    35a0:	39 07       	cpc	r19, r25
    35a2:	08 f4       	brcc	.+2      	; 0x35a6 <prvReadBytesFromBuffer+0x92>
    35a4:	c9 01       	movw	r24, r18
    35a6:	9e 87       	std	Y+14, r25	; 0x0e
    35a8:	8d 87       	std	Y+13, r24	; 0x0d
    35aa:	8f 85       	ldd	r24, Y+15	; 0x0f
    35ac:	98 89       	ldd	r25, Y+16	; 0x10
    35ae:	fc 01       	movw	r30, r24
    35b0:	24 85       	ldd	r18, Z+12	; 0x0c
    35b2:	35 85       	ldd	r19, Z+13	; 0x0d
    35b4:	89 81       	ldd	r24, Y+1	; 0x01
    35b6:	9a 81       	ldd	r25, Y+2	; 0x02
    35b8:	28 0f       	add	r18, r24
    35ba:	39 1f       	adc	r19, r25
    35bc:	4d 85       	ldd	r20, Y+13	; 0x0d
    35be:	5e 85       	ldd	r21, Y+14	; 0x0e
    35c0:	89 89       	ldd	r24, Y+17	; 0x11
    35c2:	9a 89       	ldd	r25, Y+18	; 0x12
    35c4:	b9 01       	movw	r22, r18
    35c6:	0e 94 29 49 	call	0x9252	; 0x9252 <memcpy>
    35ca:	2f 81       	ldd	r18, Y+7	; 0x07
    35cc:	38 85       	ldd	r19, Y+8	; 0x08
    35ce:	8d 85       	ldd	r24, Y+13	; 0x0d
    35d0:	9e 85       	ldd	r25, Y+14	; 0x0e
    35d2:	82 17       	cp	r24, r18
    35d4:	93 07       	cpc	r25, r19
    35d6:	a0 f4       	brcc	.+40     	; 0x3600 <prvReadBytesFromBuffer+0xec>
    35d8:	2f 81       	ldd	r18, Y+7	; 0x07
    35da:	38 85       	ldd	r19, Y+8	; 0x08
    35dc:	8d 85       	ldd	r24, Y+13	; 0x0d
    35de:	9e 85       	ldd	r25, Y+14	; 0x0e
    35e0:	a9 01       	movw	r20, r18
    35e2:	48 1b       	sub	r20, r24
    35e4:	59 0b       	sbc	r21, r25
    35e6:	8f 85       	ldd	r24, Y+15	; 0x0f
    35e8:	98 89       	ldd	r25, Y+16	; 0x10
    35ea:	fc 01       	movw	r30, r24
    35ec:	64 85       	ldd	r22, Z+12	; 0x0c
    35ee:	75 85       	ldd	r23, Z+13	; 0x0d
    35f0:	29 89       	ldd	r18, Y+17	; 0x11
    35f2:	3a 89       	ldd	r19, Y+18	; 0x12
    35f4:	8d 85       	ldd	r24, Y+13	; 0x0d
    35f6:	9e 85       	ldd	r25, Y+14	; 0x0e
    35f8:	82 0f       	add	r24, r18
    35fa:	93 1f       	adc	r25, r19
    35fc:	0e 94 29 49 	call	0x9252	; 0x9252 <memcpy>
    3600:	29 81       	ldd	r18, Y+1	; 0x01
    3602:	3a 81       	ldd	r19, Y+2	; 0x02
    3604:	8f 81       	ldd	r24, Y+7	; 0x07
    3606:	98 85       	ldd	r25, Y+8	; 0x08
    3608:	82 0f       	add	r24, r18
    360a:	93 1f       	adc	r25, r19
    360c:	9a 83       	std	Y+2, r25	; 0x02
    360e:	89 83       	std	Y+1, r24	; 0x01
    3610:	8f 85       	ldd	r24, Y+15	; 0x0f
    3612:	98 89       	ldd	r25, Y+16	; 0x10
    3614:	fc 01       	movw	r30, r24
    3616:	24 81       	ldd	r18, Z+4	; 0x04
    3618:	35 81       	ldd	r19, Z+5	; 0x05
    361a:	89 81       	ldd	r24, Y+1	; 0x01
    361c:	9a 81       	ldd	r25, Y+2	; 0x02
    361e:	82 17       	cp	r24, r18
    3620:	93 07       	cpc	r25, r19
    3622:	68 f0       	brcs	.+26     	; 0x363e <prvReadBytesFromBuffer+0x12a>
    3624:	8f 85       	ldd	r24, Y+15	; 0x0f
    3626:	98 89       	ldd	r25, Y+16	; 0x10
    3628:	fc 01       	movw	r30, r24
    362a:	84 81       	ldd	r24, Z+4	; 0x04
    362c:	95 81       	ldd	r25, Z+5	; 0x05
    362e:	29 81       	ldd	r18, Y+1	; 0x01
    3630:	3a 81       	ldd	r19, Y+2	; 0x02
    3632:	a9 01       	movw	r20, r18
    3634:	48 1b       	sub	r20, r24
    3636:	59 0b       	sbc	r21, r25
    3638:	ca 01       	movw	r24, r20
    363a:	9a 83       	std	Y+2, r25	; 0x02
    363c:	89 83       	std	Y+1, r24	; 0x01
    363e:	8f 85       	ldd	r24, Y+15	; 0x0f
    3640:	98 89       	ldd	r25, Y+16	; 0x10
    3642:	29 81       	ldd	r18, Y+1	; 0x01
    3644:	3a 81       	ldd	r19, Y+2	; 0x02
    3646:	fc 01       	movw	r30, r24
    3648:	31 83       	std	Z+1, r19	; 0x01
    364a:	20 83       	st	Z, r18
    364c:	8f 81       	ldd	r24, Y+7	; 0x07
    364e:	98 85       	ldd	r25, Y+8	; 0x08
    3650:	66 96       	adiw	r28, 0x16	; 22
    3652:	0f b6       	in	r0, 0x3f	; 63
    3654:	f8 94       	cli
    3656:	de bf       	out	0x3e, r29	; 62
    3658:	0f be       	out	0x3f, r0	; 63
    365a:	cd bf       	out	0x3d, r28	; 61
    365c:	df 91       	pop	r29
    365e:	cf 91       	pop	r28
    3660:	08 95       	ret

00003662 <prvBytesInBuffer>:
    3662:	cf 93       	push	r28
    3664:	df 93       	push	r29
    3666:	00 d0       	rcall	.+0      	; 0x3668 <prvBytesInBuffer+0x6>
    3668:	1f 92       	push	r1
    366a:	cd b7       	in	r28, 0x3d	; 61
    366c:	de b7       	in	r29, 0x3e	; 62
    366e:	9c 83       	std	Y+4, r25	; 0x04
    3670:	8b 83       	std	Y+3, r24	; 0x03
    3672:	8b 81       	ldd	r24, Y+3	; 0x03
    3674:	9c 81       	ldd	r25, Y+4	; 0x04
    3676:	fc 01       	movw	r30, r24
    3678:	24 81       	ldd	r18, Z+4	; 0x04
    367a:	35 81       	ldd	r19, Z+5	; 0x05
    367c:	8b 81       	ldd	r24, Y+3	; 0x03
    367e:	9c 81       	ldd	r25, Y+4	; 0x04
    3680:	fc 01       	movw	r30, r24
    3682:	82 81       	ldd	r24, Z+2	; 0x02
    3684:	93 81       	ldd	r25, Z+3	; 0x03
    3686:	82 0f       	add	r24, r18
    3688:	93 1f       	adc	r25, r19
    368a:	9a 83       	std	Y+2, r25	; 0x02
    368c:	89 83       	std	Y+1, r24	; 0x01
    368e:	8b 81       	ldd	r24, Y+3	; 0x03
    3690:	9c 81       	ldd	r25, Y+4	; 0x04
    3692:	fc 01       	movw	r30, r24
    3694:	80 81       	ld	r24, Z
    3696:	91 81       	ldd	r25, Z+1	; 0x01
    3698:	29 81       	ldd	r18, Y+1	; 0x01
    369a:	3a 81       	ldd	r19, Y+2	; 0x02
    369c:	a9 01       	movw	r20, r18
    369e:	48 1b       	sub	r20, r24
    36a0:	59 0b       	sbc	r21, r25
    36a2:	ca 01       	movw	r24, r20
    36a4:	9a 83       	std	Y+2, r25	; 0x02
    36a6:	89 83       	std	Y+1, r24	; 0x01
    36a8:	8b 81       	ldd	r24, Y+3	; 0x03
    36aa:	9c 81       	ldd	r25, Y+4	; 0x04
    36ac:	fc 01       	movw	r30, r24
    36ae:	24 81       	ldd	r18, Z+4	; 0x04
    36b0:	35 81       	ldd	r19, Z+5	; 0x05
    36b2:	89 81       	ldd	r24, Y+1	; 0x01
    36b4:	9a 81       	ldd	r25, Y+2	; 0x02
    36b6:	82 17       	cp	r24, r18
    36b8:	93 07       	cpc	r25, r19
    36ba:	68 f0       	brcs	.+26     	; 0x36d6 <prvBytesInBuffer+0x74>
    36bc:	8b 81       	ldd	r24, Y+3	; 0x03
    36be:	9c 81       	ldd	r25, Y+4	; 0x04
    36c0:	fc 01       	movw	r30, r24
    36c2:	84 81       	ldd	r24, Z+4	; 0x04
    36c4:	95 81       	ldd	r25, Z+5	; 0x05
    36c6:	29 81       	ldd	r18, Y+1	; 0x01
    36c8:	3a 81       	ldd	r19, Y+2	; 0x02
    36ca:	a9 01       	movw	r20, r18
    36cc:	48 1b       	sub	r20, r24
    36ce:	59 0b       	sbc	r21, r25
    36d0:	ca 01       	movw	r24, r20
    36d2:	9a 83       	std	Y+2, r25	; 0x02
    36d4:	89 83       	std	Y+1, r24	; 0x01
    36d6:	89 81       	ldd	r24, Y+1	; 0x01
    36d8:	9a 81       	ldd	r25, Y+2	; 0x02
    36da:	0f 90       	pop	r0
    36dc:	0f 90       	pop	r0
    36de:	0f 90       	pop	r0
    36e0:	0f 90       	pop	r0
    36e2:	df 91       	pop	r29
    36e4:	cf 91       	pop	r28
    36e6:	08 95       	ret

000036e8 <prvInitialiseNewStreamBuffer>:
    36e8:	0f 93       	push	r16
    36ea:	cf 93       	push	r28
    36ec:	df 93       	push	r29
    36ee:	cd b7       	in	r28, 0x3d	; 61
    36f0:	de b7       	in	r29, 0x3e	; 62
    36f2:	29 97       	sbiw	r28, 0x09	; 9
    36f4:	0f b6       	in	r0, 0x3f	; 63
    36f6:	f8 94       	cli
    36f8:	de bf       	out	0x3e, r29	; 62
    36fa:	0f be       	out	0x3f, r0	; 63
    36fc:	cd bf       	out	0x3d, r28	; 61
    36fe:	9a 83       	std	Y+2, r25	; 0x02
    3700:	89 83       	std	Y+1, r24	; 0x01
    3702:	7c 83       	std	Y+4, r23	; 0x04
    3704:	6b 83       	std	Y+3, r22	; 0x03
    3706:	5e 83       	std	Y+6, r21	; 0x06
    3708:	4d 83       	std	Y+5, r20	; 0x05
    370a:	38 87       	std	Y+8, r19	; 0x08
    370c:	2f 83       	std	Y+7, r18	; 0x07
    370e:	09 87       	std	Y+9, r16	; 0x09
    3710:	89 81       	ldd	r24, Y+1	; 0x01
    3712:	9a 81       	ldd	r25, Y+2	; 0x02
    3714:	4f e0       	ldi	r20, 0x0F	; 15
    3716:	50 e0       	ldi	r21, 0x00	; 0
    3718:	60 e0       	ldi	r22, 0x00	; 0
    371a:	70 e0       	ldi	r23, 0x00	; 0
    371c:	0e 94 32 49 	call	0x9264	; 0x9264 <memset>
    3720:	89 81       	ldd	r24, Y+1	; 0x01
    3722:	9a 81       	ldd	r25, Y+2	; 0x02
    3724:	2b 81       	ldd	r18, Y+3	; 0x03
    3726:	3c 81       	ldd	r19, Y+4	; 0x04
    3728:	fc 01       	movw	r30, r24
    372a:	35 87       	std	Z+13, r19	; 0x0d
    372c:	24 87       	std	Z+12, r18	; 0x0c
    372e:	89 81       	ldd	r24, Y+1	; 0x01
    3730:	9a 81       	ldd	r25, Y+2	; 0x02
    3732:	2d 81       	ldd	r18, Y+5	; 0x05
    3734:	3e 81       	ldd	r19, Y+6	; 0x06
    3736:	fc 01       	movw	r30, r24
    3738:	35 83       	std	Z+5, r19	; 0x05
    373a:	24 83       	std	Z+4, r18	; 0x04
    373c:	89 81       	ldd	r24, Y+1	; 0x01
    373e:	9a 81       	ldd	r25, Y+2	; 0x02
    3740:	2f 81       	ldd	r18, Y+7	; 0x07
    3742:	38 85       	ldd	r19, Y+8	; 0x08
    3744:	fc 01       	movw	r30, r24
    3746:	37 83       	std	Z+7, r19	; 0x07
    3748:	26 83       	std	Z+6, r18	; 0x06
    374a:	89 81       	ldd	r24, Y+1	; 0x01
    374c:	9a 81       	ldd	r25, Y+2	; 0x02
    374e:	29 85       	ldd	r18, Y+9	; 0x09
    3750:	fc 01       	movw	r30, r24
    3752:	26 87       	std	Z+14, r18	; 0x0e
    3754:	00 00       	nop
    3756:	29 96       	adiw	r28, 0x09	; 9
    3758:	0f b6       	in	r0, 0x3f	; 63
    375a:	f8 94       	cli
    375c:	de bf       	out	0x3e, r29	; 62
    375e:	0f be       	out	0x3f, r0	; 63
    3760:	cd bf       	out	0x3d, r28	; 61
    3762:	df 91       	pop	r29
    3764:	cf 91       	pop	r28
    3766:	0f 91       	pop	r16
    3768:	08 95       	ret

0000376a <xTaskCreate>:
    376a:	af 92       	push	r10
    376c:	bf 92       	push	r11
    376e:	cf 92       	push	r12
    3770:	df 92       	push	r13
    3772:	ef 92       	push	r14
    3774:	ff 92       	push	r15
    3776:	0f 93       	push	r16
    3778:	cf 93       	push	r28
    377a:	df 93       	push	r29
    377c:	cd b7       	in	r28, 0x3d	; 61
    377e:	de b7       	in	r29, 0x3e	; 62
    3780:	60 97       	sbiw	r28, 0x10	; 16
    3782:	0f b6       	in	r0, 0x3f	; 63
    3784:	f8 94       	cli
    3786:	de bf       	out	0x3e, r29	; 62
    3788:	0f be       	out	0x3f, r0	; 63
    378a:	cd bf       	out	0x3d, r28	; 61
    378c:	9f 83       	std	Y+7, r25	; 0x07
    378e:	8e 83       	std	Y+6, r24	; 0x06
    3790:	79 87       	std	Y+9, r23	; 0x09
    3792:	68 87       	std	Y+8, r22	; 0x08
    3794:	5b 87       	std	Y+11, r21	; 0x0b
    3796:	4a 87       	std	Y+10, r20	; 0x0a
    3798:	3d 87       	std	Y+13, r19	; 0x0d
    379a:	2c 87       	std	Y+12, r18	; 0x0c
    379c:	0e 87       	std	Y+14, r16	; 0x0e
    379e:	f8 8a       	std	Y+16, r15	; 0x10
    37a0:	ef 86       	std	Y+15, r14	; 0x0f
    37a2:	8a 85       	ldd	r24, Y+10	; 0x0a
    37a4:	9b 85       	ldd	r25, Y+11	; 0x0b
    37a6:	0e 94 19 0a 	call	0x1432	; 0x1432 <pvPortMalloc>
    37aa:	9d 83       	std	Y+5, r25	; 0x05
    37ac:	8c 83       	std	Y+4, r24	; 0x04
    37ae:	8c 81       	ldd	r24, Y+4	; 0x04
    37b0:	9d 81       	ldd	r25, Y+5	; 0x05
    37b2:	89 2b       	or	r24, r25
    37b4:	b9 f0       	breq	.+46     	; 0x37e4 <xTaskCreate+0x7a>
    37b6:	84 e3       	ldi	r24, 0x34	; 52
    37b8:	90 e0       	ldi	r25, 0x00	; 0
    37ba:	0e 94 19 0a 	call	0x1432	; 0x1432 <pvPortMalloc>
    37be:	9a 83       	std	Y+2, r25	; 0x02
    37c0:	89 83       	std	Y+1, r24	; 0x01
    37c2:	89 81       	ldd	r24, Y+1	; 0x01
    37c4:	9a 81       	ldd	r25, Y+2	; 0x02
    37c6:	89 2b       	or	r24, r25
    37c8:	41 f0       	breq	.+16     	; 0x37da <xTaskCreate+0x70>
    37ca:	89 81       	ldd	r24, Y+1	; 0x01
    37cc:	9a 81       	ldd	r25, Y+2	; 0x02
    37ce:	2c 81       	ldd	r18, Y+4	; 0x04
    37d0:	3d 81       	ldd	r19, Y+5	; 0x05
    37d2:	fc 01       	movw	r30, r24
    37d4:	34 8f       	std	Z+28, r19	; 0x1c
    37d6:	23 8f       	std	Z+27, r18	; 0x1b
    37d8:	07 c0       	rjmp	.+14     	; 0x37e8 <xTaskCreate+0x7e>
    37da:	8c 81       	ldd	r24, Y+4	; 0x04
    37dc:	9d 81       	ldd	r25, Y+5	; 0x05
    37de:	0e 94 2f 0b 	call	0x165e	; 0x165e <vPortFree>
    37e2:	02 c0       	rjmp	.+4      	; 0x37e8 <xTaskCreate+0x7e>
    37e4:	1a 82       	std	Y+2, r1	; 0x02
    37e6:	19 82       	std	Y+1, r1	; 0x01
    37e8:	89 81       	ldd	r24, Y+1	; 0x01
    37ea:	9a 81       	ldd	r25, Y+2	; 0x02
    37ec:	89 2b       	or	r24, r25
    37ee:	c1 f0       	breq	.+48     	; 0x3820 <xTaskCreate+0xb6>
    37f0:	a9 81       	ldd	r26, Y+1	; 0x01
    37f2:	ba 81       	ldd	r27, Y+2	; 0x02
    37f4:	ef 85       	ldd	r30, Y+15	; 0x0f
    37f6:	f8 89       	ldd	r31, Y+16	; 0x10
    37f8:	2c 85       	ldd	r18, Y+12	; 0x0c
    37fa:	3d 85       	ldd	r19, Y+13	; 0x0d
    37fc:	4a 85       	ldd	r20, Y+10	; 0x0a
    37fe:	5b 85       	ldd	r21, Y+11	; 0x0b
    3800:	68 85       	ldd	r22, Y+8	; 0x08
    3802:	79 85       	ldd	r23, Y+9	; 0x09
    3804:	8e 81       	ldd	r24, Y+6	; 0x06
    3806:	9f 81       	ldd	r25, Y+7	; 0x07
    3808:	a1 2c       	mov	r10, r1
    380a:	b1 2c       	mov	r11, r1
    380c:	6d 01       	movw	r12, r26
    380e:	7f 01       	movw	r14, r30
    3810:	0e 85       	ldd	r16, Y+14	; 0x0e
    3812:	19 d0       	rcall	.+50     	; 0x3846 <prvInitialiseNewTask>
    3814:	89 81       	ldd	r24, Y+1	; 0x01
    3816:	9a 81       	ldd	r25, Y+2	; 0x02
    3818:	05 d1       	rcall	.+522    	; 0x3a24 <prvAddNewTaskToReadyList>
    381a:	81 e0       	ldi	r24, 0x01	; 1
    381c:	8b 83       	std	Y+3, r24	; 0x03
    381e:	02 c0       	rjmp	.+4      	; 0x3824 <xTaskCreate+0xba>
    3820:	8f ef       	ldi	r24, 0xFF	; 255
    3822:	8b 83       	std	Y+3, r24	; 0x03
    3824:	8b 81       	ldd	r24, Y+3	; 0x03
    3826:	60 96       	adiw	r28, 0x10	; 16
    3828:	0f b6       	in	r0, 0x3f	; 63
    382a:	f8 94       	cli
    382c:	de bf       	out	0x3e, r29	; 62
    382e:	0f be       	out	0x3f, r0	; 63
    3830:	cd bf       	out	0x3d, r28	; 61
    3832:	df 91       	pop	r29
    3834:	cf 91       	pop	r28
    3836:	0f 91       	pop	r16
    3838:	ff 90       	pop	r15
    383a:	ef 90       	pop	r14
    383c:	df 90       	pop	r13
    383e:	cf 90       	pop	r12
    3840:	bf 90       	pop	r11
    3842:	af 90       	pop	r10
    3844:	08 95       	ret

00003846 <prvInitialiseNewTask>:
    3846:	af 92       	push	r10
    3848:	bf 92       	push	r11
    384a:	cf 92       	push	r12
    384c:	df 92       	push	r13
    384e:	ef 92       	push	r14
    3850:	ff 92       	push	r15
    3852:	0f 93       	push	r16
    3854:	1f 93       	push	r17
    3856:	cf 93       	push	r28
    3858:	df 93       	push	r29
    385a:	cd b7       	in	r28, 0x3d	; 61
    385c:	de b7       	in	r29, 0x3e	; 62
    385e:	62 97       	sbiw	r28, 0x12	; 18
    3860:	0f b6       	in	r0, 0x3f	; 63
    3862:	f8 94       	cli
    3864:	de bf       	out	0x3e, r29	; 62
    3866:	0f be       	out	0x3f, r0	; 63
    3868:	cd bf       	out	0x3d, r28	; 61
    386a:	9d 83       	std	Y+5, r25	; 0x05
    386c:	8c 83       	std	Y+4, r24	; 0x04
    386e:	7f 83       	std	Y+7, r23	; 0x07
    3870:	6e 83       	std	Y+6, r22	; 0x06
    3872:	59 87       	std	Y+9, r21	; 0x09
    3874:	48 87       	std	Y+8, r20	; 0x08
    3876:	3b 87       	std	Y+11, r19	; 0x0b
    3878:	2a 87       	std	Y+10, r18	; 0x0a
    387a:	0c 87       	std	Y+12, r16	; 0x0c
    387c:	fe 86       	std	Y+14, r15	; 0x0e
    387e:	ed 86       	std	Y+13, r14	; 0x0d
    3880:	d8 8a       	std	Y+16, r13	; 0x10
    3882:	cf 86       	std	Y+15, r12	; 0x0f
    3884:	ba 8a       	std	Y+18, r11	; 0x12
    3886:	a9 8a       	std	Y+17, r10	; 0x11
    3888:	8f 85       	ldd	r24, Y+15	; 0x0f
    388a:	98 89       	ldd	r25, Y+16	; 0x10
    388c:	fc 01       	movw	r30, r24
    388e:	83 8d       	ldd	r24, Z+27	; 0x1b
    3890:	94 8d       	ldd	r25, Z+28	; 0x1c
    3892:	28 85       	ldd	r18, Y+8	; 0x08
    3894:	39 85       	ldd	r19, Y+9	; 0x09
    3896:	a9 01       	movw	r20, r18
    3898:	65 ea       	ldi	r22, 0xA5	; 165
    389a:	70 e0       	ldi	r23, 0x00	; 0
    389c:	0e 94 32 49 	call	0x9264	; 0x9264 <memset>
    38a0:	8f 85       	ldd	r24, Y+15	; 0x0f
    38a2:	98 89       	ldd	r25, Y+16	; 0x10
    38a4:	fc 01       	movw	r30, r24
    38a6:	23 8d       	ldd	r18, Z+27	; 0x1b
    38a8:	34 8d       	ldd	r19, Z+28	; 0x1c
    38aa:	88 85       	ldd	r24, Y+8	; 0x08
    38ac:	99 85       	ldd	r25, Y+9	; 0x09
    38ae:	01 97       	sbiw	r24, 0x01	; 1
    38b0:	82 0f       	add	r24, r18
    38b2:	93 1f       	adc	r25, r19
    38b4:	9b 83       	std	Y+3, r25	; 0x03
    38b6:	8a 83       	std	Y+2, r24	; 0x02
    38b8:	8e 81       	ldd	r24, Y+6	; 0x06
    38ba:	9f 81       	ldd	r25, Y+7	; 0x07
    38bc:	89 2b       	or	r24, r25
    38be:	69 f1       	breq	.+90     	; 0x391a <prvInitialiseNewTask+0xd4>
    38c0:	19 82       	std	Y+1, r1	; 0x01
    38c2:	21 c0       	rjmp	.+66     	; 0x3906 <prvInitialiseNewTask+0xc0>
    38c4:	89 81       	ldd	r24, Y+1	; 0x01
    38c6:	88 2f       	mov	r24, r24
    38c8:	90 e0       	ldi	r25, 0x00	; 0
    38ca:	29 81       	ldd	r18, Y+1	; 0x01
    38cc:	22 2f       	mov	r18, r18
    38ce:	30 e0       	ldi	r19, 0x00	; 0
    38d0:	4e 81       	ldd	r20, Y+6	; 0x06
    38d2:	5f 81       	ldd	r21, Y+7	; 0x07
    38d4:	24 0f       	add	r18, r20
    38d6:	35 1f       	adc	r19, r21
    38d8:	f9 01       	movw	r30, r18
    38da:	40 81       	ld	r20, Z
    38dc:	2f 85       	ldd	r18, Y+15	; 0x0f
    38de:	38 89       	ldd	r19, Y+16	; 0x10
    38e0:	82 0f       	add	r24, r18
    38e2:	93 1f       	adc	r25, r19
    38e4:	4d 96       	adiw	r24, 0x1d	; 29
    38e6:	fc 01       	movw	r30, r24
    38e8:	40 83       	st	Z, r20
    38ea:	89 81       	ldd	r24, Y+1	; 0x01
    38ec:	88 2f       	mov	r24, r24
    38ee:	90 e0       	ldi	r25, 0x00	; 0
    38f0:	2e 81       	ldd	r18, Y+6	; 0x06
    38f2:	3f 81       	ldd	r19, Y+7	; 0x07
    38f4:	82 0f       	add	r24, r18
    38f6:	93 1f       	adc	r25, r19
    38f8:	fc 01       	movw	r30, r24
    38fa:	80 81       	ld	r24, Z
    38fc:	88 23       	and	r24, r24
    38fe:	39 f0       	breq	.+14     	; 0x390e <prvInitialiseNewTask+0xc8>
    3900:	89 81       	ldd	r24, Y+1	; 0x01
    3902:	8f 5f       	subi	r24, 0xFF	; 255
    3904:	89 83       	std	Y+1, r24	; 0x01
    3906:	89 81       	ldd	r24, Y+1	; 0x01
    3908:	80 31       	cpi	r24, 0x10	; 16
    390a:	e0 f2       	brcs	.-72     	; 0x38c4 <prvInitialiseNewTask+0x7e>
    390c:	01 c0       	rjmp	.+2      	; 0x3910 <prvInitialiseNewTask+0xca>
    390e:	00 00       	nop
    3910:	8f 85       	ldd	r24, Y+15	; 0x0f
    3912:	98 89       	ldd	r25, Y+16	; 0x10
    3914:	fc 01       	movw	r30, r24
    3916:	14 a6       	std	Z+44, r1	; 0x2c
    3918:	04 c0       	rjmp	.+8      	; 0x3922 <prvInitialiseNewTask+0xdc>
    391a:	8f 85       	ldd	r24, Y+15	; 0x0f
    391c:	98 89       	ldd	r25, Y+16	; 0x10
    391e:	fc 01       	movw	r30, r24
    3920:	15 8e       	std	Z+29, r1	; 0x1d
    3922:	8c 85       	ldd	r24, Y+12	; 0x0c
    3924:	8a 30       	cpi	r24, 0x0A	; 10
    3926:	10 f0       	brcs	.+4      	; 0x392c <prvInitialiseNewTask+0xe6>
    3928:	89 e0       	ldi	r24, 0x09	; 9
    392a:	8c 87       	std	Y+12, r24	; 0x0c
    392c:	8f 85       	ldd	r24, Y+15	; 0x0f
    392e:	98 89       	ldd	r25, Y+16	; 0x10
    3930:	2c 85       	ldd	r18, Y+12	; 0x0c
    3932:	fc 01       	movw	r30, r24
    3934:	22 8f       	std	Z+26, r18	; 0x1a
    3936:	8f 85       	ldd	r24, Y+15	; 0x0f
    3938:	98 89       	ldd	r25, Y+16	; 0x10
    393a:	2c 85       	ldd	r18, Y+12	; 0x0c
    393c:	fc 01       	movw	r30, r24
    393e:	25 a7       	std	Z+45, r18	; 0x2d
    3940:	8f 85       	ldd	r24, Y+15	; 0x0f
    3942:	98 89       	ldd	r25, Y+16	; 0x10
    3944:	fc 01       	movw	r30, r24
    3946:	16 a6       	std	Z+46, r1	; 0x2e
    3948:	8f 85       	ldd	r24, Y+15	; 0x0f
    394a:	98 89       	ldd	r25, Y+16	; 0x10
    394c:	02 96       	adiw	r24, 0x02	; 2
    394e:	0e 94 0c 0d 	call	0x1a18	; 0x1a18 <vListInitialiseItem>
    3952:	8f 85       	ldd	r24, Y+15	; 0x0f
    3954:	98 89       	ldd	r25, Y+16	; 0x10
    3956:	0e 96       	adiw	r24, 0x0e	; 14
    3958:	0e 94 0c 0d 	call	0x1a18	; 0x1a18 <vListInitialiseItem>
    395c:	8f 85       	ldd	r24, Y+15	; 0x0f
    395e:	98 89       	ldd	r25, Y+16	; 0x10
    3960:	2f 85       	ldd	r18, Y+15	; 0x0f
    3962:	38 89       	ldd	r19, Y+16	; 0x10
    3964:	fc 01       	movw	r30, r24
    3966:	33 87       	std	Z+11, r19	; 0x0b
    3968:	22 87       	std	Z+10, r18	; 0x0a
    396a:	8c 85       	ldd	r24, Y+12	; 0x0c
    396c:	88 2f       	mov	r24, r24
    396e:	90 e0       	ldi	r25, 0x00	; 0
    3970:	a0 e0       	ldi	r26, 0x00	; 0
    3972:	b0 e0       	ldi	r27, 0x00	; 0
    3974:	2a e0       	ldi	r18, 0x0A	; 10
    3976:	30 e0       	ldi	r19, 0x00	; 0
    3978:	40 e0       	ldi	r20, 0x00	; 0
    397a:	50 e0       	ldi	r21, 0x00	; 0
    397c:	79 01       	movw	r14, r18
    397e:	8a 01       	movw	r16, r20
    3980:	e8 1a       	sub	r14, r24
    3982:	f9 0a       	sbc	r15, r25
    3984:	0a 0b       	sbc	r16, r26
    3986:	1b 0b       	sbc	r17, r27
    3988:	d8 01       	movw	r26, r16
    398a:	c7 01       	movw	r24, r14
    398c:	2f 85       	ldd	r18, Y+15	; 0x0f
    398e:	38 89       	ldd	r19, Y+16	; 0x10
    3990:	f9 01       	movw	r30, r18
    3992:	86 87       	std	Z+14, r24	; 0x0e
    3994:	97 87       	std	Z+15, r25	; 0x0f
    3996:	a0 8b       	std	Z+16, r26	; 0x10
    3998:	b1 8b       	std	Z+17, r27	; 0x11
    399a:	8f 85       	ldd	r24, Y+15	; 0x0f
    399c:	98 89       	ldd	r25, Y+16	; 0x10
    399e:	2f 85       	ldd	r18, Y+15	; 0x0f
    39a0:	38 89       	ldd	r19, Y+16	; 0x10
    39a2:	fc 01       	movw	r30, r24
    39a4:	37 8b       	std	Z+23, r19	; 0x17
    39a6:	26 8b       	std	Z+22, r18	; 0x16
    39a8:	8f 85       	ldd	r24, Y+15	; 0x0f
    39aa:	98 89       	ldd	r25, Y+16	; 0x10
    39ac:	8f 96       	adiw	r24, 0x2f	; 47
    39ae:	44 e0       	ldi	r20, 0x04	; 4
    39b0:	50 e0       	ldi	r21, 0x00	; 0
    39b2:	60 e0       	ldi	r22, 0x00	; 0
    39b4:	70 e0       	ldi	r23, 0x00	; 0
    39b6:	0e 94 32 49 	call	0x9264	; 0x9264 <memset>
    39ba:	8f 85       	ldd	r24, Y+15	; 0x0f
    39bc:	98 89       	ldd	r25, Y+16	; 0x10
    39be:	c3 96       	adiw	r24, 0x33	; 51
    39c0:	41 e0       	ldi	r20, 0x01	; 1
    39c2:	50 e0       	ldi	r21, 0x00	; 0
    39c4:	60 e0       	ldi	r22, 0x00	; 0
    39c6:	70 e0       	ldi	r23, 0x00	; 0
    39c8:	0e 94 32 49 	call	0x9264	; 0x9264 <memset>
    39cc:	4a 85       	ldd	r20, Y+10	; 0x0a
    39ce:	5b 85       	ldd	r21, Y+11	; 0x0b
    39d0:	2c 81       	ldd	r18, Y+4	; 0x04
    39d2:	3d 81       	ldd	r19, Y+5	; 0x05
    39d4:	8a 81       	ldd	r24, Y+2	; 0x02
    39d6:	9b 81       	ldd	r25, Y+3	; 0x03
    39d8:	b9 01       	movw	r22, r18
    39da:	0e 94 fd 0d 	call	0x1bfa	; 0x1bfa <pxPortInitialiseStack>
    39de:	9c 01       	movw	r18, r24
    39e0:	8f 85       	ldd	r24, Y+15	; 0x0f
    39e2:	98 89       	ldd	r25, Y+16	; 0x10
    39e4:	fc 01       	movw	r30, r24
    39e6:	31 83       	std	Z+1, r19	; 0x01
    39e8:	20 83       	st	Z, r18
    39ea:	8d 85       	ldd	r24, Y+13	; 0x0d
    39ec:	9e 85       	ldd	r25, Y+14	; 0x0e
    39ee:	89 2b       	or	r24, r25
    39f0:	39 f0       	breq	.+14     	; 0x3a00 <prvInitialiseNewTask+0x1ba>
    39f2:	8d 85       	ldd	r24, Y+13	; 0x0d
    39f4:	9e 85       	ldd	r25, Y+14	; 0x0e
    39f6:	2f 85       	ldd	r18, Y+15	; 0x0f
    39f8:	38 89       	ldd	r19, Y+16	; 0x10
    39fa:	fc 01       	movw	r30, r24
    39fc:	31 83       	std	Z+1, r19	; 0x01
    39fe:	20 83       	st	Z, r18
    3a00:	00 00       	nop
    3a02:	62 96       	adiw	r28, 0x12	; 18
    3a04:	0f b6       	in	r0, 0x3f	; 63
    3a06:	f8 94       	cli
    3a08:	de bf       	out	0x3e, r29	; 62
    3a0a:	0f be       	out	0x3f, r0	; 63
    3a0c:	cd bf       	out	0x3d, r28	; 61
    3a0e:	df 91       	pop	r29
    3a10:	cf 91       	pop	r28
    3a12:	1f 91       	pop	r17
    3a14:	0f 91       	pop	r16
    3a16:	ff 90       	pop	r15
    3a18:	ef 90       	pop	r14
    3a1a:	df 90       	pop	r13
    3a1c:	cf 90       	pop	r12
    3a1e:	bf 90       	pop	r11
    3a20:	af 90       	pop	r10
    3a22:	08 95       	ret

00003a24 <prvAddNewTaskToReadyList>:
    3a24:	cf 93       	push	r28
    3a26:	df 93       	push	r29
    3a28:	00 d0       	rcall	.+0      	; 0x3a2a <prvAddNewTaskToReadyList+0x6>
    3a2a:	1f 92       	push	r1
    3a2c:	cd b7       	in	r28, 0x3d	; 61
    3a2e:	de b7       	in	r29, 0x3e	; 62
    3a30:	9c 83       	std	Y+4, r25	; 0x04
    3a32:	8b 83       	std	Y+3, r24	; 0x03
    3a34:	0f b6       	in	r0, 0x3f	; 63
    3a36:	f8 94       	cli
    3a38:	0f 92       	push	r0
    3a3a:	80 91 bd 17 	lds	r24, 0x17BD	; 0x8017bd <uxCurrentNumberOfTasks>
    3a3e:	8f 5f       	subi	r24, 0xFF	; 255
    3a40:	80 93 bd 17 	sts	0x17BD, r24	; 0x8017bd <uxCurrentNumberOfTasks>
    3a44:	80 91 1c 17 	lds	r24, 0x171C	; 0x80171c <pxCurrentTCB>
    3a48:	90 91 1d 17 	lds	r25, 0x171D	; 0x80171d <pxCurrentTCB+0x1>
    3a4c:	89 2b       	or	r24, r25
    3a4e:	69 f4       	brne	.+26     	; 0x3a6a <prvAddNewTaskToReadyList+0x46>
    3a50:	8b 81       	ldd	r24, Y+3	; 0x03
    3a52:	9c 81       	ldd	r25, Y+4	; 0x04
    3a54:	90 93 1d 17 	sts	0x171D, r25	; 0x80171d <pxCurrentTCB+0x1>
    3a58:	80 93 1c 17 	sts	0x171C, r24	; 0x80171c <pxCurrentTCB>
    3a5c:	80 91 bd 17 	lds	r24, 0x17BD	; 0x8017bd <uxCurrentNumberOfTasks>
    3a60:	81 30       	cpi	r24, 0x01	; 1
    3a62:	c9 f4       	brne	.+50     	; 0x3a96 <prvAddNewTaskToReadyList+0x72>
    3a64:	0e 94 28 28 	call	0x5050	; 0x5050 <prvInitialiseTaskLists>
    3a68:	16 c0       	rjmp	.+44     	; 0x3a96 <prvAddNewTaskToReadyList+0x72>
    3a6a:	80 91 c3 17 	lds	r24, 0x17C3	; 0x8017c3 <xSchedulerRunning>
    3a6e:	88 23       	and	r24, r24
    3a70:	91 f4       	brne	.+36     	; 0x3a96 <prvAddNewTaskToReadyList+0x72>
    3a72:	80 91 1c 17 	lds	r24, 0x171C	; 0x80171c <pxCurrentTCB>
    3a76:	90 91 1d 17 	lds	r25, 0x171D	; 0x80171d <pxCurrentTCB+0x1>
    3a7a:	fc 01       	movw	r30, r24
    3a7c:	22 8d       	ldd	r18, Z+26	; 0x1a
    3a7e:	8b 81       	ldd	r24, Y+3	; 0x03
    3a80:	9c 81       	ldd	r25, Y+4	; 0x04
    3a82:	fc 01       	movw	r30, r24
    3a84:	82 8d       	ldd	r24, Z+26	; 0x1a
    3a86:	82 17       	cp	r24, r18
    3a88:	30 f0       	brcs	.+12     	; 0x3a96 <prvAddNewTaskToReadyList+0x72>
    3a8a:	8b 81       	ldd	r24, Y+3	; 0x03
    3a8c:	9c 81       	ldd	r25, Y+4	; 0x04
    3a8e:	90 93 1d 17 	sts	0x171D, r25	; 0x80171d <pxCurrentTCB+0x1>
    3a92:	80 93 1c 17 	sts	0x171C, r24	; 0x80171c <pxCurrentTCB>
    3a96:	80 91 ca 17 	lds	r24, 0x17CA	; 0x8017ca <uxTaskNumber>
    3a9a:	8f 5f       	subi	r24, 0xFF	; 255
    3a9c:	80 93 ca 17 	sts	0x17CA, r24	; 0x8017ca <uxTaskNumber>
    3aa0:	8b 81       	ldd	r24, Y+3	; 0x03
    3aa2:	9c 81       	ldd	r25, Y+4	; 0x04
    3aa4:	fc 01       	movw	r30, r24
    3aa6:	92 8d       	ldd	r25, Z+26	; 0x1a
    3aa8:	80 91 c2 17 	lds	r24, 0x17C2	; 0x8017c2 <uxTopReadyPriority>
    3aac:	89 17       	cp	r24, r25
    3aae:	30 f4       	brcc	.+12     	; 0x3abc <prvAddNewTaskToReadyList+0x98>
    3ab0:	8b 81       	ldd	r24, Y+3	; 0x03
    3ab2:	9c 81       	ldd	r25, Y+4	; 0x04
    3ab4:	fc 01       	movw	r30, r24
    3ab6:	82 8d       	ldd	r24, Z+26	; 0x1a
    3ab8:	80 93 c2 17 	sts	0x17C2, r24	; 0x8017c2 <uxTopReadyPriority>
    3abc:	8b 81       	ldd	r24, Y+3	; 0x03
    3abe:	9c 81       	ldd	r25, Y+4	; 0x04
    3ac0:	fc 01       	movw	r30, r24
    3ac2:	82 8d       	ldd	r24, Z+26	; 0x1a
    3ac4:	28 2f       	mov	r18, r24
    3ac6:	30 e0       	ldi	r19, 0x00	; 0
    3ac8:	4b e0       	ldi	r20, 0x0B	; 11
    3aca:	42 9f       	mul	r20, r18
    3acc:	c0 01       	movw	r24, r0
    3ace:	43 9f       	mul	r20, r19
    3ad0:	90 0d       	add	r25, r0
    3ad2:	11 24       	eor	r1, r1
    3ad4:	81 5e       	subi	r24, 0xE1	; 225
    3ad6:	98 4e       	sbci	r25, 0xE8	; 232
    3ad8:	fc 01       	movw	r30, r24
    3ada:	80 81       	ld	r24, Z
    3adc:	91 81       	ldd	r25, Z+1	; 0x01
    3ade:	9a 83       	std	Y+2, r25	; 0x02
    3ae0:	89 83       	std	Y+1, r24	; 0x01
    3ae2:	8b 81       	ldd	r24, Y+3	; 0x03
    3ae4:	9c 81       	ldd	r25, Y+4	; 0x04
    3ae6:	29 81       	ldd	r18, Y+1	; 0x01
    3ae8:	3a 81       	ldd	r19, Y+2	; 0x02
    3aea:	fc 01       	movw	r30, r24
    3aec:	37 83       	std	Z+7, r19	; 0x07
    3aee:	26 83       	std	Z+6, r18	; 0x06
    3af0:	89 81       	ldd	r24, Y+1	; 0x01
    3af2:	9a 81       	ldd	r25, Y+2	; 0x02
    3af4:	fc 01       	movw	r30, r24
    3af6:	26 81       	ldd	r18, Z+6	; 0x06
    3af8:	37 81       	ldd	r19, Z+7	; 0x07
    3afa:	8b 81       	ldd	r24, Y+3	; 0x03
    3afc:	9c 81       	ldd	r25, Y+4	; 0x04
    3afe:	fc 01       	movw	r30, r24
    3b00:	31 87       	std	Z+9, r19	; 0x09
    3b02:	20 87       	std	Z+8, r18	; 0x08
    3b04:	89 81       	ldd	r24, Y+1	; 0x01
    3b06:	9a 81       	ldd	r25, Y+2	; 0x02
    3b08:	fc 01       	movw	r30, r24
    3b0a:	86 81       	ldd	r24, Z+6	; 0x06
    3b0c:	97 81       	ldd	r25, Z+7	; 0x07
    3b0e:	2b 81       	ldd	r18, Y+3	; 0x03
    3b10:	3c 81       	ldd	r19, Y+4	; 0x04
    3b12:	2e 5f       	subi	r18, 0xFE	; 254
    3b14:	3f 4f       	sbci	r19, 0xFF	; 255
    3b16:	fc 01       	movw	r30, r24
    3b18:	35 83       	std	Z+5, r19	; 0x05
    3b1a:	24 83       	std	Z+4, r18	; 0x04
    3b1c:	8b 81       	ldd	r24, Y+3	; 0x03
    3b1e:	9c 81       	ldd	r25, Y+4	; 0x04
    3b20:	9c 01       	movw	r18, r24
    3b22:	2e 5f       	subi	r18, 0xFE	; 254
    3b24:	3f 4f       	sbci	r19, 0xFF	; 255
    3b26:	89 81       	ldd	r24, Y+1	; 0x01
    3b28:	9a 81       	ldd	r25, Y+2	; 0x02
    3b2a:	fc 01       	movw	r30, r24
    3b2c:	37 83       	std	Z+7, r19	; 0x07
    3b2e:	26 83       	std	Z+6, r18	; 0x06
    3b30:	8b 81       	ldd	r24, Y+3	; 0x03
    3b32:	9c 81       	ldd	r25, Y+4	; 0x04
    3b34:	fc 01       	movw	r30, r24
    3b36:	82 8d       	ldd	r24, Z+26	; 0x1a
    3b38:	28 2f       	mov	r18, r24
    3b3a:	30 e0       	ldi	r19, 0x00	; 0
    3b3c:	4b e0       	ldi	r20, 0x0B	; 11
    3b3e:	42 9f       	mul	r20, r18
    3b40:	c0 01       	movw	r24, r0
    3b42:	43 9f       	mul	r20, r19
    3b44:	90 0d       	add	r25, r0
    3b46:	11 24       	eor	r1, r1
    3b48:	9c 01       	movw	r18, r24
    3b4a:	22 5e       	subi	r18, 0xE2	; 226
    3b4c:	38 4e       	sbci	r19, 0xE8	; 232
    3b4e:	8b 81       	ldd	r24, Y+3	; 0x03
    3b50:	9c 81       	ldd	r25, Y+4	; 0x04
    3b52:	fc 01       	movw	r30, r24
    3b54:	35 87       	std	Z+13, r19	; 0x0d
    3b56:	24 87       	std	Z+12, r18	; 0x0c
    3b58:	8b 81       	ldd	r24, Y+3	; 0x03
    3b5a:	9c 81       	ldd	r25, Y+4	; 0x04
    3b5c:	fc 01       	movw	r30, r24
    3b5e:	82 8d       	ldd	r24, Z+26	; 0x1a
    3b60:	88 2f       	mov	r24, r24
    3b62:	90 e0       	ldi	r25, 0x00	; 0
    3b64:	4b e0       	ldi	r20, 0x0B	; 11
    3b66:	48 9f       	mul	r20, r24
    3b68:	90 01       	movw	r18, r0
    3b6a:	49 9f       	mul	r20, r25
    3b6c:	30 0d       	add	r19, r0
    3b6e:	11 24       	eor	r1, r1
    3b70:	22 5e       	subi	r18, 0xE2	; 226
    3b72:	38 4e       	sbci	r19, 0xE8	; 232
    3b74:	f9 01       	movw	r30, r18
    3b76:	20 81       	ld	r18, Z
    3b78:	41 e0       	ldi	r20, 0x01	; 1
    3b7a:	42 0f       	add	r20, r18
    3b7c:	5b e0       	ldi	r21, 0x0B	; 11
    3b7e:	58 9f       	mul	r21, r24
    3b80:	90 01       	movw	r18, r0
    3b82:	59 9f       	mul	r21, r25
    3b84:	30 0d       	add	r19, r0
    3b86:	11 24       	eor	r1, r1
    3b88:	c9 01       	movw	r24, r18
    3b8a:	82 5e       	subi	r24, 0xE2	; 226
    3b8c:	98 4e       	sbci	r25, 0xE8	; 232
    3b8e:	fc 01       	movw	r30, r24
    3b90:	40 83       	st	Z, r20
    3b92:	0f 90       	pop	r0
    3b94:	0f be       	out	0x3f, r0	; 63
    3b96:	80 91 c3 17 	lds	r24, 0x17C3	; 0x8017c3 <xSchedulerRunning>
    3b9a:	88 23       	and	r24, r24
    3b9c:	71 f0       	breq	.+28     	; 0x3bba <prvAddNewTaskToReadyList+0x196>
    3b9e:	80 91 1c 17 	lds	r24, 0x171C	; 0x80171c <pxCurrentTCB>
    3ba2:	90 91 1d 17 	lds	r25, 0x171D	; 0x80171d <pxCurrentTCB+0x1>
    3ba6:	fc 01       	movw	r30, r24
    3ba8:	22 8d       	ldd	r18, Z+26	; 0x1a
    3baa:	8b 81       	ldd	r24, Y+3	; 0x03
    3bac:	9c 81       	ldd	r25, Y+4	; 0x04
    3bae:	fc 01       	movw	r30, r24
    3bb0:	82 8d       	ldd	r24, Z+26	; 0x1a
    3bb2:	28 17       	cp	r18, r24
    3bb4:	10 f4       	brcc	.+4      	; 0x3bba <prvAddNewTaskToReadyList+0x196>
    3bb6:	0e 94 c3 0e 	call	0x1d86	; 0x1d86 <vPortYield>
    3bba:	00 00       	nop
    3bbc:	0f 90       	pop	r0
    3bbe:	0f 90       	pop	r0
    3bc0:	0f 90       	pop	r0
    3bc2:	0f 90       	pop	r0
    3bc4:	df 91       	pop	r29
    3bc6:	cf 91       	pop	r28
    3bc8:	08 95       	ret

00003bca <xTaskDelayUntil>:
    3bca:	ef 92       	push	r14
    3bcc:	ff 92       	push	r15
    3bce:	0f 93       	push	r16
    3bd0:	1f 93       	push	r17
    3bd2:	cf 93       	push	r28
    3bd4:	df 93       	push	r29
    3bd6:	cd b7       	in	r28, 0x3d	; 61
    3bd8:	de b7       	in	r29, 0x3e	; 62
    3bda:	60 97       	sbiw	r28, 0x10	; 16
    3bdc:	0f b6       	in	r0, 0x3f	; 63
    3bde:	f8 94       	cli
    3be0:	de bf       	out	0x3e, r29	; 62
    3be2:	0f be       	out	0x3f, r0	; 63
    3be4:	cd bf       	out	0x3d, r28	; 61
    3be6:	9c 87       	std	Y+12, r25	; 0x0c
    3be8:	8b 87       	std	Y+11, r24	; 0x0b
    3bea:	4d 87       	std	Y+13, r20	; 0x0d
    3bec:	5e 87       	std	Y+14, r21	; 0x0e
    3bee:	6f 87       	std	Y+15, r22	; 0x0f
    3bf0:	78 8b       	std	Y+16, r23	; 0x10
    3bf2:	19 82       	std	Y+1, r1	; 0x01
    3bf4:	19 d1       	rcall	.+562    	; 0x3e28 <vTaskSuspendAll>
    3bf6:	80 91 be 17 	lds	r24, 0x17BE	; 0x8017be <xTickCount>
    3bfa:	90 91 bf 17 	lds	r25, 0x17BF	; 0x8017bf <xTickCount+0x1>
    3bfe:	a0 91 c0 17 	lds	r26, 0x17C0	; 0x8017c0 <xTickCount+0x2>
    3c02:	b0 91 c1 17 	lds	r27, 0x17C1	; 0x8017c1 <xTickCount+0x3>
    3c06:	8a 83       	std	Y+2, r24	; 0x02
    3c08:	9b 83       	std	Y+3, r25	; 0x03
    3c0a:	ac 83       	std	Y+4, r26	; 0x04
    3c0c:	bd 83       	std	Y+5, r27	; 0x05
    3c0e:	8b 85       	ldd	r24, Y+11	; 0x0b
    3c10:	9c 85       	ldd	r25, Y+12	; 0x0c
    3c12:	fc 01       	movw	r30, r24
    3c14:	20 81       	ld	r18, Z
    3c16:	31 81       	ldd	r19, Z+1	; 0x01
    3c18:	42 81       	ldd	r20, Z+2	; 0x02
    3c1a:	53 81       	ldd	r21, Z+3	; 0x03
    3c1c:	8d 85       	ldd	r24, Y+13	; 0x0d
    3c1e:	9e 85       	ldd	r25, Y+14	; 0x0e
    3c20:	af 85       	ldd	r26, Y+15	; 0x0f
    3c22:	b8 89       	ldd	r27, Y+16	; 0x10
    3c24:	82 0f       	add	r24, r18
    3c26:	93 1f       	adc	r25, r19
    3c28:	a4 1f       	adc	r26, r20
    3c2a:	b5 1f       	adc	r27, r21
    3c2c:	8e 83       	std	Y+6, r24	; 0x06
    3c2e:	9f 83       	std	Y+7, r25	; 0x07
    3c30:	a8 87       	std	Y+8, r26	; 0x08
    3c32:	b9 87       	std	Y+9, r27	; 0x09
    3c34:	8b 85       	ldd	r24, Y+11	; 0x0b
    3c36:	9c 85       	ldd	r25, Y+12	; 0x0c
    3c38:	fc 01       	movw	r30, r24
    3c3a:	20 81       	ld	r18, Z
    3c3c:	31 81       	ldd	r19, Z+1	; 0x01
    3c3e:	42 81       	ldd	r20, Z+2	; 0x02
    3c40:	53 81       	ldd	r21, Z+3	; 0x03
    3c42:	8a 81       	ldd	r24, Y+2	; 0x02
    3c44:	9b 81       	ldd	r25, Y+3	; 0x03
    3c46:	ac 81       	ldd	r26, Y+4	; 0x04
    3c48:	bd 81       	ldd	r27, Y+5	; 0x05
    3c4a:	82 17       	cp	r24, r18
    3c4c:	93 07       	cpc	r25, r19
    3c4e:	a4 07       	cpc	r26, r20
    3c50:	b5 07       	cpc	r27, r21
    3c52:	00 f5       	brcc	.+64     	; 0x3c94 <xTaskDelayUntil+0xca>
    3c54:	8b 85       	ldd	r24, Y+11	; 0x0b
    3c56:	9c 85       	ldd	r25, Y+12	; 0x0c
    3c58:	fc 01       	movw	r30, r24
    3c5a:	20 81       	ld	r18, Z
    3c5c:	31 81       	ldd	r19, Z+1	; 0x01
    3c5e:	42 81       	ldd	r20, Z+2	; 0x02
    3c60:	53 81       	ldd	r21, Z+3	; 0x03
    3c62:	8e 81       	ldd	r24, Y+6	; 0x06
    3c64:	9f 81       	ldd	r25, Y+7	; 0x07
    3c66:	a8 85       	ldd	r26, Y+8	; 0x08
    3c68:	b9 85       	ldd	r27, Y+9	; 0x09
    3c6a:	82 17       	cp	r24, r18
    3c6c:	93 07       	cpc	r25, r19
    3c6e:	a4 07       	cpc	r26, r20
    3c70:	b5 07       	cpc	r27, r21
    3c72:	78 f5       	brcc	.+94     	; 0x3cd2 <xTaskDelayUntil+0x108>
    3c74:	2e 81       	ldd	r18, Y+6	; 0x06
    3c76:	3f 81       	ldd	r19, Y+7	; 0x07
    3c78:	48 85       	ldd	r20, Y+8	; 0x08
    3c7a:	59 85       	ldd	r21, Y+9	; 0x09
    3c7c:	8a 81       	ldd	r24, Y+2	; 0x02
    3c7e:	9b 81       	ldd	r25, Y+3	; 0x03
    3c80:	ac 81       	ldd	r26, Y+4	; 0x04
    3c82:	bd 81       	ldd	r27, Y+5	; 0x05
    3c84:	82 17       	cp	r24, r18
    3c86:	93 07       	cpc	r25, r19
    3c88:	a4 07       	cpc	r26, r20
    3c8a:	b5 07       	cpc	r27, r21
    3c8c:	10 f5       	brcc	.+68     	; 0x3cd2 <xTaskDelayUntil+0x108>
    3c8e:	81 e0       	ldi	r24, 0x01	; 1
    3c90:	89 83       	std	Y+1, r24	; 0x01
    3c92:	1f c0       	rjmp	.+62     	; 0x3cd2 <xTaskDelayUntil+0x108>
    3c94:	8b 85       	ldd	r24, Y+11	; 0x0b
    3c96:	9c 85       	ldd	r25, Y+12	; 0x0c
    3c98:	fc 01       	movw	r30, r24
    3c9a:	20 81       	ld	r18, Z
    3c9c:	31 81       	ldd	r19, Z+1	; 0x01
    3c9e:	42 81       	ldd	r20, Z+2	; 0x02
    3ca0:	53 81       	ldd	r21, Z+3	; 0x03
    3ca2:	8e 81       	ldd	r24, Y+6	; 0x06
    3ca4:	9f 81       	ldd	r25, Y+7	; 0x07
    3ca6:	a8 85       	ldd	r26, Y+8	; 0x08
    3ca8:	b9 85       	ldd	r27, Y+9	; 0x09
    3caa:	82 17       	cp	r24, r18
    3cac:	93 07       	cpc	r25, r19
    3cae:	a4 07       	cpc	r26, r20
    3cb0:	b5 07       	cpc	r27, r21
    3cb2:	68 f0       	brcs	.+26     	; 0x3cce <xTaskDelayUntil+0x104>
    3cb4:	2e 81       	ldd	r18, Y+6	; 0x06
    3cb6:	3f 81       	ldd	r19, Y+7	; 0x07
    3cb8:	48 85       	ldd	r20, Y+8	; 0x08
    3cba:	59 85       	ldd	r21, Y+9	; 0x09
    3cbc:	8a 81       	ldd	r24, Y+2	; 0x02
    3cbe:	9b 81       	ldd	r25, Y+3	; 0x03
    3cc0:	ac 81       	ldd	r26, Y+4	; 0x04
    3cc2:	bd 81       	ldd	r27, Y+5	; 0x05
    3cc4:	82 17       	cp	r24, r18
    3cc6:	93 07       	cpc	r25, r19
    3cc8:	a4 07       	cpc	r26, r20
    3cca:	b5 07       	cpc	r27, r21
    3ccc:	10 f4       	brcc	.+4      	; 0x3cd2 <xTaskDelayUntil+0x108>
    3cce:	81 e0       	ldi	r24, 0x01	; 1
    3cd0:	89 83       	std	Y+1, r24	; 0x01
    3cd2:	2b 85       	ldd	r18, Y+11	; 0x0b
    3cd4:	3c 85       	ldd	r19, Y+12	; 0x0c
    3cd6:	8e 81       	ldd	r24, Y+6	; 0x06
    3cd8:	9f 81       	ldd	r25, Y+7	; 0x07
    3cda:	a8 85       	ldd	r26, Y+8	; 0x08
    3cdc:	b9 85       	ldd	r27, Y+9	; 0x09
    3cde:	f9 01       	movw	r30, r18
    3ce0:	80 83       	st	Z, r24
    3ce2:	91 83       	std	Z+1, r25	; 0x01
    3ce4:	a2 83       	std	Z+2, r26	; 0x02
    3ce6:	b3 83       	std	Z+3, r27	; 0x03
    3ce8:	89 81       	ldd	r24, Y+1	; 0x01
    3cea:	88 23       	and	r24, r24
    3cec:	a9 f0       	breq	.+42     	; 0x3d18 <xTaskDelayUntil+0x14e>
    3cee:	2e 81       	ldd	r18, Y+6	; 0x06
    3cf0:	3f 81       	ldd	r19, Y+7	; 0x07
    3cf2:	48 85       	ldd	r20, Y+8	; 0x08
    3cf4:	59 85       	ldd	r21, Y+9	; 0x09
    3cf6:	8a 81       	ldd	r24, Y+2	; 0x02
    3cf8:	9b 81       	ldd	r25, Y+3	; 0x03
    3cfa:	ac 81       	ldd	r26, Y+4	; 0x04
    3cfc:	bd 81       	ldd	r27, Y+5	; 0x05
    3cfe:	79 01       	movw	r14, r18
    3d00:	8a 01       	movw	r16, r20
    3d02:	e8 1a       	sub	r14, r24
    3d04:	f9 0a       	sbc	r15, r25
    3d06:	0a 0b       	sbc	r16, r26
    3d08:	1b 0b       	sbc	r17, r27
    3d0a:	d8 01       	movw	r26, r16
    3d0c:	c7 01       	movw	r24, r14
    3d0e:	40 e0       	ldi	r20, 0x00	; 0
    3d10:	bc 01       	movw	r22, r24
    3d12:	cd 01       	movw	r24, r26
    3d14:	0e 94 a0 31 	call	0x6340	; 0x6340 <prvAddCurrentTaskToDelayedList>
    3d18:	94 d0       	rcall	.+296    	; 0x3e42 <xTaskResumeAll>
    3d1a:	8a 87       	std	Y+10, r24	; 0x0a
    3d1c:	8a 85       	ldd	r24, Y+10	; 0x0a
    3d1e:	88 23       	and	r24, r24
    3d20:	11 f4       	brne	.+4      	; 0x3d26 <xTaskDelayUntil+0x15c>
    3d22:	0e 94 c3 0e 	call	0x1d86	; 0x1d86 <vPortYield>
    3d26:	89 81       	ldd	r24, Y+1	; 0x01
    3d28:	60 96       	adiw	r28, 0x10	; 16
    3d2a:	0f b6       	in	r0, 0x3f	; 63
    3d2c:	f8 94       	cli
    3d2e:	de bf       	out	0x3e, r29	; 62
    3d30:	0f be       	out	0x3f, r0	; 63
    3d32:	cd bf       	out	0x3d, r28	; 61
    3d34:	df 91       	pop	r29
    3d36:	cf 91       	pop	r28
    3d38:	1f 91       	pop	r17
    3d3a:	0f 91       	pop	r16
    3d3c:	ff 90       	pop	r15
    3d3e:	ef 90       	pop	r14
    3d40:	08 95       	ret

00003d42 <vTaskDelay>:
    3d42:	cf 93       	push	r28
    3d44:	df 93       	push	r29
    3d46:	00 d0       	rcall	.+0      	; 0x3d48 <vTaskDelay+0x6>
    3d48:	1f 92       	push	r1
    3d4a:	1f 92       	push	r1
    3d4c:	cd b7       	in	r28, 0x3d	; 61
    3d4e:	de b7       	in	r29, 0x3e	; 62
    3d50:	6a 83       	std	Y+2, r22	; 0x02
    3d52:	7b 83       	std	Y+3, r23	; 0x03
    3d54:	8c 83       	std	Y+4, r24	; 0x04
    3d56:	9d 83       	std	Y+5, r25	; 0x05
    3d58:	19 82       	std	Y+1, r1	; 0x01
    3d5a:	8a 81       	ldd	r24, Y+2	; 0x02
    3d5c:	9b 81       	ldd	r25, Y+3	; 0x03
    3d5e:	ac 81       	ldd	r26, Y+4	; 0x04
    3d60:	bd 81       	ldd	r27, Y+5	; 0x05
    3d62:	89 2b       	or	r24, r25
    3d64:	8a 2b       	or	r24, r26
    3d66:	8b 2b       	or	r24, r27
    3d68:	61 f0       	breq	.+24     	; 0x3d82 <vTaskDelay+0x40>
    3d6a:	5e d0       	rcall	.+188    	; 0x3e28 <vTaskSuspendAll>
    3d6c:	8a 81       	ldd	r24, Y+2	; 0x02
    3d6e:	9b 81       	ldd	r25, Y+3	; 0x03
    3d70:	ac 81       	ldd	r26, Y+4	; 0x04
    3d72:	bd 81       	ldd	r27, Y+5	; 0x05
    3d74:	40 e0       	ldi	r20, 0x00	; 0
    3d76:	bc 01       	movw	r22, r24
    3d78:	cd 01       	movw	r24, r26
    3d7a:	0e 94 a0 31 	call	0x6340	; 0x6340 <prvAddCurrentTaskToDelayedList>
    3d7e:	61 d0       	rcall	.+194    	; 0x3e42 <xTaskResumeAll>
    3d80:	89 83       	std	Y+1, r24	; 0x01
    3d82:	89 81       	ldd	r24, Y+1	; 0x01
    3d84:	88 23       	and	r24, r24
    3d86:	11 f4       	brne	.+4      	; 0x3d8c <vTaskDelay+0x4a>
    3d88:	0e 94 c3 0e 	call	0x1d86	; 0x1d86 <vPortYield>
    3d8c:	00 00       	nop
    3d8e:	0f 90       	pop	r0
    3d90:	0f 90       	pop	r0
    3d92:	0f 90       	pop	r0
    3d94:	0f 90       	pop	r0
    3d96:	0f 90       	pop	r0
    3d98:	df 91       	pop	r29
    3d9a:	cf 91       	pop	r28
    3d9c:	08 95       	ret

00003d9e <vTaskStartScheduler>:
    3d9e:	ef 92       	push	r14
    3da0:	ff 92       	push	r15
    3da2:	0f 93       	push	r16
    3da4:	cf 93       	push	r28
    3da6:	df 93       	push	r29
    3da8:	1f 92       	push	r1
    3daa:	cd b7       	in	r28, 0x3d	; 61
    3dac:	de b7       	in	r29, 0x3e	; 62
    3dae:	0f 2e       	mov	r0, r31
    3db0:	ff ec       	ldi	r31, 0xCF	; 207
    3db2:	ef 2e       	mov	r14, r31
    3db4:	f7 e1       	ldi	r31, 0x17	; 23
    3db6:	ff 2e       	mov	r15, r31
    3db8:	f0 2d       	mov	r31, r0
    3dba:	00 e0       	ldi	r16, 0x00	; 0
    3dbc:	20 e0       	ldi	r18, 0x00	; 0
    3dbe:	30 e0       	ldi	r19, 0x00	; 0
    3dc0:	40 ec       	ldi	r20, 0xC0	; 192
    3dc2:	50 e0       	ldi	r21, 0x00	; 0
    3dc4:	69 e1       	ldi	r22, 0x19	; 25
    3dc6:	76 e0       	ldi	r23, 0x06	; 6
    3dc8:	8d ec       	ldi	r24, 0xCD	; 205
    3dca:	90 e0       	ldi	r25, 0x00	; 0
    3dcc:	ce dc       	rcall	.-1636   	; 0x376a <xTaskCreate>
    3dce:	89 83       	std	Y+1, r24	; 0x01
    3dd0:	89 81       	ldd	r24, Y+1	; 0x01
    3dd2:	81 30       	cpi	r24, 0x01	; 1
    3dd4:	19 f4       	brne	.+6      	; 0x3ddc <vTaskStartScheduler+0x3e>
    3dd6:	0e 94 30 32 	call	0x6460	; 0x6460 <xTimerCreateTimerTask>
    3dda:	89 83       	std	Y+1, r24	; 0x01
    3ddc:	89 81       	ldd	r24, Y+1	; 0x01
    3dde:	81 30       	cpi	r24, 0x01	; 1
    3de0:	c9 f4       	brne	.+50     	; 0x3e14 <vTaskStartScheduler+0x76>
    3de2:	f8 94       	cli
    3de4:	8f ef       	ldi	r24, 0xFF	; 255
    3de6:	9f ef       	ldi	r25, 0xFF	; 255
    3de8:	dc 01       	movw	r26, r24
    3dea:	80 93 cb 17 	sts	0x17CB, r24	; 0x8017cb <xNextTaskUnblockTime>
    3dee:	90 93 cc 17 	sts	0x17CC, r25	; 0x8017cc <xNextTaskUnblockTime+0x1>
    3df2:	a0 93 cd 17 	sts	0x17CD, r26	; 0x8017cd <xNextTaskUnblockTime+0x2>
    3df6:	b0 93 ce 17 	sts	0x17CE, r27	; 0x8017ce <xNextTaskUnblockTime+0x3>
    3dfa:	81 e0       	ldi	r24, 0x01	; 1
    3dfc:	80 93 c3 17 	sts	0x17C3, r24	; 0x8017c3 <xSchedulerRunning>
    3e00:	10 92 be 17 	sts	0x17BE, r1	; 0x8017be <xTickCount>
    3e04:	10 92 bf 17 	sts	0x17BF, r1	; 0x8017bf <xTickCount+0x1>
    3e08:	10 92 c0 17 	sts	0x17C0, r1	; 0x8017c0 <xTickCount+0x2>
    3e0c:	10 92 c1 17 	sts	0x17C1, r1	; 0x8017c1 <xTickCount+0x3>
    3e10:	0e 94 8b 0e 	call	0x1d16	; 0x1d16 <xPortStartScheduler>
    3e14:	80 91 06 02 	lds	r24, 0x0206	; 0x800206 <uxTopUsedPriority>
    3e18:	00 00       	nop
    3e1a:	0f 90       	pop	r0
    3e1c:	df 91       	pop	r29
    3e1e:	cf 91       	pop	r28
    3e20:	0f 91       	pop	r16
    3e22:	ff 90       	pop	r15
    3e24:	ef 90       	pop	r14
    3e26:	08 95       	ret

00003e28 <vTaskSuspendAll>:
    3e28:	cf 93       	push	r28
    3e2a:	df 93       	push	r29
    3e2c:	cd b7       	in	r28, 0x3d	; 61
    3e2e:	de b7       	in	r29, 0x3e	; 62
    3e30:	80 91 d1 17 	lds	r24, 0x17D1	; 0x8017d1 <uxSchedulerSuspended>
    3e34:	8f 5f       	subi	r24, 0xFF	; 255
    3e36:	80 93 d1 17 	sts	0x17D1, r24	; 0x8017d1 <uxSchedulerSuspended>
    3e3a:	00 00       	nop
    3e3c:	df 91       	pop	r29
    3e3e:	cf 91       	pop	r28
    3e40:	08 95       	ret

00003e42 <xTaskResumeAll>:
    3e42:	cf 93       	push	r28
    3e44:	df 93       	push	r29
    3e46:	cd b7       	in	r28, 0x3d	; 61
    3e48:	de b7       	in	r29, 0x3e	; 62
    3e4a:	2d 97       	sbiw	r28, 0x0d	; 13
    3e4c:	0f b6       	in	r0, 0x3f	; 63
    3e4e:	f8 94       	cli
    3e50:	de bf       	out	0x3e, r29	; 62
    3e52:	0f be       	out	0x3f, r0	; 63
    3e54:	cd bf       	out	0x3d, r28	; 61
    3e56:	1a 82       	std	Y+2, r1	; 0x02
    3e58:	19 82       	std	Y+1, r1	; 0x01
    3e5a:	1b 82       	std	Y+3, r1	; 0x03
    3e5c:	0f b6       	in	r0, 0x3f	; 63
    3e5e:	f8 94       	cli
    3e60:	0f 92       	push	r0
    3e62:	80 91 d1 17 	lds	r24, 0x17D1	; 0x8017d1 <uxSchedulerSuspended>
    3e66:	81 50       	subi	r24, 0x01	; 1
    3e68:	80 93 d1 17 	sts	0x17D1, r24	; 0x8017d1 <uxSchedulerSuspended>
    3e6c:	80 91 d1 17 	lds	r24, 0x17D1	; 0x8017d1 <uxSchedulerSuspended>
    3e70:	88 23       	and	r24, r24
    3e72:	09 f0       	breq	.+2      	; 0x3e76 <xTaskResumeAll+0x34>
    3e74:	69 c1       	rjmp	.+722    	; 0x4148 <xTaskResumeAll+0x306>
    3e76:	80 91 bd 17 	lds	r24, 0x17BD	; 0x8017bd <uxCurrentNumberOfTasks>
    3e7a:	88 23       	and	r24, r24
    3e7c:	09 f4       	brne	.+2      	; 0x3e80 <xTaskResumeAll+0x3e>
    3e7e:	64 c1       	rjmp	.+712    	; 0x4148 <xTaskResumeAll+0x306>
    3e80:	1b c1       	rjmp	.+566    	; 0x40b8 <xTaskResumeAll+0x276>
    3e82:	80 91 ad 17 	lds	r24, 0x17AD	; 0x8017ad <xPendingReadyList+0x7>
    3e86:	90 91 ae 17 	lds	r25, 0x17AE	; 0x8017ae <xPendingReadyList+0x8>
    3e8a:	fc 01       	movw	r30, r24
    3e8c:	80 85       	ldd	r24, Z+8	; 0x08
    3e8e:	91 85       	ldd	r25, Z+9	; 0x09
    3e90:	9a 83       	std	Y+2, r25	; 0x02
    3e92:	89 83       	std	Y+1, r24	; 0x01
    3e94:	89 81       	ldd	r24, Y+1	; 0x01
    3e96:	9a 81       	ldd	r25, Y+2	; 0x02
    3e98:	fc 01       	movw	r30, r24
    3e9a:	80 8d       	ldd	r24, Z+24	; 0x18
    3e9c:	91 8d       	ldd	r25, Z+25	; 0x19
    3e9e:	99 87       	std	Y+9, r25	; 0x09
    3ea0:	88 87       	std	Y+8, r24	; 0x08
    3ea2:	89 81       	ldd	r24, Y+1	; 0x01
    3ea4:	9a 81       	ldd	r25, Y+2	; 0x02
    3ea6:	fc 01       	movw	r30, r24
    3ea8:	82 89       	ldd	r24, Z+18	; 0x12
    3eaa:	93 89       	ldd	r25, Z+19	; 0x13
    3eac:	29 81       	ldd	r18, Y+1	; 0x01
    3eae:	3a 81       	ldd	r19, Y+2	; 0x02
    3eb0:	f9 01       	movw	r30, r18
    3eb2:	24 89       	ldd	r18, Z+20	; 0x14
    3eb4:	35 89       	ldd	r19, Z+21	; 0x15
    3eb6:	fc 01       	movw	r30, r24
    3eb8:	37 83       	std	Z+7, r19	; 0x07
    3eba:	26 83       	std	Z+6, r18	; 0x06
    3ebc:	89 81       	ldd	r24, Y+1	; 0x01
    3ebe:	9a 81       	ldd	r25, Y+2	; 0x02
    3ec0:	fc 01       	movw	r30, r24
    3ec2:	84 89       	ldd	r24, Z+20	; 0x14
    3ec4:	95 89       	ldd	r25, Z+21	; 0x15
    3ec6:	29 81       	ldd	r18, Y+1	; 0x01
    3ec8:	3a 81       	ldd	r19, Y+2	; 0x02
    3eca:	f9 01       	movw	r30, r18
    3ecc:	22 89       	ldd	r18, Z+18	; 0x12
    3ece:	33 89       	ldd	r19, Z+19	; 0x13
    3ed0:	fc 01       	movw	r30, r24
    3ed2:	35 83       	std	Z+5, r19	; 0x05
    3ed4:	24 83       	std	Z+4, r18	; 0x04
    3ed6:	88 85       	ldd	r24, Y+8	; 0x08
    3ed8:	99 85       	ldd	r25, Y+9	; 0x09
    3eda:	fc 01       	movw	r30, r24
    3edc:	21 81       	ldd	r18, Z+1	; 0x01
    3ede:	32 81       	ldd	r19, Z+2	; 0x02
    3ee0:	89 81       	ldd	r24, Y+1	; 0x01
    3ee2:	9a 81       	ldd	r25, Y+2	; 0x02
    3ee4:	0e 96       	adiw	r24, 0x0e	; 14
    3ee6:	28 17       	cp	r18, r24
    3ee8:	39 07       	cpc	r19, r25
    3eea:	51 f4       	brne	.+20     	; 0x3f00 <xTaskResumeAll+0xbe>
    3eec:	89 81       	ldd	r24, Y+1	; 0x01
    3eee:	9a 81       	ldd	r25, Y+2	; 0x02
    3ef0:	fc 01       	movw	r30, r24
    3ef2:	24 89       	ldd	r18, Z+20	; 0x14
    3ef4:	35 89       	ldd	r19, Z+21	; 0x15
    3ef6:	88 85       	ldd	r24, Y+8	; 0x08
    3ef8:	99 85       	ldd	r25, Y+9	; 0x09
    3efa:	fc 01       	movw	r30, r24
    3efc:	32 83       	std	Z+2, r19	; 0x02
    3efe:	21 83       	std	Z+1, r18	; 0x01
    3f00:	89 81       	ldd	r24, Y+1	; 0x01
    3f02:	9a 81       	ldd	r25, Y+2	; 0x02
    3f04:	fc 01       	movw	r30, r24
    3f06:	11 8e       	std	Z+25, r1	; 0x19
    3f08:	10 8e       	std	Z+24, r1	; 0x18
    3f0a:	88 85       	ldd	r24, Y+8	; 0x08
    3f0c:	99 85       	ldd	r25, Y+9	; 0x09
    3f0e:	fc 01       	movw	r30, r24
    3f10:	80 81       	ld	r24, Z
    3f12:	2f ef       	ldi	r18, 0xFF	; 255
    3f14:	28 0f       	add	r18, r24
    3f16:	88 85       	ldd	r24, Y+8	; 0x08
    3f18:	99 85       	ldd	r25, Y+9	; 0x09
    3f1a:	fc 01       	movw	r30, r24
    3f1c:	20 83       	st	Z, r18
    3f1e:	89 81       	ldd	r24, Y+1	; 0x01
    3f20:	9a 81       	ldd	r25, Y+2	; 0x02
    3f22:	fc 01       	movw	r30, r24
    3f24:	84 85       	ldd	r24, Z+12	; 0x0c
    3f26:	95 85       	ldd	r25, Z+13	; 0x0d
    3f28:	9b 87       	std	Y+11, r25	; 0x0b
    3f2a:	8a 87       	std	Y+10, r24	; 0x0a
    3f2c:	89 81       	ldd	r24, Y+1	; 0x01
    3f2e:	9a 81       	ldd	r25, Y+2	; 0x02
    3f30:	fc 01       	movw	r30, r24
    3f32:	86 81       	ldd	r24, Z+6	; 0x06
    3f34:	97 81       	ldd	r25, Z+7	; 0x07
    3f36:	29 81       	ldd	r18, Y+1	; 0x01
    3f38:	3a 81       	ldd	r19, Y+2	; 0x02
    3f3a:	f9 01       	movw	r30, r18
    3f3c:	20 85       	ldd	r18, Z+8	; 0x08
    3f3e:	31 85       	ldd	r19, Z+9	; 0x09
    3f40:	fc 01       	movw	r30, r24
    3f42:	37 83       	std	Z+7, r19	; 0x07
    3f44:	26 83       	std	Z+6, r18	; 0x06
    3f46:	89 81       	ldd	r24, Y+1	; 0x01
    3f48:	9a 81       	ldd	r25, Y+2	; 0x02
    3f4a:	fc 01       	movw	r30, r24
    3f4c:	80 85       	ldd	r24, Z+8	; 0x08
    3f4e:	91 85       	ldd	r25, Z+9	; 0x09
    3f50:	29 81       	ldd	r18, Y+1	; 0x01
    3f52:	3a 81       	ldd	r19, Y+2	; 0x02
    3f54:	f9 01       	movw	r30, r18
    3f56:	26 81       	ldd	r18, Z+6	; 0x06
    3f58:	37 81       	ldd	r19, Z+7	; 0x07
    3f5a:	fc 01       	movw	r30, r24
    3f5c:	35 83       	std	Z+5, r19	; 0x05
    3f5e:	24 83       	std	Z+4, r18	; 0x04
    3f60:	8a 85       	ldd	r24, Y+10	; 0x0a
    3f62:	9b 85       	ldd	r25, Y+11	; 0x0b
    3f64:	fc 01       	movw	r30, r24
    3f66:	21 81       	ldd	r18, Z+1	; 0x01
    3f68:	32 81       	ldd	r19, Z+2	; 0x02
    3f6a:	89 81       	ldd	r24, Y+1	; 0x01
    3f6c:	9a 81       	ldd	r25, Y+2	; 0x02
    3f6e:	02 96       	adiw	r24, 0x02	; 2
    3f70:	28 17       	cp	r18, r24
    3f72:	39 07       	cpc	r19, r25
    3f74:	51 f4       	brne	.+20     	; 0x3f8a <xTaskResumeAll+0x148>
    3f76:	89 81       	ldd	r24, Y+1	; 0x01
    3f78:	9a 81       	ldd	r25, Y+2	; 0x02
    3f7a:	fc 01       	movw	r30, r24
    3f7c:	20 85       	ldd	r18, Z+8	; 0x08
    3f7e:	31 85       	ldd	r19, Z+9	; 0x09
    3f80:	8a 85       	ldd	r24, Y+10	; 0x0a
    3f82:	9b 85       	ldd	r25, Y+11	; 0x0b
    3f84:	fc 01       	movw	r30, r24
    3f86:	32 83       	std	Z+2, r19	; 0x02
    3f88:	21 83       	std	Z+1, r18	; 0x01
    3f8a:	89 81       	ldd	r24, Y+1	; 0x01
    3f8c:	9a 81       	ldd	r25, Y+2	; 0x02
    3f8e:	fc 01       	movw	r30, r24
    3f90:	15 86       	std	Z+13, r1	; 0x0d
    3f92:	14 86       	std	Z+12, r1	; 0x0c
    3f94:	8a 85       	ldd	r24, Y+10	; 0x0a
    3f96:	9b 85       	ldd	r25, Y+11	; 0x0b
    3f98:	fc 01       	movw	r30, r24
    3f9a:	80 81       	ld	r24, Z
    3f9c:	2f ef       	ldi	r18, 0xFF	; 255
    3f9e:	28 0f       	add	r18, r24
    3fa0:	8a 85       	ldd	r24, Y+10	; 0x0a
    3fa2:	9b 85       	ldd	r25, Y+11	; 0x0b
    3fa4:	fc 01       	movw	r30, r24
    3fa6:	20 83       	st	Z, r18
    3fa8:	89 81       	ldd	r24, Y+1	; 0x01
    3faa:	9a 81       	ldd	r25, Y+2	; 0x02
    3fac:	fc 01       	movw	r30, r24
    3fae:	92 8d       	ldd	r25, Z+26	; 0x1a
    3fb0:	80 91 c2 17 	lds	r24, 0x17C2	; 0x8017c2 <uxTopReadyPriority>
    3fb4:	89 17       	cp	r24, r25
    3fb6:	30 f4       	brcc	.+12     	; 0x3fc4 <xTaskResumeAll+0x182>
    3fb8:	89 81       	ldd	r24, Y+1	; 0x01
    3fba:	9a 81       	ldd	r25, Y+2	; 0x02
    3fbc:	fc 01       	movw	r30, r24
    3fbe:	82 8d       	ldd	r24, Z+26	; 0x1a
    3fc0:	80 93 c2 17 	sts	0x17C2, r24	; 0x8017c2 <uxTopReadyPriority>
    3fc4:	89 81       	ldd	r24, Y+1	; 0x01
    3fc6:	9a 81       	ldd	r25, Y+2	; 0x02
    3fc8:	fc 01       	movw	r30, r24
    3fca:	82 8d       	ldd	r24, Z+26	; 0x1a
    3fcc:	28 2f       	mov	r18, r24
    3fce:	30 e0       	ldi	r19, 0x00	; 0
    3fd0:	4b e0       	ldi	r20, 0x0B	; 11
    3fd2:	42 9f       	mul	r20, r18
    3fd4:	c0 01       	movw	r24, r0
    3fd6:	43 9f       	mul	r20, r19
    3fd8:	90 0d       	add	r25, r0
    3fda:	11 24       	eor	r1, r1
    3fdc:	81 5e       	subi	r24, 0xE1	; 225
    3fde:	98 4e       	sbci	r25, 0xE8	; 232
    3fe0:	fc 01       	movw	r30, r24
    3fe2:	80 81       	ld	r24, Z
    3fe4:	91 81       	ldd	r25, Z+1	; 0x01
    3fe6:	9d 87       	std	Y+13, r25	; 0x0d
    3fe8:	8c 87       	std	Y+12, r24	; 0x0c
    3fea:	89 81       	ldd	r24, Y+1	; 0x01
    3fec:	9a 81       	ldd	r25, Y+2	; 0x02
    3fee:	2c 85       	ldd	r18, Y+12	; 0x0c
    3ff0:	3d 85       	ldd	r19, Y+13	; 0x0d
    3ff2:	fc 01       	movw	r30, r24
    3ff4:	37 83       	std	Z+7, r19	; 0x07
    3ff6:	26 83       	std	Z+6, r18	; 0x06
    3ff8:	8c 85       	ldd	r24, Y+12	; 0x0c
    3ffa:	9d 85       	ldd	r25, Y+13	; 0x0d
    3ffc:	fc 01       	movw	r30, r24
    3ffe:	26 81       	ldd	r18, Z+6	; 0x06
    4000:	37 81       	ldd	r19, Z+7	; 0x07
    4002:	89 81       	ldd	r24, Y+1	; 0x01
    4004:	9a 81       	ldd	r25, Y+2	; 0x02
    4006:	fc 01       	movw	r30, r24
    4008:	31 87       	std	Z+9, r19	; 0x09
    400a:	20 87       	std	Z+8, r18	; 0x08
    400c:	8c 85       	ldd	r24, Y+12	; 0x0c
    400e:	9d 85       	ldd	r25, Y+13	; 0x0d
    4010:	fc 01       	movw	r30, r24
    4012:	86 81       	ldd	r24, Z+6	; 0x06
    4014:	97 81       	ldd	r25, Z+7	; 0x07
    4016:	29 81       	ldd	r18, Y+1	; 0x01
    4018:	3a 81       	ldd	r19, Y+2	; 0x02
    401a:	2e 5f       	subi	r18, 0xFE	; 254
    401c:	3f 4f       	sbci	r19, 0xFF	; 255
    401e:	fc 01       	movw	r30, r24
    4020:	35 83       	std	Z+5, r19	; 0x05
    4022:	24 83       	std	Z+4, r18	; 0x04
    4024:	89 81       	ldd	r24, Y+1	; 0x01
    4026:	9a 81       	ldd	r25, Y+2	; 0x02
    4028:	9c 01       	movw	r18, r24
    402a:	2e 5f       	subi	r18, 0xFE	; 254
    402c:	3f 4f       	sbci	r19, 0xFF	; 255
    402e:	8c 85       	ldd	r24, Y+12	; 0x0c
    4030:	9d 85       	ldd	r25, Y+13	; 0x0d
    4032:	fc 01       	movw	r30, r24
    4034:	37 83       	std	Z+7, r19	; 0x07
    4036:	26 83       	std	Z+6, r18	; 0x06
    4038:	89 81       	ldd	r24, Y+1	; 0x01
    403a:	9a 81       	ldd	r25, Y+2	; 0x02
    403c:	fc 01       	movw	r30, r24
    403e:	82 8d       	ldd	r24, Z+26	; 0x1a
    4040:	28 2f       	mov	r18, r24
    4042:	30 e0       	ldi	r19, 0x00	; 0
    4044:	4b e0       	ldi	r20, 0x0B	; 11
    4046:	42 9f       	mul	r20, r18
    4048:	c0 01       	movw	r24, r0
    404a:	43 9f       	mul	r20, r19
    404c:	90 0d       	add	r25, r0
    404e:	11 24       	eor	r1, r1
    4050:	9c 01       	movw	r18, r24
    4052:	22 5e       	subi	r18, 0xE2	; 226
    4054:	38 4e       	sbci	r19, 0xE8	; 232
    4056:	89 81       	ldd	r24, Y+1	; 0x01
    4058:	9a 81       	ldd	r25, Y+2	; 0x02
    405a:	fc 01       	movw	r30, r24
    405c:	35 87       	std	Z+13, r19	; 0x0d
    405e:	24 87       	std	Z+12, r18	; 0x0c
    4060:	89 81       	ldd	r24, Y+1	; 0x01
    4062:	9a 81       	ldd	r25, Y+2	; 0x02
    4064:	fc 01       	movw	r30, r24
    4066:	82 8d       	ldd	r24, Z+26	; 0x1a
    4068:	88 2f       	mov	r24, r24
    406a:	90 e0       	ldi	r25, 0x00	; 0
    406c:	4b e0       	ldi	r20, 0x0B	; 11
    406e:	48 9f       	mul	r20, r24
    4070:	90 01       	movw	r18, r0
    4072:	49 9f       	mul	r20, r25
    4074:	30 0d       	add	r19, r0
    4076:	11 24       	eor	r1, r1
    4078:	22 5e       	subi	r18, 0xE2	; 226
    407a:	38 4e       	sbci	r19, 0xE8	; 232
    407c:	f9 01       	movw	r30, r18
    407e:	20 81       	ld	r18, Z
    4080:	41 e0       	ldi	r20, 0x01	; 1
    4082:	42 0f       	add	r20, r18
    4084:	5b e0       	ldi	r21, 0x0B	; 11
    4086:	58 9f       	mul	r21, r24
    4088:	90 01       	movw	r18, r0
    408a:	59 9f       	mul	r21, r25
    408c:	30 0d       	add	r19, r0
    408e:	11 24       	eor	r1, r1
    4090:	c9 01       	movw	r24, r18
    4092:	82 5e       	subi	r24, 0xE2	; 226
    4094:	98 4e       	sbci	r25, 0xE8	; 232
    4096:	fc 01       	movw	r30, r24
    4098:	40 83       	st	Z, r20
    409a:	89 81       	ldd	r24, Y+1	; 0x01
    409c:	9a 81       	ldd	r25, Y+2	; 0x02
    409e:	fc 01       	movw	r30, r24
    40a0:	22 8d       	ldd	r18, Z+26	; 0x1a
    40a2:	80 91 1c 17 	lds	r24, 0x171C	; 0x80171c <pxCurrentTCB>
    40a6:	90 91 1d 17 	lds	r25, 0x171D	; 0x80171d <pxCurrentTCB+0x1>
    40aa:	fc 01       	movw	r30, r24
    40ac:	82 8d       	ldd	r24, Z+26	; 0x1a
    40ae:	28 17       	cp	r18, r24
    40b0:	18 f0       	brcs	.+6      	; 0x40b8 <xTaskResumeAll+0x276>
    40b2:	81 e0       	ldi	r24, 0x01	; 1
    40b4:	80 93 c8 17 	sts	0x17C8, r24	; 0x8017c8 <xYieldPending>
    40b8:	80 91 a6 17 	lds	r24, 0x17A6	; 0x8017a6 <xPendingReadyList>
    40bc:	88 23       	and	r24, r24
    40be:	09 f0       	breq	.+2      	; 0x40c2 <xTaskResumeAll+0x280>
    40c0:	e0 ce       	rjmp	.-576    	; 0x3e82 <xTaskResumeAll+0x40>
    40c2:	89 81       	ldd	r24, Y+1	; 0x01
    40c4:	9a 81       	ldd	r25, Y+2	; 0x02
    40c6:	89 2b       	or	r24, r25
    40c8:	11 f0       	breq	.+4      	; 0x40ce <xTaskResumeAll+0x28c>
    40ca:	0e 94 ad 28 	call	0x515a	; 0x515a <prvResetNextTaskUnblockTime>
    40ce:	80 91 c4 17 	lds	r24, 0x17C4	; 0x8017c4 <xPendedTicks>
    40d2:	90 91 c5 17 	lds	r25, 0x17C5	; 0x8017c5 <xPendedTicks+0x1>
    40d6:	a0 91 c6 17 	lds	r26, 0x17C6	; 0x8017c6 <xPendedTicks+0x2>
    40da:	b0 91 c7 17 	lds	r27, 0x17C7	; 0x8017c7 <xPendedTicks+0x3>
    40de:	8c 83       	std	Y+4, r24	; 0x04
    40e0:	9d 83       	std	Y+5, r25	; 0x05
    40e2:	ae 83       	std	Y+6, r26	; 0x06
    40e4:	bf 83       	std	Y+7, r27	; 0x07
    40e6:	8c 81       	ldd	r24, Y+4	; 0x04
    40e8:	9d 81       	ldd	r25, Y+5	; 0x05
    40ea:	ae 81       	ldd	r26, Y+6	; 0x06
    40ec:	bf 81       	ldd	r27, Y+7	; 0x07
    40ee:	89 2b       	or	r24, r25
    40f0:	8a 2b       	or	r24, r26
    40f2:	8b 2b       	or	r24, r27
    40f4:	09 f1       	breq	.+66     	; 0x4138 <xTaskResumeAll+0x2f6>
    40f6:	58 d0       	rcall	.+176    	; 0x41a8 <xTaskIncrementTick>
    40f8:	88 23       	and	r24, r24
    40fa:	19 f0       	breq	.+6      	; 0x4102 <xTaskResumeAll+0x2c0>
    40fc:	81 e0       	ldi	r24, 0x01	; 1
    40fe:	80 93 c8 17 	sts	0x17C8, r24	; 0x8017c8 <xYieldPending>
    4102:	8c 81       	ldd	r24, Y+4	; 0x04
    4104:	9d 81       	ldd	r25, Y+5	; 0x05
    4106:	ae 81       	ldd	r26, Y+6	; 0x06
    4108:	bf 81       	ldd	r27, Y+7	; 0x07
    410a:	01 97       	sbiw	r24, 0x01	; 1
    410c:	a1 09       	sbc	r26, r1
    410e:	b1 09       	sbc	r27, r1
    4110:	8c 83       	std	Y+4, r24	; 0x04
    4112:	9d 83       	std	Y+5, r25	; 0x05
    4114:	ae 83       	std	Y+6, r26	; 0x06
    4116:	bf 83       	std	Y+7, r27	; 0x07
    4118:	8c 81       	ldd	r24, Y+4	; 0x04
    411a:	9d 81       	ldd	r25, Y+5	; 0x05
    411c:	ae 81       	ldd	r26, Y+6	; 0x06
    411e:	bf 81       	ldd	r27, Y+7	; 0x07
    4120:	89 2b       	or	r24, r25
    4122:	8a 2b       	or	r24, r26
    4124:	8b 2b       	or	r24, r27
    4126:	39 f7       	brne	.-50     	; 0x40f6 <xTaskResumeAll+0x2b4>
    4128:	10 92 c4 17 	sts	0x17C4, r1	; 0x8017c4 <xPendedTicks>
    412c:	10 92 c5 17 	sts	0x17C5, r1	; 0x8017c5 <xPendedTicks+0x1>
    4130:	10 92 c6 17 	sts	0x17C6, r1	; 0x8017c6 <xPendedTicks+0x2>
    4134:	10 92 c7 17 	sts	0x17C7, r1	; 0x8017c7 <xPendedTicks+0x3>
    4138:	80 91 c8 17 	lds	r24, 0x17C8	; 0x8017c8 <xYieldPending>
    413c:	88 23       	and	r24, r24
    413e:	21 f0       	breq	.+8      	; 0x4148 <xTaskResumeAll+0x306>
    4140:	81 e0       	ldi	r24, 0x01	; 1
    4142:	8b 83       	std	Y+3, r24	; 0x03
    4144:	0e 94 c3 0e 	call	0x1d86	; 0x1d86 <vPortYield>
    4148:	0f 90       	pop	r0
    414a:	0f be       	out	0x3f, r0	; 63
    414c:	8b 81       	ldd	r24, Y+3	; 0x03
    414e:	2d 96       	adiw	r28, 0x0d	; 13
    4150:	0f b6       	in	r0, 0x3f	; 63
    4152:	f8 94       	cli
    4154:	de bf       	out	0x3e, r29	; 62
    4156:	0f be       	out	0x3f, r0	; 63
    4158:	cd bf       	out	0x3d, r28	; 61
    415a:	df 91       	pop	r29
    415c:	cf 91       	pop	r28
    415e:	08 95       	ret

00004160 <xTaskGetTickCount>:
    4160:	cf 93       	push	r28
    4162:	df 93       	push	r29
    4164:	00 d0       	rcall	.+0      	; 0x4166 <xTaskGetTickCount+0x6>
    4166:	1f 92       	push	r1
    4168:	cd b7       	in	r28, 0x3d	; 61
    416a:	de b7       	in	r29, 0x3e	; 62
    416c:	0f b6       	in	r0, 0x3f	; 63
    416e:	f8 94       	cli
    4170:	0f 92       	push	r0
    4172:	80 91 be 17 	lds	r24, 0x17BE	; 0x8017be <xTickCount>
    4176:	90 91 bf 17 	lds	r25, 0x17BF	; 0x8017bf <xTickCount+0x1>
    417a:	a0 91 c0 17 	lds	r26, 0x17C0	; 0x8017c0 <xTickCount+0x2>
    417e:	b0 91 c1 17 	lds	r27, 0x17C1	; 0x8017c1 <xTickCount+0x3>
    4182:	89 83       	std	Y+1, r24	; 0x01
    4184:	9a 83       	std	Y+2, r25	; 0x02
    4186:	ab 83       	std	Y+3, r26	; 0x03
    4188:	bc 83       	std	Y+4, r27	; 0x04
    418a:	0f 90       	pop	r0
    418c:	0f be       	out	0x3f, r0	; 63
    418e:	89 81       	ldd	r24, Y+1	; 0x01
    4190:	9a 81       	ldd	r25, Y+2	; 0x02
    4192:	ab 81       	ldd	r26, Y+3	; 0x03
    4194:	bc 81       	ldd	r27, Y+4	; 0x04
    4196:	bc 01       	movw	r22, r24
    4198:	cd 01       	movw	r24, r26
    419a:	0f 90       	pop	r0
    419c:	0f 90       	pop	r0
    419e:	0f 90       	pop	r0
    41a0:	0f 90       	pop	r0
    41a2:	df 91       	pop	r29
    41a4:	cf 91       	pop	r28
    41a6:	08 95       	ret

000041a8 <xTaskIncrementTick>:
    41a8:	cf 93       	push	r28
    41aa:	df 93       	push	r29
    41ac:	cd b7       	in	r28, 0x3d	; 61
    41ae:	de b7       	in	r29, 0x3e	; 62
    41b0:	63 97       	sbiw	r28, 0x13	; 19
    41b2:	0f b6       	in	r0, 0x3f	; 63
    41b4:	f8 94       	cli
    41b6:	de bf       	out	0x3e, r29	; 62
    41b8:	0f be       	out	0x3f, r0	; 63
    41ba:	cd bf       	out	0x3d, r28	; 61
    41bc:	19 82       	std	Y+1, r1	; 0x01
    41be:	80 91 d1 17 	lds	r24, 0x17D1	; 0x8017d1 <uxSchedulerSuspended>
    41c2:	88 23       	and	r24, r24
    41c4:	09 f0       	breq	.+2      	; 0x41c8 <xTaskIncrementTick+0x20>
    41c6:	cc c1       	rjmp	.+920    	; 0x4560 <xTaskIncrementTick+0x3b8>
    41c8:	80 91 be 17 	lds	r24, 0x17BE	; 0x8017be <xTickCount>
    41cc:	90 91 bf 17 	lds	r25, 0x17BF	; 0x8017bf <xTickCount+0x1>
    41d0:	a0 91 c0 17 	lds	r26, 0x17C0	; 0x8017c0 <xTickCount+0x2>
    41d4:	b0 91 c1 17 	lds	r27, 0x17C1	; 0x8017c1 <xTickCount+0x3>
    41d8:	01 96       	adiw	r24, 0x01	; 1
    41da:	a1 1d       	adc	r26, r1
    41dc:	b1 1d       	adc	r27, r1
    41de:	8a 83       	std	Y+2, r24	; 0x02
    41e0:	9b 83       	std	Y+3, r25	; 0x03
    41e2:	ac 83       	std	Y+4, r26	; 0x04
    41e4:	bd 83       	std	Y+5, r27	; 0x05
    41e6:	8a 81       	ldd	r24, Y+2	; 0x02
    41e8:	9b 81       	ldd	r25, Y+3	; 0x03
    41ea:	ac 81       	ldd	r26, Y+4	; 0x04
    41ec:	bd 81       	ldd	r27, Y+5	; 0x05
    41ee:	80 93 be 17 	sts	0x17BE, r24	; 0x8017be <xTickCount>
    41f2:	90 93 bf 17 	sts	0x17BF, r25	; 0x8017bf <xTickCount+0x1>
    41f6:	a0 93 c0 17 	sts	0x17C0, r26	; 0x8017c0 <xTickCount+0x2>
    41fa:	b0 93 c1 17 	sts	0x17C1, r27	; 0x8017c1 <xTickCount+0x3>
    41fe:	8a 81       	ldd	r24, Y+2	; 0x02
    4200:	9b 81       	ldd	r25, Y+3	; 0x03
    4202:	ac 81       	ldd	r26, Y+4	; 0x04
    4204:	bd 81       	ldd	r27, Y+5	; 0x05
    4206:	89 2b       	or	r24, r25
    4208:	8a 2b       	or	r24, r26
    420a:	8b 2b       	or	r24, r27
    420c:	d1 f4       	brne	.+52     	; 0x4242 <xTaskIncrementTick+0x9a>
    420e:	80 91 a2 17 	lds	r24, 0x17A2	; 0x8017a2 <pxDelayedTaskList>
    4212:	90 91 a3 17 	lds	r25, 0x17A3	; 0x8017a3 <pxDelayedTaskList+0x1>
    4216:	9f 83       	std	Y+7, r25	; 0x07
    4218:	8e 83       	std	Y+6, r24	; 0x06
    421a:	80 91 a4 17 	lds	r24, 0x17A4	; 0x8017a4 <pxOverflowDelayedTaskList>
    421e:	90 91 a5 17 	lds	r25, 0x17A5	; 0x8017a5 <pxOverflowDelayedTaskList+0x1>
    4222:	90 93 a3 17 	sts	0x17A3, r25	; 0x8017a3 <pxDelayedTaskList+0x1>
    4226:	80 93 a2 17 	sts	0x17A2, r24	; 0x8017a2 <pxDelayedTaskList>
    422a:	8e 81       	ldd	r24, Y+6	; 0x06
    422c:	9f 81       	ldd	r25, Y+7	; 0x07
    422e:	90 93 a5 17 	sts	0x17A5, r25	; 0x8017a5 <pxOverflowDelayedTaskList+0x1>
    4232:	80 93 a4 17 	sts	0x17A4, r24	; 0x8017a4 <pxOverflowDelayedTaskList>
    4236:	80 91 c9 17 	lds	r24, 0x17C9	; 0x8017c9 <xNumOfOverflows>
    423a:	8f 5f       	subi	r24, 0xFF	; 255
    423c:	80 93 c9 17 	sts	0x17C9, r24	; 0x8017c9 <xNumOfOverflows>
    4240:	8c d7       	rcall	.+3864   	; 0x515a <prvResetNextTaskUnblockTime>
    4242:	80 91 cb 17 	lds	r24, 0x17CB	; 0x8017cb <xNextTaskUnblockTime>
    4246:	90 91 cc 17 	lds	r25, 0x17CC	; 0x8017cc <xNextTaskUnblockTime+0x1>
    424a:	a0 91 cd 17 	lds	r26, 0x17CD	; 0x8017cd <xNextTaskUnblockTime+0x2>
    424e:	b0 91 ce 17 	lds	r27, 0x17CE	; 0x8017ce <xNextTaskUnblockTime+0x3>
    4252:	2a 81       	ldd	r18, Y+2	; 0x02
    4254:	3b 81       	ldd	r19, Y+3	; 0x03
    4256:	4c 81       	ldd	r20, Y+4	; 0x04
    4258:	5d 81       	ldd	r21, Y+5	; 0x05
    425a:	28 17       	cp	r18, r24
    425c:	39 07       	cpc	r19, r25
    425e:	4a 07       	cpc	r20, r26
    4260:	5b 07       	cpc	r21, r27
    4262:	08 f4       	brcc	.+2      	; 0x4266 <xTaskIncrementTick+0xbe>
    4264:	60 c1       	rjmp	.+704    	; 0x4526 <xTaskIncrementTick+0x37e>
    4266:	80 91 a2 17 	lds	r24, 0x17A2	; 0x8017a2 <pxDelayedTaskList>
    426a:	90 91 a3 17 	lds	r25, 0x17A3	; 0x8017a3 <pxDelayedTaskList+0x1>
    426e:	fc 01       	movw	r30, r24
    4270:	80 81       	ld	r24, Z
    4272:	88 23       	and	r24, r24
    4274:	61 f4       	brne	.+24     	; 0x428e <xTaskIncrementTick+0xe6>
    4276:	8f ef       	ldi	r24, 0xFF	; 255
    4278:	9f ef       	ldi	r25, 0xFF	; 255
    427a:	dc 01       	movw	r26, r24
    427c:	80 93 cb 17 	sts	0x17CB, r24	; 0x8017cb <xNextTaskUnblockTime>
    4280:	90 93 cc 17 	sts	0x17CC, r25	; 0x8017cc <xNextTaskUnblockTime+0x1>
    4284:	a0 93 cd 17 	sts	0x17CD, r26	; 0x8017cd <xNextTaskUnblockTime+0x2>
    4288:	b0 93 ce 17 	sts	0x17CE, r27	; 0x8017ce <xNextTaskUnblockTime+0x3>
    428c:	4c c1       	rjmp	.+664    	; 0x4526 <xTaskIncrementTick+0x37e>
    428e:	80 91 a2 17 	lds	r24, 0x17A2	; 0x8017a2 <pxDelayedTaskList>
    4292:	90 91 a3 17 	lds	r25, 0x17A3	; 0x8017a3 <pxDelayedTaskList+0x1>
    4296:	fc 01       	movw	r30, r24
    4298:	87 81       	ldd	r24, Z+7	; 0x07
    429a:	90 85       	ldd	r25, Z+8	; 0x08
    429c:	fc 01       	movw	r30, r24
    429e:	80 85       	ldd	r24, Z+8	; 0x08
    42a0:	91 85       	ldd	r25, Z+9	; 0x09
    42a2:	99 87       	std	Y+9, r25	; 0x09
    42a4:	88 87       	std	Y+8, r24	; 0x08
    42a6:	88 85       	ldd	r24, Y+8	; 0x08
    42a8:	99 85       	ldd	r25, Y+9	; 0x09
    42aa:	fc 01       	movw	r30, r24
    42ac:	82 81       	ldd	r24, Z+2	; 0x02
    42ae:	93 81       	ldd	r25, Z+3	; 0x03
    42b0:	a4 81       	ldd	r26, Z+4	; 0x04
    42b2:	b5 81       	ldd	r27, Z+5	; 0x05
    42b4:	8a 87       	std	Y+10, r24	; 0x0a
    42b6:	9b 87       	std	Y+11, r25	; 0x0b
    42b8:	ac 87       	std	Y+12, r26	; 0x0c
    42ba:	bd 87       	std	Y+13, r27	; 0x0d
    42bc:	2a 81       	ldd	r18, Y+2	; 0x02
    42be:	3b 81       	ldd	r19, Y+3	; 0x03
    42c0:	4c 81       	ldd	r20, Y+4	; 0x04
    42c2:	5d 81       	ldd	r21, Y+5	; 0x05
    42c4:	8a 85       	ldd	r24, Y+10	; 0x0a
    42c6:	9b 85       	ldd	r25, Y+11	; 0x0b
    42c8:	ac 85       	ldd	r26, Y+12	; 0x0c
    42ca:	bd 85       	ldd	r27, Y+13	; 0x0d
    42cc:	28 17       	cp	r18, r24
    42ce:	39 07       	cpc	r19, r25
    42d0:	4a 07       	cpc	r20, r26
    42d2:	5b 07       	cpc	r21, r27
    42d4:	68 f4       	brcc	.+26     	; 0x42f0 <xTaskIncrementTick+0x148>
    42d6:	8a 85       	ldd	r24, Y+10	; 0x0a
    42d8:	9b 85       	ldd	r25, Y+11	; 0x0b
    42da:	ac 85       	ldd	r26, Y+12	; 0x0c
    42dc:	bd 85       	ldd	r27, Y+13	; 0x0d
    42de:	80 93 cb 17 	sts	0x17CB, r24	; 0x8017cb <xNextTaskUnblockTime>
    42e2:	90 93 cc 17 	sts	0x17CC, r25	; 0x8017cc <xNextTaskUnblockTime+0x1>
    42e6:	a0 93 cd 17 	sts	0x17CD, r26	; 0x8017cd <xNextTaskUnblockTime+0x2>
    42ea:	b0 93 ce 17 	sts	0x17CE, r27	; 0x8017ce <xNextTaskUnblockTime+0x3>
    42ee:	1b c1       	rjmp	.+566    	; 0x4526 <xTaskIncrementTick+0x37e>
    42f0:	88 85       	ldd	r24, Y+8	; 0x08
    42f2:	99 85       	ldd	r25, Y+9	; 0x09
    42f4:	fc 01       	movw	r30, r24
    42f6:	84 85       	ldd	r24, Z+12	; 0x0c
    42f8:	95 85       	ldd	r25, Z+13	; 0x0d
    42fa:	9f 87       	std	Y+15, r25	; 0x0f
    42fc:	8e 87       	std	Y+14, r24	; 0x0e
    42fe:	88 85       	ldd	r24, Y+8	; 0x08
    4300:	99 85       	ldd	r25, Y+9	; 0x09
    4302:	fc 01       	movw	r30, r24
    4304:	86 81       	ldd	r24, Z+6	; 0x06
    4306:	97 81       	ldd	r25, Z+7	; 0x07
    4308:	28 85       	ldd	r18, Y+8	; 0x08
    430a:	39 85       	ldd	r19, Y+9	; 0x09
    430c:	f9 01       	movw	r30, r18
    430e:	20 85       	ldd	r18, Z+8	; 0x08
    4310:	31 85       	ldd	r19, Z+9	; 0x09
    4312:	fc 01       	movw	r30, r24
    4314:	37 83       	std	Z+7, r19	; 0x07
    4316:	26 83       	std	Z+6, r18	; 0x06
    4318:	88 85       	ldd	r24, Y+8	; 0x08
    431a:	99 85       	ldd	r25, Y+9	; 0x09
    431c:	fc 01       	movw	r30, r24
    431e:	80 85       	ldd	r24, Z+8	; 0x08
    4320:	91 85       	ldd	r25, Z+9	; 0x09
    4322:	28 85       	ldd	r18, Y+8	; 0x08
    4324:	39 85       	ldd	r19, Y+9	; 0x09
    4326:	f9 01       	movw	r30, r18
    4328:	26 81       	ldd	r18, Z+6	; 0x06
    432a:	37 81       	ldd	r19, Z+7	; 0x07
    432c:	fc 01       	movw	r30, r24
    432e:	35 83       	std	Z+5, r19	; 0x05
    4330:	24 83       	std	Z+4, r18	; 0x04
    4332:	8e 85       	ldd	r24, Y+14	; 0x0e
    4334:	9f 85       	ldd	r25, Y+15	; 0x0f
    4336:	fc 01       	movw	r30, r24
    4338:	21 81       	ldd	r18, Z+1	; 0x01
    433a:	32 81       	ldd	r19, Z+2	; 0x02
    433c:	88 85       	ldd	r24, Y+8	; 0x08
    433e:	99 85       	ldd	r25, Y+9	; 0x09
    4340:	02 96       	adiw	r24, 0x02	; 2
    4342:	28 17       	cp	r18, r24
    4344:	39 07       	cpc	r19, r25
    4346:	51 f4       	brne	.+20     	; 0x435c <xTaskIncrementTick+0x1b4>
    4348:	88 85       	ldd	r24, Y+8	; 0x08
    434a:	99 85       	ldd	r25, Y+9	; 0x09
    434c:	fc 01       	movw	r30, r24
    434e:	20 85       	ldd	r18, Z+8	; 0x08
    4350:	31 85       	ldd	r19, Z+9	; 0x09
    4352:	8e 85       	ldd	r24, Y+14	; 0x0e
    4354:	9f 85       	ldd	r25, Y+15	; 0x0f
    4356:	fc 01       	movw	r30, r24
    4358:	32 83       	std	Z+2, r19	; 0x02
    435a:	21 83       	std	Z+1, r18	; 0x01
    435c:	88 85       	ldd	r24, Y+8	; 0x08
    435e:	99 85       	ldd	r25, Y+9	; 0x09
    4360:	fc 01       	movw	r30, r24
    4362:	15 86       	std	Z+13, r1	; 0x0d
    4364:	14 86       	std	Z+12, r1	; 0x0c
    4366:	8e 85       	ldd	r24, Y+14	; 0x0e
    4368:	9f 85       	ldd	r25, Y+15	; 0x0f
    436a:	fc 01       	movw	r30, r24
    436c:	80 81       	ld	r24, Z
    436e:	2f ef       	ldi	r18, 0xFF	; 255
    4370:	28 0f       	add	r18, r24
    4372:	8e 85       	ldd	r24, Y+14	; 0x0e
    4374:	9f 85       	ldd	r25, Y+15	; 0x0f
    4376:	fc 01       	movw	r30, r24
    4378:	20 83       	st	Z, r18
    437a:	88 85       	ldd	r24, Y+8	; 0x08
    437c:	99 85       	ldd	r25, Y+9	; 0x09
    437e:	fc 01       	movw	r30, r24
    4380:	80 8d       	ldd	r24, Z+24	; 0x18
    4382:	91 8d       	ldd	r25, Z+25	; 0x19
    4384:	89 2b       	or	r24, r25
    4386:	09 f4       	brne	.+2      	; 0x438a <xTaskIncrementTick+0x1e2>
    4388:	45 c0       	rjmp	.+138    	; 0x4414 <xTaskIncrementTick+0x26c>
    438a:	88 85       	ldd	r24, Y+8	; 0x08
    438c:	99 85       	ldd	r25, Y+9	; 0x09
    438e:	fc 01       	movw	r30, r24
    4390:	80 8d       	ldd	r24, Z+24	; 0x18
    4392:	91 8d       	ldd	r25, Z+25	; 0x19
    4394:	99 8b       	std	Y+17, r25	; 0x11
    4396:	88 8b       	std	Y+16, r24	; 0x10
    4398:	88 85       	ldd	r24, Y+8	; 0x08
    439a:	99 85       	ldd	r25, Y+9	; 0x09
    439c:	fc 01       	movw	r30, r24
    439e:	82 89       	ldd	r24, Z+18	; 0x12
    43a0:	93 89       	ldd	r25, Z+19	; 0x13
    43a2:	28 85       	ldd	r18, Y+8	; 0x08
    43a4:	39 85       	ldd	r19, Y+9	; 0x09
    43a6:	f9 01       	movw	r30, r18
    43a8:	24 89       	ldd	r18, Z+20	; 0x14
    43aa:	35 89       	ldd	r19, Z+21	; 0x15
    43ac:	fc 01       	movw	r30, r24
    43ae:	37 83       	std	Z+7, r19	; 0x07
    43b0:	26 83       	std	Z+6, r18	; 0x06
    43b2:	88 85       	ldd	r24, Y+8	; 0x08
    43b4:	99 85       	ldd	r25, Y+9	; 0x09
    43b6:	fc 01       	movw	r30, r24
    43b8:	84 89       	ldd	r24, Z+20	; 0x14
    43ba:	95 89       	ldd	r25, Z+21	; 0x15
    43bc:	28 85       	ldd	r18, Y+8	; 0x08
    43be:	39 85       	ldd	r19, Y+9	; 0x09
    43c0:	f9 01       	movw	r30, r18
    43c2:	22 89       	ldd	r18, Z+18	; 0x12
    43c4:	33 89       	ldd	r19, Z+19	; 0x13
    43c6:	fc 01       	movw	r30, r24
    43c8:	35 83       	std	Z+5, r19	; 0x05
    43ca:	24 83       	std	Z+4, r18	; 0x04
    43cc:	88 89       	ldd	r24, Y+16	; 0x10
    43ce:	99 89       	ldd	r25, Y+17	; 0x11
    43d0:	fc 01       	movw	r30, r24
    43d2:	21 81       	ldd	r18, Z+1	; 0x01
    43d4:	32 81       	ldd	r19, Z+2	; 0x02
    43d6:	88 85       	ldd	r24, Y+8	; 0x08
    43d8:	99 85       	ldd	r25, Y+9	; 0x09
    43da:	0e 96       	adiw	r24, 0x0e	; 14
    43dc:	28 17       	cp	r18, r24
    43de:	39 07       	cpc	r19, r25
    43e0:	51 f4       	brne	.+20     	; 0x43f6 <xTaskIncrementTick+0x24e>
    43e2:	88 85       	ldd	r24, Y+8	; 0x08
    43e4:	99 85       	ldd	r25, Y+9	; 0x09
    43e6:	fc 01       	movw	r30, r24
    43e8:	24 89       	ldd	r18, Z+20	; 0x14
    43ea:	35 89       	ldd	r19, Z+21	; 0x15
    43ec:	88 89       	ldd	r24, Y+16	; 0x10
    43ee:	99 89       	ldd	r25, Y+17	; 0x11
    43f0:	fc 01       	movw	r30, r24
    43f2:	32 83       	std	Z+2, r19	; 0x02
    43f4:	21 83       	std	Z+1, r18	; 0x01
    43f6:	88 85       	ldd	r24, Y+8	; 0x08
    43f8:	99 85       	ldd	r25, Y+9	; 0x09
    43fa:	fc 01       	movw	r30, r24
    43fc:	11 8e       	std	Z+25, r1	; 0x19
    43fe:	10 8e       	std	Z+24, r1	; 0x18
    4400:	88 89       	ldd	r24, Y+16	; 0x10
    4402:	99 89       	ldd	r25, Y+17	; 0x11
    4404:	fc 01       	movw	r30, r24
    4406:	80 81       	ld	r24, Z
    4408:	2f ef       	ldi	r18, 0xFF	; 255
    440a:	28 0f       	add	r18, r24
    440c:	88 89       	ldd	r24, Y+16	; 0x10
    440e:	99 89       	ldd	r25, Y+17	; 0x11
    4410:	fc 01       	movw	r30, r24
    4412:	20 83       	st	Z, r18
    4414:	88 85       	ldd	r24, Y+8	; 0x08
    4416:	99 85       	ldd	r25, Y+9	; 0x09
    4418:	fc 01       	movw	r30, r24
    441a:	92 8d       	ldd	r25, Z+26	; 0x1a
    441c:	80 91 c2 17 	lds	r24, 0x17C2	; 0x8017c2 <uxTopReadyPriority>
    4420:	89 17       	cp	r24, r25
    4422:	30 f4       	brcc	.+12     	; 0x4430 <xTaskIncrementTick+0x288>
    4424:	88 85       	ldd	r24, Y+8	; 0x08
    4426:	99 85       	ldd	r25, Y+9	; 0x09
    4428:	fc 01       	movw	r30, r24
    442a:	82 8d       	ldd	r24, Z+26	; 0x1a
    442c:	80 93 c2 17 	sts	0x17C2, r24	; 0x8017c2 <uxTopReadyPriority>
    4430:	88 85       	ldd	r24, Y+8	; 0x08
    4432:	99 85       	ldd	r25, Y+9	; 0x09
    4434:	fc 01       	movw	r30, r24
    4436:	82 8d       	ldd	r24, Z+26	; 0x1a
    4438:	28 2f       	mov	r18, r24
    443a:	30 e0       	ldi	r19, 0x00	; 0
    443c:	4b e0       	ldi	r20, 0x0B	; 11
    443e:	42 9f       	mul	r20, r18
    4440:	c0 01       	movw	r24, r0
    4442:	43 9f       	mul	r20, r19
    4444:	90 0d       	add	r25, r0
    4446:	11 24       	eor	r1, r1
    4448:	81 5e       	subi	r24, 0xE1	; 225
    444a:	98 4e       	sbci	r25, 0xE8	; 232
    444c:	fc 01       	movw	r30, r24
    444e:	80 81       	ld	r24, Z
    4450:	91 81       	ldd	r25, Z+1	; 0x01
    4452:	9b 8b       	std	Y+19, r25	; 0x13
    4454:	8a 8b       	std	Y+18, r24	; 0x12
    4456:	88 85       	ldd	r24, Y+8	; 0x08
    4458:	99 85       	ldd	r25, Y+9	; 0x09
    445a:	2a 89       	ldd	r18, Y+18	; 0x12
    445c:	3b 89       	ldd	r19, Y+19	; 0x13
    445e:	fc 01       	movw	r30, r24
    4460:	37 83       	std	Z+7, r19	; 0x07
    4462:	26 83       	std	Z+6, r18	; 0x06
    4464:	8a 89       	ldd	r24, Y+18	; 0x12
    4466:	9b 89       	ldd	r25, Y+19	; 0x13
    4468:	fc 01       	movw	r30, r24
    446a:	26 81       	ldd	r18, Z+6	; 0x06
    446c:	37 81       	ldd	r19, Z+7	; 0x07
    446e:	88 85       	ldd	r24, Y+8	; 0x08
    4470:	99 85       	ldd	r25, Y+9	; 0x09
    4472:	fc 01       	movw	r30, r24
    4474:	31 87       	std	Z+9, r19	; 0x09
    4476:	20 87       	std	Z+8, r18	; 0x08
    4478:	8a 89       	ldd	r24, Y+18	; 0x12
    447a:	9b 89       	ldd	r25, Y+19	; 0x13
    447c:	fc 01       	movw	r30, r24
    447e:	86 81       	ldd	r24, Z+6	; 0x06
    4480:	97 81       	ldd	r25, Z+7	; 0x07
    4482:	28 85       	ldd	r18, Y+8	; 0x08
    4484:	39 85       	ldd	r19, Y+9	; 0x09
    4486:	2e 5f       	subi	r18, 0xFE	; 254
    4488:	3f 4f       	sbci	r19, 0xFF	; 255
    448a:	fc 01       	movw	r30, r24
    448c:	35 83       	std	Z+5, r19	; 0x05
    448e:	24 83       	std	Z+4, r18	; 0x04
    4490:	88 85       	ldd	r24, Y+8	; 0x08
    4492:	99 85       	ldd	r25, Y+9	; 0x09
    4494:	9c 01       	movw	r18, r24
    4496:	2e 5f       	subi	r18, 0xFE	; 254
    4498:	3f 4f       	sbci	r19, 0xFF	; 255
    449a:	8a 89       	ldd	r24, Y+18	; 0x12
    449c:	9b 89       	ldd	r25, Y+19	; 0x13
    449e:	fc 01       	movw	r30, r24
    44a0:	37 83       	std	Z+7, r19	; 0x07
    44a2:	26 83       	std	Z+6, r18	; 0x06
    44a4:	88 85       	ldd	r24, Y+8	; 0x08
    44a6:	99 85       	ldd	r25, Y+9	; 0x09
    44a8:	fc 01       	movw	r30, r24
    44aa:	82 8d       	ldd	r24, Z+26	; 0x1a
    44ac:	28 2f       	mov	r18, r24
    44ae:	30 e0       	ldi	r19, 0x00	; 0
    44b0:	4b e0       	ldi	r20, 0x0B	; 11
    44b2:	42 9f       	mul	r20, r18
    44b4:	c0 01       	movw	r24, r0
    44b6:	43 9f       	mul	r20, r19
    44b8:	90 0d       	add	r25, r0
    44ba:	11 24       	eor	r1, r1
    44bc:	9c 01       	movw	r18, r24
    44be:	22 5e       	subi	r18, 0xE2	; 226
    44c0:	38 4e       	sbci	r19, 0xE8	; 232
    44c2:	88 85       	ldd	r24, Y+8	; 0x08
    44c4:	99 85       	ldd	r25, Y+9	; 0x09
    44c6:	fc 01       	movw	r30, r24
    44c8:	35 87       	std	Z+13, r19	; 0x0d
    44ca:	24 87       	std	Z+12, r18	; 0x0c
    44cc:	88 85       	ldd	r24, Y+8	; 0x08
    44ce:	99 85       	ldd	r25, Y+9	; 0x09
    44d0:	fc 01       	movw	r30, r24
    44d2:	82 8d       	ldd	r24, Z+26	; 0x1a
    44d4:	88 2f       	mov	r24, r24
    44d6:	90 e0       	ldi	r25, 0x00	; 0
    44d8:	4b e0       	ldi	r20, 0x0B	; 11
    44da:	48 9f       	mul	r20, r24
    44dc:	90 01       	movw	r18, r0
    44de:	49 9f       	mul	r20, r25
    44e0:	30 0d       	add	r19, r0
    44e2:	11 24       	eor	r1, r1
    44e4:	22 5e       	subi	r18, 0xE2	; 226
    44e6:	38 4e       	sbci	r19, 0xE8	; 232
    44e8:	f9 01       	movw	r30, r18
    44ea:	20 81       	ld	r18, Z
    44ec:	41 e0       	ldi	r20, 0x01	; 1
    44ee:	42 0f       	add	r20, r18
    44f0:	5b e0       	ldi	r21, 0x0B	; 11
    44f2:	58 9f       	mul	r21, r24
    44f4:	90 01       	movw	r18, r0
    44f6:	59 9f       	mul	r21, r25
    44f8:	30 0d       	add	r19, r0
    44fa:	11 24       	eor	r1, r1
    44fc:	c9 01       	movw	r24, r18
    44fe:	82 5e       	subi	r24, 0xE2	; 226
    4500:	98 4e       	sbci	r25, 0xE8	; 232
    4502:	fc 01       	movw	r30, r24
    4504:	40 83       	st	Z, r20
    4506:	88 85       	ldd	r24, Y+8	; 0x08
    4508:	99 85       	ldd	r25, Y+9	; 0x09
    450a:	fc 01       	movw	r30, r24
    450c:	22 8d       	ldd	r18, Z+26	; 0x1a
    450e:	80 91 1c 17 	lds	r24, 0x171C	; 0x80171c <pxCurrentTCB>
    4512:	90 91 1d 17 	lds	r25, 0x171D	; 0x80171d <pxCurrentTCB+0x1>
    4516:	fc 01       	movw	r30, r24
    4518:	82 8d       	ldd	r24, Z+26	; 0x1a
    451a:	28 17       	cp	r18, r24
    451c:	08 f4       	brcc	.+2      	; 0x4520 <xTaskIncrementTick+0x378>
    451e:	a3 ce       	rjmp	.-698    	; 0x4266 <xTaskIncrementTick+0xbe>
    4520:	81 e0       	ldi	r24, 0x01	; 1
    4522:	89 83       	std	Y+1, r24	; 0x01
    4524:	a0 ce       	rjmp	.-704    	; 0x4266 <xTaskIncrementTick+0xbe>
    4526:	80 91 1c 17 	lds	r24, 0x171C	; 0x80171c <pxCurrentTCB>
    452a:	90 91 1d 17 	lds	r25, 0x171D	; 0x80171d <pxCurrentTCB+0x1>
    452e:	fc 01       	movw	r30, r24
    4530:	82 8d       	ldd	r24, Z+26	; 0x1a
    4532:	28 2f       	mov	r18, r24
    4534:	30 e0       	ldi	r19, 0x00	; 0
    4536:	4b e0       	ldi	r20, 0x0B	; 11
    4538:	42 9f       	mul	r20, r18
    453a:	c0 01       	movw	r24, r0
    453c:	43 9f       	mul	r20, r19
    453e:	90 0d       	add	r25, r0
    4540:	11 24       	eor	r1, r1
    4542:	82 5e       	subi	r24, 0xE2	; 226
    4544:	98 4e       	sbci	r25, 0xE8	; 232
    4546:	fc 01       	movw	r30, r24
    4548:	80 81       	ld	r24, Z
    454a:	82 30       	cpi	r24, 0x02	; 2
    454c:	10 f0       	brcs	.+4      	; 0x4552 <xTaskIncrementTick+0x3aa>
    454e:	81 e0       	ldi	r24, 0x01	; 1
    4550:	89 83       	std	Y+1, r24	; 0x01
    4552:	80 91 c8 17 	lds	r24, 0x17C8	; 0x8017c8 <xYieldPending>
    4556:	88 23       	and	r24, r24
    4558:	b1 f0       	breq	.+44     	; 0x4586 <xTaskIncrementTick+0x3de>
    455a:	81 e0       	ldi	r24, 0x01	; 1
    455c:	89 83       	std	Y+1, r24	; 0x01
    455e:	13 c0       	rjmp	.+38     	; 0x4586 <xTaskIncrementTick+0x3de>
    4560:	80 91 c4 17 	lds	r24, 0x17C4	; 0x8017c4 <xPendedTicks>
    4564:	90 91 c5 17 	lds	r25, 0x17C5	; 0x8017c5 <xPendedTicks+0x1>
    4568:	a0 91 c6 17 	lds	r26, 0x17C6	; 0x8017c6 <xPendedTicks+0x2>
    456c:	b0 91 c7 17 	lds	r27, 0x17C7	; 0x8017c7 <xPendedTicks+0x3>
    4570:	01 96       	adiw	r24, 0x01	; 1
    4572:	a1 1d       	adc	r26, r1
    4574:	b1 1d       	adc	r27, r1
    4576:	80 93 c4 17 	sts	0x17C4, r24	; 0x8017c4 <xPendedTicks>
    457a:	90 93 c5 17 	sts	0x17C5, r25	; 0x8017c5 <xPendedTicks+0x1>
    457e:	a0 93 c6 17 	sts	0x17C6, r26	; 0x8017c6 <xPendedTicks+0x2>
    4582:	b0 93 c7 17 	sts	0x17C7, r27	; 0x8017c7 <xPendedTicks+0x3>
    4586:	89 81       	ldd	r24, Y+1	; 0x01
    4588:	63 96       	adiw	r28, 0x13	; 19
    458a:	0f b6       	in	r0, 0x3f	; 63
    458c:	f8 94       	cli
    458e:	de bf       	out	0x3e, r29	; 62
    4590:	0f be       	out	0x3f, r0	; 63
    4592:	cd bf       	out	0x3d, r28	; 61
    4594:	df 91       	pop	r29
    4596:	cf 91       	pop	r28
    4598:	08 95       	ret

0000459a <vTaskSwitchContext>:
    459a:	cf 93       	push	r28
    459c:	df 93       	push	r29
    459e:	00 d0       	rcall	.+0      	; 0x45a0 <vTaskSwitchContext+0x6>
    45a0:	cd b7       	in	r28, 0x3d	; 61
    45a2:	de b7       	in	r29, 0x3e	; 62
    45a4:	80 91 d1 17 	lds	r24, 0x17D1	; 0x8017d1 <uxSchedulerSuspended>
    45a8:	88 23       	and	r24, r24
    45aa:	21 f0       	breq	.+8      	; 0x45b4 <vTaskSwitchContext+0x1a>
    45ac:	81 e0       	ldi	r24, 0x01	; 1
    45ae:	80 93 c8 17 	sts	0x17C8, r24	; 0x8017c8 <xYieldPending>
    45b2:	78 c0       	rjmp	.+240    	; 0x46a4 <vTaskSwitchContext+0x10a>
    45b4:	10 92 c8 17 	sts	0x17C8, r1	; 0x8017c8 <xYieldPending>
    45b8:	80 91 1c 17 	lds	r24, 0x171C	; 0x80171c <pxCurrentTCB>
    45bc:	90 91 1d 17 	lds	r25, 0x171D	; 0x80171d <pxCurrentTCB+0x1>
    45c0:	fc 01       	movw	r30, r24
    45c2:	20 81       	ld	r18, Z
    45c4:	31 81       	ldd	r19, Z+1	; 0x01
    45c6:	80 91 1c 17 	lds	r24, 0x171C	; 0x80171c <pxCurrentTCB>
    45ca:	90 91 1d 17 	lds	r25, 0x171D	; 0x80171d <pxCurrentTCB+0x1>
    45ce:	fc 01       	movw	r30, r24
    45d0:	83 8d       	ldd	r24, Z+27	; 0x1b
    45d2:	94 8d       	ldd	r25, Z+28	; 0x1c
    45d4:	82 17       	cp	r24, r18
    45d6:	93 07       	cpc	r25, r19
    45d8:	70 f0       	brcs	.+28     	; 0x45f6 <vTaskSwitchContext+0x5c>
    45da:	80 91 1c 17 	lds	r24, 0x171C	; 0x80171c <pxCurrentTCB>
    45de:	90 91 1d 17 	lds	r25, 0x171D	; 0x80171d <pxCurrentTCB+0x1>
    45e2:	9c 01       	movw	r18, r24
    45e4:	23 5e       	subi	r18, 0xE3	; 227
    45e6:	3f 4f       	sbci	r19, 0xFF	; 255
    45e8:	80 91 1c 17 	lds	r24, 0x171C	; 0x80171c <pxCurrentTCB>
    45ec:	90 91 1d 17 	lds	r25, 0x171D	; 0x80171d <pxCurrentTCB+0x1>
    45f0:	b9 01       	movw	r22, r18
    45f2:	0e 94 c5 37 	call	0x6f8a	; 0x6f8a <vApplicationStackOverflowHook>
    45f6:	80 91 c2 17 	lds	r24, 0x17C2	; 0x8017c2 <uxTopReadyPriority>
    45fa:	89 83       	std	Y+1, r24	; 0x01
    45fc:	03 c0       	rjmp	.+6      	; 0x4604 <vTaskSwitchContext+0x6a>
    45fe:	89 81       	ldd	r24, Y+1	; 0x01
    4600:	81 50       	subi	r24, 0x01	; 1
    4602:	89 83       	std	Y+1, r24	; 0x01
    4604:	89 81       	ldd	r24, Y+1	; 0x01
    4606:	28 2f       	mov	r18, r24
    4608:	30 e0       	ldi	r19, 0x00	; 0
    460a:	4b e0       	ldi	r20, 0x0B	; 11
    460c:	42 9f       	mul	r20, r18
    460e:	c0 01       	movw	r24, r0
    4610:	43 9f       	mul	r20, r19
    4612:	90 0d       	add	r25, r0
    4614:	11 24       	eor	r1, r1
    4616:	82 5e       	subi	r24, 0xE2	; 226
    4618:	98 4e       	sbci	r25, 0xE8	; 232
    461a:	fc 01       	movw	r30, r24
    461c:	80 81       	ld	r24, Z
    461e:	88 23       	and	r24, r24
    4620:	71 f3       	breq	.-36     	; 0x45fe <vTaskSwitchContext+0x64>
    4622:	89 81       	ldd	r24, Y+1	; 0x01
    4624:	28 2f       	mov	r18, r24
    4626:	30 e0       	ldi	r19, 0x00	; 0
    4628:	4b e0       	ldi	r20, 0x0B	; 11
    462a:	42 9f       	mul	r20, r18
    462c:	c0 01       	movw	r24, r0
    462e:	43 9f       	mul	r20, r19
    4630:	90 0d       	add	r25, r0
    4632:	11 24       	eor	r1, r1
    4634:	82 5e       	subi	r24, 0xE2	; 226
    4636:	98 4e       	sbci	r25, 0xE8	; 232
    4638:	9b 83       	std	Y+3, r25	; 0x03
    463a:	8a 83       	std	Y+2, r24	; 0x02
    463c:	8a 81       	ldd	r24, Y+2	; 0x02
    463e:	9b 81       	ldd	r25, Y+3	; 0x03
    4640:	fc 01       	movw	r30, r24
    4642:	81 81       	ldd	r24, Z+1	; 0x01
    4644:	92 81       	ldd	r25, Z+2	; 0x02
    4646:	fc 01       	movw	r30, r24
    4648:	24 81       	ldd	r18, Z+4	; 0x04
    464a:	35 81       	ldd	r19, Z+5	; 0x05
    464c:	8a 81       	ldd	r24, Y+2	; 0x02
    464e:	9b 81       	ldd	r25, Y+3	; 0x03
    4650:	fc 01       	movw	r30, r24
    4652:	32 83       	std	Z+2, r19	; 0x02
    4654:	21 83       	std	Z+1, r18	; 0x01
    4656:	8a 81       	ldd	r24, Y+2	; 0x02
    4658:	9b 81       	ldd	r25, Y+3	; 0x03
    465a:	fc 01       	movw	r30, r24
    465c:	21 81       	ldd	r18, Z+1	; 0x01
    465e:	32 81       	ldd	r19, Z+2	; 0x02
    4660:	8a 81       	ldd	r24, Y+2	; 0x02
    4662:	9b 81       	ldd	r25, Y+3	; 0x03
    4664:	03 96       	adiw	r24, 0x03	; 3
    4666:	28 17       	cp	r18, r24
    4668:	39 07       	cpc	r19, r25
    466a:	69 f4       	brne	.+26     	; 0x4686 <vTaskSwitchContext+0xec>
    466c:	8a 81       	ldd	r24, Y+2	; 0x02
    466e:	9b 81       	ldd	r25, Y+3	; 0x03
    4670:	fc 01       	movw	r30, r24
    4672:	81 81       	ldd	r24, Z+1	; 0x01
    4674:	92 81       	ldd	r25, Z+2	; 0x02
    4676:	fc 01       	movw	r30, r24
    4678:	24 81       	ldd	r18, Z+4	; 0x04
    467a:	35 81       	ldd	r19, Z+5	; 0x05
    467c:	8a 81       	ldd	r24, Y+2	; 0x02
    467e:	9b 81       	ldd	r25, Y+3	; 0x03
    4680:	fc 01       	movw	r30, r24
    4682:	32 83       	std	Z+2, r19	; 0x02
    4684:	21 83       	std	Z+1, r18	; 0x01
    4686:	8a 81       	ldd	r24, Y+2	; 0x02
    4688:	9b 81       	ldd	r25, Y+3	; 0x03
    468a:	fc 01       	movw	r30, r24
    468c:	81 81       	ldd	r24, Z+1	; 0x01
    468e:	92 81       	ldd	r25, Z+2	; 0x02
    4690:	fc 01       	movw	r30, r24
    4692:	80 85       	ldd	r24, Z+8	; 0x08
    4694:	91 85       	ldd	r25, Z+9	; 0x09
    4696:	90 93 1d 17 	sts	0x171D, r25	; 0x80171d <pxCurrentTCB+0x1>
    469a:	80 93 1c 17 	sts	0x171C, r24	; 0x80171c <pxCurrentTCB>
    469e:	89 81       	ldd	r24, Y+1	; 0x01
    46a0:	80 93 c2 17 	sts	0x17C2, r24	; 0x8017c2 <uxTopReadyPriority>
    46a4:	00 00       	nop
    46a6:	0f 90       	pop	r0
    46a8:	0f 90       	pop	r0
    46aa:	0f 90       	pop	r0
    46ac:	df 91       	pop	r29
    46ae:	cf 91       	pop	r28
    46b0:	08 95       	ret

000046b2 <vTaskPlaceOnEventList>:
    46b2:	cf 93       	push	r28
    46b4:	df 93       	push	r29
    46b6:	00 d0       	rcall	.+0      	; 0x46b8 <vTaskPlaceOnEventList+0x6>
    46b8:	00 d0       	rcall	.+0      	; 0x46ba <vTaskPlaceOnEventList+0x8>
    46ba:	cd b7       	in	r28, 0x3d	; 61
    46bc:	de b7       	in	r29, 0x3e	; 62
    46be:	9a 83       	std	Y+2, r25	; 0x02
    46c0:	89 83       	std	Y+1, r24	; 0x01
    46c2:	4b 83       	std	Y+3, r20	; 0x03
    46c4:	5c 83       	std	Y+4, r21	; 0x04
    46c6:	6d 83       	std	Y+5, r22	; 0x05
    46c8:	7e 83       	std	Y+6, r23	; 0x06
    46ca:	80 91 1c 17 	lds	r24, 0x171C	; 0x80171c <pxCurrentTCB>
    46ce:	90 91 1d 17 	lds	r25, 0x171D	; 0x80171d <pxCurrentTCB+0x1>
    46d2:	9c 01       	movw	r18, r24
    46d4:	22 5f       	subi	r18, 0xF2	; 242
    46d6:	3f 4f       	sbci	r19, 0xFF	; 255
    46d8:	89 81       	ldd	r24, Y+1	; 0x01
    46da:	9a 81       	ldd	r25, Y+2	; 0x02
    46dc:	b9 01       	movw	r22, r18
    46de:	0e 94 1f 0d 	call	0x1a3e	; 0x1a3e <vListInsert>
    46e2:	8b 81       	ldd	r24, Y+3	; 0x03
    46e4:	9c 81       	ldd	r25, Y+4	; 0x04
    46e6:	ad 81       	ldd	r26, Y+5	; 0x05
    46e8:	be 81       	ldd	r27, Y+6	; 0x06
    46ea:	41 e0       	ldi	r20, 0x01	; 1
    46ec:	bc 01       	movw	r22, r24
    46ee:	cd 01       	movw	r24, r26
    46f0:	0e 94 a0 31 	call	0x6340	; 0x6340 <prvAddCurrentTaskToDelayedList>
    46f4:	00 00       	nop
    46f6:	26 96       	adiw	r28, 0x06	; 6
    46f8:	0f b6       	in	r0, 0x3f	; 63
    46fa:	f8 94       	cli
    46fc:	de bf       	out	0x3e, r29	; 62
    46fe:	0f be       	out	0x3f, r0	; 63
    4700:	cd bf       	out	0x3d, r28	; 61
    4702:	df 91       	pop	r29
    4704:	cf 91       	pop	r28
    4706:	08 95       	ret

00004708 <vTaskPlaceOnUnorderedEventList>:
    4708:	0f 93       	push	r16
    470a:	1f 93       	push	r17
    470c:	cf 93       	push	r28
    470e:	df 93       	push	r29
    4710:	cd b7       	in	r28, 0x3d	; 61
    4712:	de b7       	in	r29, 0x3e	; 62
    4714:	2c 97       	sbiw	r28, 0x0c	; 12
    4716:	0f b6       	in	r0, 0x3f	; 63
    4718:	f8 94       	cli
    471a:	de bf       	out	0x3e, r29	; 62
    471c:	0f be       	out	0x3f, r0	; 63
    471e:	cd bf       	out	0x3d, r28	; 61
    4720:	9c 83       	std	Y+4, r25	; 0x04
    4722:	8b 83       	std	Y+3, r24	; 0x03
    4724:	4d 83       	std	Y+5, r20	; 0x05
    4726:	5e 83       	std	Y+6, r21	; 0x06
    4728:	6f 83       	std	Y+7, r22	; 0x07
    472a:	78 87       	std	Y+8, r23	; 0x08
    472c:	09 87       	std	Y+9, r16	; 0x09
    472e:	1a 87       	std	Y+10, r17	; 0x0a
    4730:	2b 87       	std	Y+11, r18	; 0x0b
    4732:	3c 87       	std	Y+12, r19	; 0x0c
    4734:	20 91 1c 17 	lds	r18, 0x171C	; 0x80171c <pxCurrentTCB>
    4738:	30 91 1d 17 	lds	r19, 0x171D	; 0x80171d <pxCurrentTCB+0x1>
    473c:	8d 81       	ldd	r24, Y+5	; 0x05
    473e:	9e 81       	ldd	r25, Y+6	; 0x06
    4740:	af 81       	ldd	r26, Y+7	; 0x07
    4742:	b8 85       	ldd	r27, Y+8	; 0x08
    4744:	b0 68       	ori	r27, 0x80	; 128
    4746:	f9 01       	movw	r30, r18
    4748:	86 87       	std	Z+14, r24	; 0x0e
    474a:	97 87       	std	Z+15, r25	; 0x0f
    474c:	a0 8b       	std	Z+16, r26	; 0x10
    474e:	b1 8b       	std	Z+17, r27	; 0x11
    4750:	8b 81       	ldd	r24, Y+3	; 0x03
    4752:	9c 81       	ldd	r25, Y+4	; 0x04
    4754:	fc 01       	movw	r30, r24
    4756:	81 81       	ldd	r24, Z+1	; 0x01
    4758:	92 81       	ldd	r25, Z+2	; 0x02
    475a:	9a 83       	std	Y+2, r25	; 0x02
    475c:	89 83       	std	Y+1, r24	; 0x01
    475e:	80 91 1c 17 	lds	r24, 0x171C	; 0x80171c <pxCurrentTCB>
    4762:	90 91 1d 17 	lds	r25, 0x171D	; 0x80171d <pxCurrentTCB+0x1>
    4766:	29 81       	ldd	r18, Y+1	; 0x01
    4768:	3a 81       	ldd	r19, Y+2	; 0x02
    476a:	fc 01       	movw	r30, r24
    476c:	33 8b       	std	Z+19, r19	; 0x13
    476e:	22 8b       	std	Z+18, r18	; 0x12
    4770:	80 91 1c 17 	lds	r24, 0x171C	; 0x80171c <pxCurrentTCB>
    4774:	90 91 1d 17 	lds	r25, 0x171D	; 0x80171d <pxCurrentTCB+0x1>
    4778:	29 81       	ldd	r18, Y+1	; 0x01
    477a:	3a 81       	ldd	r19, Y+2	; 0x02
    477c:	f9 01       	movw	r30, r18
    477e:	26 81       	ldd	r18, Z+6	; 0x06
    4780:	37 81       	ldd	r19, Z+7	; 0x07
    4782:	fc 01       	movw	r30, r24
    4784:	35 8b       	std	Z+21, r19	; 0x15
    4786:	24 8b       	std	Z+20, r18	; 0x14
    4788:	89 81       	ldd	r24, Y+1	; 0x01
    478a:	9a 81       	ldd	r25, Y+2	; 0x02
    478c:	fc 01       	movw	r30, r24
    478e:	86 81       	ldd	r24, Z+6	; 0x06
    4790:	97 81       	ldd	r25, Z+7	; 0x07
    4792:	20 91 1c 17 	lds	r18, 0x171C	; 0x80171c <pxCurrentTCB>
    4796:	30 91 1d 17 	lds	r19, 0x171D	; 0x80171d <pxCurrentTCB+0x1>
    479a:	22 5f       	subi	r18, 0xF2	; 242
    479c:	3f 4f       	sbci	r19, 0xFF	; 255
    479e:	fc 01       	movw	r30, r24
    47a0:	35 83       	std	Z+5, r19	; 0x05
    47a2:	24 83       	std	Z+4, r18	; 0x04
    47a4:	80 91 1c 17 	lds	r24, 0x171C	; 0x80171c <pxCurrentTCB>
    47a8:	90 91 1d 17 	lds	r25, 0x171D	; 0x80171d <pxCurrentTCB+0x1>
    47ac:	9c 01       	movw	r18, r24
    47ae:	22 5f       	subi	r18, 0xF2	; 242
    47b0:	3f 4f       	sbci	r19, 0xFF	; 255
    47b2:	89 81       	ldd	r24, Y+1	; 0x01
    47b4:	9a 81       	ldd	r25, Y+2	; 0x02
    47b6:	fc 01       	movw	r30, r24
    47b8:	37 83       	std	Z+7, r19	; 0x07
    47ba:	26 83       	std	Z+6, r18	; 0x06
    47bc:	80 91 1c 17 	lds	r24, 0x171C	; 0x80171c <pxCurrentTCB>
    47c0:	90 91 1d 17 	lds	r25, 0x171D	; 0x80171d <pxCurrentTCB+0x1>
    47c4:	2b 81       	ldd	r18, Y+3	; 0x03
    47c6:	3c 81       	ldd	r19, Y+4	; 0x04
    47c8:	fc 01       	movw	r30, r24
    47ca:	31 8f       	std	Z+25, r19	; 0x19
    47cc:	20 8f       	std	Z+24, r18	; 0x18
    47ce:	8b 81       	ldd	r24, Y+3	; 0x03
    47d0:	9c 81       	ldd	r25, Y+4	; 0x04
    47d2:	fc 01       	movw	r30, r24
    47d4:	80 81       	ld	r24, Z
    47d6:	21 e0       	ldi	r18, 0x01	; 1
    47d8:	28 0f       	add	r18, r24
    47da:	8b 81       	ldd	r24, Y+3	; 0x03
    47dc:	9c 81       	ldd	r25, Y+4	; 0x04
    47de:	fc 01       	movw	r30, r24
    47e0:	20 83       	st	Z, r18
    47e2:	89 85       	ldd	r24, Y+9	; 0x09
    47e4:	9a 85       	ldd	r25, Y+10	; 0x0a
    47e6:	ab 85       	ldd	r26, Y+11	; 0x0b
    47e8:	bc 85       	ldd	r27, Y+12	; 0x0c
    47ea:	41 e0       	ldi	r20, 0x01	; 1
    47ec:	bc 01       	movw	r22, r24
    47ee:	cd 01       	movw	r24, r26
    47f0:	0e 94 a0 31 	call	0x6340	; 0x6340 <prvAddCurrentTaskToDelayedList>
    47f4:	00 00       	nop
    47f6:	2c 96       	adiw	r28, 0x0c	; 12
    47f8:	0f b6       	in	r0, 0x3f	; 63
    47fa:	f8 94       	cli
    47fc:	de bf       	out	0x3e, r29	; 62
    47fe:	0f be       	out	0x3f, r0	; 63
    4800:	cd bf       	out	0x3d, r28	; 61
    4802:	df 91       	pop	r29
    4804:	cf 91       	pop	r28
    4806:	1f 91       	pop	r17
    4808:	0f 91       	pop	r16
    480a:	08 95       	ret

0000480c <vTaskPlaceOnEventListRestricted>:
    480c:	cf 93       	push	r28
    480e:	df 93       	push	r29
    4810:	cd b7       	in	r28, 0x3d	; 61
    4812:	de b7       	in	r29, 0x3e	; 62
    4814:	29 97       	sbiw	r28, 0x09	; 9
    4816:	0f b6       	in	r0, 0x3f	; 63
    4818:	f8 94       	cli
    481a:	de bf       	out	0x3e, r29	; 62
    481c:	0f be       	out	0x3f, r0	; 63
    481e:	cd bf       	out	0x3d, r28	; 61
    4820:	9c 83       	std	Y+4, r25	; 0x04
    4822:	8b 83       	std	Y+3, r24	; 0x03
    4824:	4d 83       	std	Y+5, r20	; 0x05
    4826:	5e 83       	std	Y+6, r21	; 0x06
    4828:	6f 83       	std	Y+7, r22	; 0x07
    482a:	78 87       	std	Y+8, r23	; 0x08
    482c:	29 87       	std	Y+9, r18	; 0x09
    482e:	8b 81       	ldd	r24, Y+3	; 0x03
    4830:	9c 81       	ldd	r25, Y+4	; 0x04
    4832:	fc 01       	movw	r30, r24
    4834:	81 81       	ldd	r24, Z+1	; 0x01
    4836:	92 81       	ldd	r25, Z+2	; 0x02
    4838:	9a 83       	std	Y+2, r25	; 0x02
    483a:	89 83       	std	Y+1, r24	; 0x01
    483c:	80 91 1c 17 	lds	r24, 0x171C	; 0x80171c <pxCurrentTCB>
    4840:	90 91 1d 17 	lds	r25, 0x171D	; 0x80171d <pxCurrentTCB+0x1>
    4844:	29 81       	ldd	r18, Y+1	; 0x01
    4846:	3a 81       	ldd	r19, Y+2	; 0x02
    4848:	fc 01       	movw	r30, r24
    484a:	33 8b       	std	Z+19, r19	; 0x13
    484c:	22 8b       	std	Z+18, r18	; 0x12
    484e:	80 91 1c 17 	lds	r24, 0x171C	; 0x80171c <pxCurrentTCB>
    4852:	90 91 1d 17 	lds	r25, 0x171D	; 0x80171d <pxCurrentTCB+0x1>
    4856:	29 81       	ldd	r18, Y+1	; 0x01
    4858:	3a 81       	ldd	r19, Y+2	; 0x02
    485a:	f9 01       	movw	r30, r18
    485c:	26 81       	ldd	r18, Z+6	; 0x06
    485e:	37 81       	ldd	r19, Z+7	; 0x07
    4860:	fc 01       	movw	r30, r24
    4862:	35 8b       	std	Z+21, r19	; 0x15
    4864:	24 8b       	std	Z+20, r18	; 0x14
    4866:	89 81       	ldd	r24, Y+1	; 0x01
    4868:	9a 81       	ldd	r25, Y+2	; 0x02
    486a:	fc 01       	movw	r30, r24
    486c:	86 81       	ldd	r24, Z+6	; 0x06
    486e:	97 81       	ldd	r25, Z+7	; 0x07
    4870:	20 91 1c 17 	lds	r18, 0x171C	; 0x80171c <pxCurrentTCB>
    4874:	30 91 1d 17 	lds	r19, 0x171D	; 0x80171d <pxCurrentTCB+0x1>
    4878:	22 5f       	subi	r18, 0xF2	; 242
    487a:	3f 4f       	sbci	r19, 0xFF	; 255
    487c:	fc 01       	movw	r30, r24
    487e:	35 83       	std	Z+5, r19	; 0x05
    4880:	24 83       	std	Z+4, r18	; 0x04
    4882:	80 91 1c 17 	lds	r24, 0x171C	; 0x80171c <pxCurrentTCB>
    4886:	90 91 1d 17 	lds	r25, 0x171D	; 0x80171d <pxCurrentTCB+0x1>
    488a:	9c 01       	movw	r18, r24
    488c:	22 5f       	subi	r18, 0xF2	; 242
    488e:	3f 4f       	sbci	r19, 0xFF	; 255
    4890:	89 81       	ldd	r24, Y+1	; 0x01
    4892:	9a 81       	ldd	r25, Y+2	; 0x02
    4894:	fc 01       	movw	r30, r24
    4896:	37 83       	std	Z+7, r19	; 0x07
    4898:	26 83       	std	Z+6, r18	; 0x06
    489a:	80 91 1c 17 	lds	r24, 0x171C	; 0x80171c <pxCurrentTCB>
    489e:	90 91 1d 17 	lds	r25, 0x171D	; 0x80171d <pxCurrentTCB+0x1>
    48a2:	2b 81       	ldd	r18, Y+3	; 0x03
    48a4:	3c 81       	ldd	r19, Y+4	; 0x04
    48a6:	fc 01       	movw	r30, r24
    48a8:	31 8f       	std	Z+25, r19	; 0x19
    48aa:	20 8f       	std	Z+24, r18	; 0x18
    48ac:	8b 81       	ldd	r24, Y+3	; 0x03
    48ae:	9c 81       	ldd	r25, Y+4	; 0x04
    48b0:	fc 01       	movw	r30, r24
    48b2:	80 81       	ld	r24, Z
    48b4:	21 e0       	ldi	r18, 0x01	; 1
    48b6:	28 0f       	add	r18, r24
    48b8:	8b 81       	ldd	r24, Y+3	; 0x03
    48ba:	9c 81       	ldd	r25, Y+4	; 0x04
    48bc:	fc 01       	movw	r30, r24
    48be:	20 83       	st	Z, r18
    48c0:	89 85       	ldd	r24, Y+9	; 0x09
    48c2:	88 23       	and	r24, r24
    48c4:	39 f0       	breq	.+14     	; 0x48d4 <vTaskPlaceOnEventListRestricted+0xc8>
    48c6:	8f ef       	ldi	r24, 0xFF	; 255
    48c8:	9f ef       	ldi	r25, 0xFF	; 255
    48ca:	dc 01       	movw	r26, r24
    48cc:	8d 83       	std	Y+5, r24	; 0x05
    48ce:	9e 83       	std	Y+6, r25	; 0x06
    48d0:	af 83       	std	Y+7, r26	; 0x07
    48d2:	b8 87       	std	Y+8, r27	; 0x08
    48d4:	8d 81       	ldd	r24, Y+5	; 0x05
    48d6:	9e 81       	ldd	r25, Y+6	; 0x06
    48d8:	af 81       	ldd	r26, Y+7	; 0x07
    48da:	b8 85       	ldd	r27, Y+8	; 0x08
    48dc:	49 85       	ldd	r20, Y+9	; 0x09
    48de:	bc 01       	movw	r22, r24
    48e0:	cd 01       	movw	r24, r26
    48e2:	0e 94 a0 31 	call	0x6340	; 0x6340 <prvAddCurrentTaskToDelayedList>
    48e6:	00 00       	nop
    48e8:	29 96       	adiw	r28, 0x09	; 9
    48ea:	0f b6       	in	r0, 0x3f	; 63
    48ec:	f8 94       	cli
    48ee:	de bf       	out	0x3e, r29	; 62
    48f0:	0f be       	out	0x3f, r0	; 63
    48f2:	cd bf       	out	0x3d, r28	; 61
    48f4:	df 91       	pop	r29
    48f6:	cf 91       	pop	r28
    48f8:	08 95       	ret

000048fa <xTaskRemoveFromEventList>:
    48fa:	cf 93       	push	r28
    48fc:	df 93       	push	r29
    48fe:	cd b7       	in	r28, 0x3d	; 61
    4900:	de b7       	in	r29, 0x3e	; 62
    4902:	2d 97       	sbiw	r28, 0x0d	; 13
    4904:	0f b6       	in	r0, 0x3f	; 63
    4906:	f8 94       	cli
    4908:	de bf       	out	0x3e, r29	; 62
    490a:	0f be       	out	0x3f, r0	; 63
    490c:	cd bf       	out	0x3d, r28	; 61
    490e:	9d 87       	std	Y+13, r25	; 0x0d
    4910:	8c 87       	std	Y+12, r24	; 0x0c
    4912:	8c 85       	ldd	r24, Y+12	; 0x0c
    4914:	9d 85       	ldd	r25, Y+13	; 0x0d
    4916:	fc 01       	movw	r30, r24
    4918:	87 81       	ldd	r24, Z+7	; 0x07
    491a:	90 85       	ldd	r25, Z+8	; 0x08
    491c:	fc 01       	movw	r30, r24
    491e:	80 85       	ldd	r24, Z+8	; 0x08
    4920:	91 85       	ldd	r25, Z+9	; 0x09
    4922:	9b 83       	std	Y+3, r25	; 0x03
    4924:	8a 83       	std	Y+2, r24	; 0x02
    4926:	8a 81       	ldd	r24, Y+2	; 0x02
    4928:	9b 81       	ldd	r25, Y+3	; 0x03
    492a:	fc 01       	movw	r30, r24
    492c:	80 8d       	ldd	r24, Z+24	; 0x18
    492e:	91 8d       	ldd	r25, Z+25	; 0x19
    4930:	9d 83       	std	Y+5, r25	; 0x05
    4932:	8c 83       	std	Y+4, r24	; 0x04
    4934:	8a 81       	ldd	r24, Y+2	; 0x02
    4936:	9b 81       	ldd	r25, Y+3	; 0x03
    4938:	fc 01       	movw	r30, r24
    493a:	82 89       	ldd	r24, Z+18	; 0x12
    493c:	93 89       	ldd	r25, Z+19	; 0x13
    493e:	2a 81       	ldd	r18, Y+2	; 0x02
    4940:	3b 81       	ldd	r19, Y+3	; 0x03
    4942:	f9 01       	movw	r30, r18
    4944:	24 89       	ldd	r18, Z+20	; 0x14
    4946:	35 89       	ldd	r19, Z+21	; 0x15
    4948:	fc 01       	movw	r30, r24
    494a:	37 83       	std	Z+7, r19	; 0x07
    494c:	26 83       	std	Z+6, r18	; 0x06
    494e:	8a 81       	ldd	r24, Y+2	; 0x02
    4950:	9b 81       	ldd	r25, Y+3	; 0x03
    4952:	fc 01       	movw	r30, r24
    4954:	84 89       	ldd	r24, Z+20	; 0x14
    4956:	95 89       	ldd	r25, Z+21	; 0x15
    4958:	2a 81       	ldd	r18, Y+2	; 0x02
    495a:	3b 81       	ldd	r19, Y+3	; 0x03
    495c:	f9 01       	movw	r30, r18
    495e:	22 89       	ldd	r18, Z+18	; 0x12
    4960:	33 89       	ldd	r19, Z+19	; 0x13
    4962:	fc 01       	movw	r30, r24
    4964:	35 83       	std	Z+5, r19	; 0x05
    4966:	24 83       	std	Z+4, r18	; 0x04
    4968:	8c 81       	ldd	r24, Y+4	; 0x04
    496a:	9d 81       	ldd	r25, Y+5	; 0x05
    496c:	fc 01       	movw	r30, r24
    496e:	21 81       	ldd	r18, Z+1	; 0x01
    4970:	32 81       	ldd	r19, Z+2	; 0x02
    4972:	8a 81       	ldd	r24, Y+2	; 0x02
    4974:	9b 81       	ldd	r25, Y+3	; 0x03
    4976:	0e 96       	adiw	r24, 0x0e	; 14
    4978:	28 17       	cp	r18, r24
    497a:	39 07       	cpc	r19, r25
    497c:	51 f4       	brne	.+20     	; 0x4992 <xTaskRemoveFromEventList+0x98>
    497e:	8a 81       	ldd	r24, Y+2	; 0x02
    4980:	9b 81       	ldd	r25, Y+3	; 0x03
    4982:	fc 01       	movw	r30, r24
    4984:	24 89       	ldd	r18, Z+20	; 0x14
    4986:	35 89       	ldd	r19, Z+21	; 0x15
    4988:	8c 81       	ldd	r24, Y+4	; 0x04
    498a:	9d 81       	ldd	r25, Y+5	; 0x05
    498c:	fc 01       	movw	r30, r24
    498e:	32 83       	std	Z+2, r19	; 0x02
    4990:	21 83       	std	Z+1, r18	; 0x01
    4992:	8a 81       	ldd	r24, Y+2	; 0x02
    4994:	9b 81       	ldd	r25, Y+3	; 0x03
    4996:	fc 01       	movw	r30, r24
    4998:	11 8e       	std	Z+25, r1	; 0x19
    499a:	10 8e       	std	Z+24, r1	; 0x18
    499c:	8c 81       	ldd	r24, Y+4	; 0x04
    499e:	9d 81       	ldd	r25, Y+5	; 0x05
    49a0:	fc 01       	movw	r30, r24
    49a2:	80 81       	ld	r24, Z
    49a4:	2f ef       	ldi	r18, 0xFF	; 255
    49a6:	28 0f       	add	r18, r24
    49a8:	8c 81       	ldd	r24, Y+4	; 0x04
    49aa:	9d 81       	ldd	r25, Y+5	; 0x05
    49ac:	fc 01       	movw	r30, r24
    49ae:	20 83       	st	Z, r18
    49b0:	80 91 d1 17 	lds	r24, 0x17D1	; 0x8017d1 <uxSchedulerSuspended>
    49b4:	88 23       	and	r24, r24
    49b6:	09 f0       	breq	.+2      	; 0x49ba <xTaskRemoveFromEventList+0xc0>
    49b8:	bf c0       	rjmp	.+382    	; 0x4b38 <xTaskRemoveFromEventList+0x23e>
    49ba:	8a 81       	ldd	r24, Y+2	; 0x02
    49bc:	9b 81       	ldd	r25, Y+3	; 0x03
    49be:	fc 01       	movw	r30, r24
    49c0:	84 85       	ldd	r24, Z+12	; 0x0c
    49c2:	95 85       	ldd	r25, Z+13	; 0x0d
    49c4:	9f 83       	std	Y+7, r25	; 0x07
    49c6:	8e 83       	std	Y+6, r24	; 0x06
    49c8:	8a 81       	ldd	r24, Y+2	; 0x02
    49ca:	9b 81       	ldd	r25, Y+3	; 0x03
    49cc:	fc 01       	movw	r30, r24
    49ce:	86 81       	ldd	r24, Z+6	; 0x06
    49d0:	97 81       	ldd	r25, Z+7	; 0x07
    49d2:	2a 81       	ldd	r18, Y+2	; 0x02
    49d4:	3b 81       	ldd	r19, Y+3	; 0x03
    49d6:	f9 01       	movw	r30, r18
    49d8:	20 85       	ldd	r18, Z+8	; 0x08
    49da:	31 85       	ldd	r19, Z+9	; 0x09
    49dc:	fc 01       	movw	r30, r24
    49de:	37 83       	std	Z+7, r19	; 0x07
    49e0:	26 83       	std	Z+6, r18	; 0x06
    49e2:	8a 81       	ldd	r24, Y+2	; 0x02
    49e4:	9b 81       	ldd	r25, Y+3	; 0x03
    49e6:	fc 01       	movw	r30, r24
    49e8:	80 85       	ldd	r24, Z+8	; 0x08
    49ea:	91 85       	ldd	r25, Z+9	; 0x09
    49ec:	2a 81       	ldd	r18, Y+2	; 0x02
    49ee:	3b 81       	ldd	r19, Y+3	; 0x03
    49f0:	f9 01       	movw	r30, r18
    49f2:	26 81       	ldd	r18, Z+6	; 0x06
    49f4:	37 81       	ldd	r19, Z+7	; 0x07
    49f6:	fc 01       	movw	r30, r24
    49f8:	35 83       	std	Z+5, r19	; 0x05
    49fa:	24 83       	std	Z+4, r18	; 0x04
    49fc:	8e 81       	ldd	r24, Y+6	; 0x06
    49fe:	9f 81       	ldd	r25, Y+7	; 0x07
    4a00:	fc 01       	movw	r30, r24
    4a02:	21 81       	ldd	r18, Z+1	; 0x01
    4a04:	32 81       	ldd	r19, Z+2	; 0x02
    4a06:	8a 81       	ldd	r24, Y+2	; 0x02
    4a08:	9b 81       	ldd	r25, Y+3	; 0x03
    4a0a:	02 96       	adiw	r24, 0x02	; 2
    4a0c:	28 17       	cp	r18, r24
    4a0e:	39 07       	cpc	r19, r25
    4a10:	51 f4       	brne	.+20     	; 0x4a26 <xTaskRemoveFromEventList+0x12c>
    4a12:	8a 81       	ldd	r24, Y+2	; 0x02
    4a14:	9b 81       	ldd	r25, Y+3	; 0x03
    4a16:	fc 01       	movw	r30, r24
    4a18:	20 85       	ldd	r18, Z+8	; 0x08
    4a1a:	31 85       	ldd	r19, Z+9	; 0x09
    4a1c:	8e 81       	ldd	r24, Y+6	; 0x06
    4a1e:	9f 81       	ldd	r25, Y+7	; 0x07
    4a20:	fc 01       	movw	r30, r24
    4a22:	32 83       	std	Z+2, r19	; 0x02
    4a24:	21 83       	std	Z+1, r18	; 0x01
    4a26:	8a 81       	ldd	r24, Y+2	; 0x02
    4a28:	9b 81       	ldd	r25, Y+3	; 0x03
    4a2a:	fc 01       	movw	r30, r24
    4a2c:	15 86       	std	Z+13, r1	; 0x0d
    4a2e:	14 86       	std	Z+12, r1	; 0x0c
    4a30:	8e 81       	ldd	r24, Y+6	; 0x06
    4a32:	9f 81       	ldd	r25, Y+7	; 0x07
    4a34:	fc 01       	movw	r30, r24
    4a36:	80 81       	ld	r24, Z
    4a38:	2f ef       	ldi	r18, 0xFF	; 255
    4a3a:	28 0f       	add	r18, r24
    4a3c:	8e 81       	ldd	r24, Y+6	; 0x06
    4a3e:	9f 81       	ldd	r25, Y+7	; 0x07
    4a40:	fc 01       	movw	r30, r24
    4a42:	20 83       	st	Z, r18
    4a44:	8a 81       	ldd	r24, Y+2	; 0x02
    4a46:	9b 81       	ldd	r25, Y+3	; 0x03
    4a48:	fc 01       	movw	r30, r24
    4a4a:	92 8d       	ldd	r25, Z+26	; 0x1a
    4a4c:	80 91 c2 17 	lds	r24, 0x17C2	; 0x8017c2 <uxTopReadyPriority>
    4a50:	89 17       	cp	r24, r25
    4a52:	30 f4       	brcc	.+12     	; 0x4a60 <xTaskRemoveFromEventList+0x166>
    4a54:	8a 81       	ldd	r24, Y+2	; 0x02
    4a56:	9b 81       	ldd	r25, Y+3	; 0x03
    4a58:	fc 01       	movw	r30, r24
    4a5a:	82 8d       	ldd	r24, Z+26	; 0x1a
    4a5c:	80 93 c2 17 	sts	0x17C2, r24	; 0x8017c2 <uxTopReadyPriority>
    4a60:	8a 81       	ldd	r24, Y+2	; 0x02
    4a62:	9b 81       	ldd	r25, Y+3	; 0x03
    4a64:	fc 01       	movw	r30, r24
    4a66:	82 8d       	ldd	r24, Z+26	; 0x1a
    4a68:	28 2f       	mov	r18, r24
    4a6a:	30 e0       	ldi	r19, 0x00	; 0
    4a6c:	4b e0       	ldi	r20, 0x0B	; 11
    4a6e:	42 9f       	mul	r20, r18
    4a70:	c0 01       	movw	r24, r0
    4a72:	43 9f       	mul	r20, r19
    4a74:	90 0d       	add	r25, r0
    4a76:	11 24       	eor	r1, r1
    4a78:	81 5e       	subi	r24, 0xE1	; 225
    4a7a:	98 4e       	sbci	r25, 0xE8	; 232
    4a7c:	fc 01       	movw	r30, r24
    4a7e:	80 81       	ld	r24, Z
    4a80:	91 81       	ldd	r25, Z+1	; 0x01
    4a82:	99 87       	std	Y+9, r25	; 0x09
    4a84:	88 87       	std	Y+8, r24	; 0x08
    4a86:	8a 81       	ldd	r24, Y+2	; 0x02
    4a88:	9b 81       	ldd	r25, Y+3	; 0x03
    4a8a:	28 85       	ldd	r18, Y+8	; 0x08
    4a8c:	39 85       	ldd	r19, Y+9	; 0x09
    4a8e:	fc 01       	movw	r30, r24
    4a90:	37 83       	std	Z+7, r19	; 0x07
    4a92:	26 83       	std	Z+6, r18	; 0x06
    4a94:	88 85       	ldd	r24, Y+8	; 0x08
    4a96:	99 85       	ldd	r25, Y+9	; 0x09
    4a98:	fc 01       	movw	r30, r24
    4a9a:	26 81       	ldd	r18, Z+6	; 0x06
    4a9c:	37 81       	ldd	r19, Z+7	; 0x07
    4a9e:	8a 81       	ldd	r24, Y+2	; 0x02
    4aa0:	9b 81       	ldd	r25, Y+3	; 0x03
    4aa2:	fc 01       	movw	r30, r24
    4aa4:	31 87       	std	Z+9, r19	; 0x09
    4aa6:	20 87       	std	Z+8, r18	; 0x08
    4aa8:	88 85       	ldd	r24, Y+8	; 0x08
    4aaa:	99 85       	ldd	r25, Y+9	; 0x09
    4aac:	fc 01       	movw	r30, r24
    4aae:	86 81       	ldd	r24, Z+6	; 0x06
    4ab0:	97 81       	ldd	r25, Z+7	; 0x07
    4ab2:	2a 81       	ldd	r18, Y+2	; 0x02
    4ab4:	3b 81       	ldd	r19, Y+3	; 0x03
    4ab6:	2e 5f       	subi	r18, 0xFE	; 254
    4ab8:	3f 4f       	sbci	r19, 0xFF	; 255
    4aba:	fc 01       	movw	r30, r24
    4abc:	35 83       	std	Z+5, r19	; 0x05
    4abe:	24 83       	std	Z+4, r18	; 0x04
    4ac0:	8a 81       	ldd	r24, Y+2	; 0x02
    4ac2:	9b 81       	ldd	r25, Y+3	; 0x03
    4ac4:	9c 01       	movw	r18, r24
    4ac6:	2e 5f       	subi	r18, 0xFE	; 254
    4ac8:	3f 4f       	sbci	r19, 0xFF	; 255
    4aca:	88 85       	ldd	r24, Y+8	; 0x08
    4acc:	99 85       	ldd	r25, Y+9	; 0x09
    4ace:	fc 01       	movw	r30, r24
    4ad0:	37 83       	std	Z+7, r19	; 0x07
    4ad2:	26 83       	std	Z+6, r18	; 0x06
    4ad4:	8a 81       	ldd	r24, Y+2	; 0x02
    4ad6:	9b 81       	ldd	r25, Y+3	; 0x03
    4ad8:	fc 01       	movw	r30, r24
    4ada:	82 8d       	ldd	r24, Z+26	; 0x1a
    4adc:	28 2f       	mov	r18, r24
    4ade:	30 e0       	ldi	r19, 0x00	; 0
    4ae0:	4b e0       	ldi	r20, 0x0B	; 11
    4ae2:	42 9f       	mul	r20, r18
    4ae4:	c0 01       	movw	r24, r0
    4ae6:	43 9f       	mul	r20, r19
    4ae8:	90 0d       	add	r25, r0
    4aea:	11 24       	eor	r1, r1
    4aec:	9c 01       	movw	r18, r24
    4aee:	22 5e       	subi	r18, 0xE2	; 226
    4af0:	38 4e       	sbci	r19, 0xE8	; 232
    4af2:	8a 81       	ldd	r24, Y+2	; 0x02
    4af4:	9b 81       	ldd	r25, Y+3	; 0x03
    4af6:	fc 01       	movw	r30, r24
    4af8:	35 87       	std	Z+13, r19	; 0x0d
    4afa:	24 87       	std	Z+12, r18	; 0x0c
    4afc:	8a 81       	ldd	r24, Y+2	; 0x02
    4afe:	9b 81       	ldd	r25, Y+3	; 0x03
    4b00:	fc 01       	movw	r30, r24
    4b02:	82 8d       	ldd	r24, Z+26	; 0x1a
    4b04:	88 2f       	mov	r24, r24
    4b06:	90 e0       	ldi	r25, 0x00	; 0
    4b08:	4b e0       	ldi	r20, 0x0B	; 11
    4b0a:	48 9f       	mul	r20, r24
    4b0c:	90 01       	movw	r18, r0
    4b0e:	49 9f       	mul	r20, r25
    4b10:	30 0d       	add	r19, r0
    4b12:	11 24       	eor	r1, r1
    4b14:	22 5e       	subi	r18, 0xE2	; 226
    4b16:	38 4e       	sbci	r19, 0xE8	; 232
    4b18:	f9 01       	movw	r30, r18
    4b1a:	20 81       	ld	r18, Z
    4b1c:	41 e0       	ldi	r20, 0x01	; 1
    4b1e:	42 0f       	add	r20, r18
    4b20:	5b e0       	ldi	r21, 0x0B	; 11
    4b22:	58 9f       	mul	r21, r24
    4b24:	90 01       	movw	r18, r0
    4b26:	59 9f       	mul	r21, r25
    4b28:	30 0d       	add	r19, r0
    4b2a:	11 24       	eor	r1, r1
    4b2c:	c9 01       	movw	r24, r18
    4b2e:	82 5e       	subi	r24, 0xE2	; 226
    4b30:	98 4e       	sbci	r25, 0xE8	; 232
    4b32:	fc 01       	movw	r30, r24
    4b34:	40 83       	st	Z, r20
    4b36:	39 c0       	rjmp	.+114    	; 0x4baa <xTaskRemoveFromEventList+0x2b0>
    4b38:	80 91 a7 17 	lds	r24, 0x17A7	; 0x8017a7 <xPendingReadyList+0x1>
    4b3c:	90 91 a8 17 	lds	r25, 0x17A8	; 0x8017a8 <xPendingReadyList+0x2>
    4b40:	9b 87       	std	Y+11, r25	; 0x0b
    4b42:	8a 87       	std	Y+10, r24	; 0x0a
    4b44:	8a 81       	ldd	r24, Y+2	; 0x02
    4b46:	9b 81       	ldd	r25, Y+3	; 0x03
    4b48:	2a 85       	ldd	r18, Y+10	; 0x0a
    4b4a:	3b 85       	ldd	r19, Y+11	; 0x0b
    4b4c:	fc 01       	movw	r30, r24
    4b4e:	33 8b       	std	Z+19, r19	; 0x13
    4b50:	22 8b       	std	Z+18, r18	; 0x12
    4b52:	8a 85       	ldd	r24, Y+10	; 0x0a
    4b54:	9b 85       	ldd	r25, Y+11	; 0x0b
    4b56:	fc 01       	movw	r30, r24
    4b58:	26 81       	ldd	r18, Z+6	; 0x06
    4b5a:	37 81       	ldd	r19, Z+7	; 0x07
    4b5c:	8a 81       	ldd	r24, Y+2	; 0x02
    4b5e:	9b 81       	ldd	r25, Y+3	; 0x03
    4b60:	fc 01       	movw	r30, r24
    4b62:	35 8b       	std	Z+21, r19	; 0x15
    4b64:	24 8b       	std	Z+20, r18	; 0x14
    4b66:	8a 85       	ldd	r24, Y+10	; 0x0a
    4b68:	9b 85       	ldd	r25, Y+11	; 0x0b
    4b6a:	fc 01       	movw	r30, r24
    4b6c:	86 81       	ldd	r24, Z+6	; 0x06
    4b6e:	97 81       	ldd	r25, Z+7	; 0x07
    4b70:	2a 81       	ldd	r18, Y+2	; 0x02
    4b72:	3b 81       	ldd	r19, Y+3	; 0x03
    4b74:	22 5f       	subi	r18, 0xF2	; 242
    4b76:	3f 4f       	sbci	r19, 0xFF	; 255
    4b78:	fc 01       	movw	r30, r24
    4b7a:	35 83       	std	Z+5, r19	; 0x05
    4b7c:	24 83       	std	Z+4, r18	; 0x04
    4b7e:	8a 81       	ldd	r24, Y+2	; 0x02
    4b80:	9b 81       	ldd	r25, Y+3	; 0x03
    4b82:	9c 01       	movw	r18, r24
    4b84:	22 5f       	subi	r18, 0xF2	; 242
    4b86:	3f 4f       	sbci	r19, 0xFF	; 255
    4b88:	8a 85       	ldd	r24, Y+10	; 0x0a
    4b8a:	9b 85       	ldd	r25, Y+11	; 0x0b
    4b8c:	fc 01       	movw	r30, r24
    4b8e:	37 83       	std	Z+7, r19	; 0x07
    4b90:	26 83       	std	Z+6, r18	; 0x06
    4b92:	8a 81       	ldd	r24, Y+2	; 0x02
    4b94:	9b 81       	ldd	r25, Y+3	; 0x03
    4b96:	26 ea       	ldi	r18, 0xA6	; 166
    4b98:	37 e1       	ldi	r19, 0x17	; 23
    4b9a:	fc 01       	movw	r30, r24
    4b9c:	31 8f       	std	Z+25, r19	; 0x19
    4b9e:	20 8f       	std	Z+24, r18	; 0x18
    4ba0:	80 91 a6 17 	lds	r24, 0x17A6	; 0x8017a6 <xPendingReadyList>
    4ba4:	8f 5f       	subi	r24, 0xFF	; 255
    4ba6:	80 93 a6 17 	sts	0x17A6, r24	; 0x8017a6 <xPendingReadyList>
    4baa:	8a 81       	ldd	r24, Y+2	; 0x02
    4bac:	9b 81       	ldd	r25, Y+3	; 0x03
    4bae:	fc 01       	movw	r30, r24
    4bb0:	22 8d       	ldd	r18, Z+26	; 0x1a
    4bb2:	80 91 1c 17 	lds	r24, 0x171C	; 0x80171c <pxCurrentTCB>
    4bb6:	90 91 1d 17 	lds	r25, 0x171D	; 0x80171d <pxCurrentTCB+0x1>
    4bba:	fc 01       	movw	r30, r24
    4bbc:	82 8d       	ldd	r24, Z+26	; 0x1a
    4bbe:	82 17       	cp	r24, r18
    4bc0:	30 f4       	brcc	.+12     	; 0x4bce <xTaskRemoveFromEventList+0x2d4>
    4bc2:	81 e0       	ldi	r24, 0x01	; 1
    4bc4:	89 83       	std	Y+1, r24	; 0x01
    4bc6:	81 e0       	ldi	r24, 0x01	; 1
    4bc8:	80 93 c8 17 	sts	0x17C8, r24	; 0x8017c8 <xYieldPending>
    4bcc:	01 c0       	rjmp	.+2      	; 0x4bd0 <xTaskRemoveFromEventList+0x2d6>
    4bce:	19 82       	std	Y+1, r1	; 0x01
    4bd0:	89 81       	ldd	r24, Y+1	; 0x01
    4bd2:	2d 96       	adiw	r28, 0x0d	; 13
    4bd4:	0f b6       	in	r0, 0x3f	; 63
    4bd6:	f8 94       	cli
    4bd8:	de bf       	out	0x3e, r29	; 62
    4bda:	0f be       	out	0x3f, r0	; 63
    4bdc:	cd bf       	out	0x3d, r28	; 61
    4bde:	df 91       	pop	r29
    4be0:	cf 91       	pop	r28
    4be2:	08 95       	ret

00004be4 <vTaskRemoveFromUnorderedEventList>:
    4be4:	cf 93       	push	r28
    4be6:	df 93       	push	r29
    4be8:	cd b7       	in	r28, 0x3d	; 61
    4bea:	de b7       	in	r29, 0x3e	; 62
    4bec:	2e 97       	sbiw	r28, 0x0e	; 14
    4bee:	0f b6       	in	r0, 0x3f	; 63
    4bf0:	f8 94       	cli
    4bf2:	de bf       	out	0x3e, r29	; 62
    4bf4:	0f be       	out	0x3f, r0	; 63
    4bf6:	cd bf       	out	0x3d, r28	; 61
    4bf8:	9a 87       	std	Y+10, r25	; 0x0a
    4bfa:	89 87       	std	Y+9, r24	; 0x09
    4bfc:	4b 87       	std	Y+11, r20	; 0x0b
    4bfe:	5c 87       	std	Y+12, r21	; 0x0c
    4c00:	6d 87       	std	Y+13, r22	; 0x0d
    4c02:	7e 87       	std	Y+14, r23	; 0x0e
    4c04:	8b 85       	ldd	r24, Y+11	; 0x0b
    4c06:	9c 85       	ldd	r25, Y+12	; 0x0c
    4c08:	ad 85       	ldd	r26, Y+13	; 0x0d
    4c0a:	be 85       	ldd	r27, Y+14	; 0x0e
    4c0c:	b0 68       	ori	r27, 0x80	; 128
    4c0e:	29 85       	ldd	r18, Y+9	; 0x09
    4c10:	3a 85       	ldd	r19, Y+10	; 0x0a
    4c12:	f9 01       	movw	r30, r18
    4c14:	80 83       	st	Z, r24
    4c16:	91 83       	std	Z+1, r25	; 0x01
    4c18:	a2 83       	std	Z+2, r26	; 0x02
    4c1a:	b3 83       	std	Z+3, r27	; 0x03
    4c1c:	89 85       	ldd	r24, Y+9	; 0x09
    4c1e:	9a 85       	ldd	r25, Y+10	; 0x0a
    4c20:	fc 01       	movw	r30, r24
    4c22:	80 85       	ldd	r24, Z+8	; 0x08
    4c24:	91 85       	ldd	r25, Z+9	; 0x09
    4c26:	9a 83       	std	Y+2, r25	; 0x02
    4c28:	89 83       	std	Y+1, r24	; 0x01
    4c2a:	89 85       	ldd	r24, Y+9	; 0x09
    4c2c:	9a 85       	ldd	r25, Y+10	; 0x0a
    4c2e:	fc 01       	movw	r30, r24
    4c30:	82 85       	ldd	r24, Z+10	; 0x0a
    4c32:	93 85       	ldd	r25, Z+11	; 0x0b
    4c34:	9c 83       	std	Y+4, r25	; 0x04
    4c36:	8b 83       	std	Y+3, r24	; 0x03
    4c38:	89 85       	ldd	r24, Y+9	; 0x09
    4c3a:	9a 85       	ldd	r25, Y+10	; 0x0a
    4c3c:	fc 01       	movw	r30, r24
    4c3e:	84 81       	ldd	r24, Z+4	; 0x04
    4c40:	95 81       	ldd	r25, Z+5	; 0x05
    4c42:	29 85       	ldd	r18, Y+9	; 0x09
    4c44:	3a 85       	ldd	r19, Y+10	; 0x0a
    4c46:	f9 01       	movw	r30, r18
    4c48:	26 81       	ldd	r18, Z+6	; 0x06
    4c4a:	37 81       	ldd	r19, Z+7	; 0x07
    4c4c:	fc 01       	movw	r30, r24
    4c4e:	37 83       	std	Z+7, r19	; 0x07
    4c50:	26 83       	std	Z+6, r18	; 0x06
    4c52:	89 85       	ldd	r24, Y+9	; 0x09
    4c54:	9a 85       	ldd	r25, Y+10	; 0x0a
    4c56:	fc 01       	movw	r30, r24
    4c58:	86 81       	ldd	r24, Z+6	; 0x06
    4c5a:	97 81       	ldd	r25, Z+7	; 0x07
    4c5c:	29 85       	ldd	r18, Y+9	; 0x09
    4c5e:	3a 85       	ldd	r19, Y+10	; 0x0a
    4c60:	f9 01       	movw	r30, r18
    4c62:	24 81       	ldd	r18, Z+4	; 0x04
    4c64:	35 81       	ldd	r19, Z+5	; 0x05
    4c66:	fc 01       	movw	r30, r24
    4c68:	35 83       	std	Z+5, r19	; 0x05
    4c6a:	24 83       	std	Z+4, r18	; 0x04
    4c6c:	8b 81       	ldd	r24, Y+3	; 0x03
    4c6e:	9c 81       	ldd	r25, Y+4	; 0x04
    4c70:	fc 01       	movw	r30, r24
    4c72:	21 81       	ldd	r18, Z+1	; 0x01
    4c74:	32 81       	ldd	r19, Z+2	; 0x02
    4c76:	89 85       	ldd	r24, Y+9	; 0x09
    4c78:	9a 85       	ldd	r25, Y+10	; 0x0a
    4c7a:	28 17       	cp	r18, r24
    4c7c:	39 07       	cpc	r19, r25
    4c7e:	51 f4       	brne	.+20     	; 0x4c94 <vTaskRemoveFromUnorderedEventList+0xb0>
    4c80:	89 85       	ldd	r24, Y+9	; 0x09
    4c82:	9a 85       	ldd	r25, Y+10	; 0x0a
    4c84:	fc 01       	movw	r30, r24
    4c86:	26 81       	ldd	r18, Z+6	; 0x06
    4c88:	37 81       	ldd	r19, Z+7	; 0x07
    4c8a:	8b 81       	ldd	r24, Y+3	; 0x03
    4c8c:	9c 81       	ldd	r25, Y+4	; 0x04
    4c8e:	fc 01       	movw	r30, r24
    4c90:	32 83       	std	Z+2, r19	; 0x02
    4c92:	21 83       	std	Z+1, r18	; 0x01
    4c94:	89 85       	ldd	r24, Y+9	; 0x09
    4c96:	9a 85       	ldd	r25, Y+10	; 0x0a
    4c98:	fc 01       	movw	r30, r24
    4c9a:	13 86       	std	Z+11, r1	; 0x0b
    4c9c:	12 86       	std	Z+10, r1	; 0x0a
    4c9e:	8b 81       	ldd	r24, Y+3	; 0x03
    4ca0:	9c 81       	ldd	r25, Y+4	; 0x04
    4ca2:	fc 01       	movw	r30, r24
    4ca4:	80 81       	ld	r24, Z
    4ca6:	2f ef       	ldi	r18, 0xFF	; 255
    4ca8:	28 0f       	add	r18, r24
    4caa:	8b 81       	ldd	r24, Y+3	; 0x03
    4cac:	9c 81       	ldd	r25, Y+4	; 0x04
    4cae:	fc 01       	movw	r30, r24
    4cb0:	20 83       	st	Z, r18
    4cb2:	89 81       	ldd	r24, Y+1	; 0x01
    4cb4:	9a 81       	ldd	r25, Y+2	; 0x02
    4cb6:	fc 01       	movw	r30, r24
    4cb8:	84 85       	ldd	r24, Z+12	; 0x0c
    4cba:	95 85       	ldd	r25, Z+13	; 0x0d
    4cbc:	9e 83       	std	Y+6, r25	; 0x06
    4cbe:	8d 83       	std	Y+5, r24	; 0x05
    4cc0:	89 81       	ldd	r24, Y+1	; 0x01
    4cc2:	9a 81       	ldd	r25, Y+2	; 0x02
    4cc4:	fc 01       	movw	r30, r24
    4cc6:	86 81       	ldd	r24, Z+6	; 0x06
    4cc8:	97 81       	ldd	r25, Z+7	; 0x07
    4cca:	29 81       	ldd	r18, Y+1	; 0x01
    4ccc:	3a 81       	ldd	r19, Y+2	; 0x02
    4cce:	f9 01       	movw	r30, r18
    4cd0:	20 85       	ldd	r18, Z+8	; 0x08
    4cd2:	31 85       	ldd	r19, Z+9	; 0x09
    4cd4:	fc 01       	movw	r30, r24
    4cd6:	37 83       	std	Z+7, r19	; 0x07
    4cd8:	26 83       	std	Z+6, r18	; 0x06
    4cda:	89 81       	ldd	r24, Y+1	; 0x01
    4cdc:	9a 81       	ldd	r25, Y+2	; 0x02
    4cde:	fc 01       	movw	r30, r24
    4ce0:	80 85       	ldd	r24, Z+8	; 0x08
    4ce2:	91 85       	ldd	r25, Z+9	; 0x09
    4ce4:	29 81       	ldd	r18, Y+1	; 0x01
    4ce6:	3a 81       	ldd	r19, Y+2	; 0x02
    4ce8:	f9 01       	movw	r30, r18
    4cea:	26 81       	ldd	r18, Z+6	; 0x06
    4cec:	37 81       	ldd	r19, Z+7	; 0x07
    4cee:	fc 01       	movw	r30, r24
    4cf0:	35 83       	std	Z+5, r19	; 0x05
    4cf2:	24 83       	std	Z+4, r18	; 0x04
    4cf4:	8d 81       	ldd	r24, Y+5	; 0x05
    4cf6:	9e 81       	ldd	r25, Y+6	; 0x06
    4cf8:	fc 01       	movw	r30, r24
    4cfa:	21 81       	ldd	r18, Z+1	; 0x01
    4cfc:	32 81       	ldd	r19, Z+2	; 0x02
    4cfe:	89 81       	ldd	r24, Y+1	; 0x01
    4d00:	9a 81       	ldd	r25, Y+2	; 0x02
    4d02:	02 96       	adiw	r24, 0x02	; 2
    4d04:	28 17       	cp	r18, r24
    4d06:	39 07       	cpc	r19, r25
    4d08:	51 f4       	brne	.+20     	; 0x4d1e <vTaskRemoveFromUnorderedEventList+0x13a>
    4d0a:	89 81       	ldd	r24, Y+1	; 0x01
    4d0c:	9a 81       	ldd	r25, Y+2	; 0x02
    4d0e:	fc 01       	movw	r30, r24
    4d10:	20 85       	ldd	r18, Z+8	; 0x08
    4d12:	31 85       	ldd	r19, Z+9	; 0x09
    4d14:	8d 81       	ldd	r24, Y+5	; 0x05
    4d16:	9e 81       	ldd	r25, Y+6	; 0x06
    4d18:	fc 01       	movw	r30, r24
    4d1a:	32 83       	std	Z+2, r19	; 0x02
    4d1c:	21 83       	std	Z+1, r18	; 0x01
    4d1e:	89 81       	ldd	r24, Y+1	; 0x01
    4d20:	9a 81       	ldd	r25, Y+2	; 0x02
    4d22:	fc 01       	movw	r30, r24
    4d24:	15 86       	std	Z+13, r1	; 0x0d
    4d26:	14 86       	std	Z+12, r1	; 0x0c
    4d28:	8d 81       	ldd	r24, Y+5	; 0x05
    4d2a:	9e 81       	ldd	r25, Y+6	; 0x06
    4d2c:	fc 01       	movw	r30, r24
    4d2e:	80 81       	ld	r24, Z
    4d30:	2f ef       	ldi	r18, 0xFF	; 255
    4d32:	28 0f       	add	r18, r24
    4d34:	8d 81       	ldd	r24, Y+5	; 0x05
    4d36:	9e 81       	ldd	r25, Y+6	; 0x06
    4d38:	fc 01       	movw	r30, r24
    4d3a:	20 83       	st	Z, r18
    4d3c:	89 81       	ldd	r24, Y+1	; 0x01
    4d3e:	9a 81       	ldd	r25, Y+2	; 0x02
    4d40:	fc 01       	movw	r30, r24
    4d42:	92 8d       	ldd	r25, Z+26	; 0x1a
    4d44:	80 91 c2 17 	lds	r24, 0x17C2	; 0x8017c2 <uxTopReadyPriority>
    4d48:	89 17       	cp	r24, r25
    4d4a:	30 f4       	brcc	.+12     	; 0x4d58 <vTaskRemoveFromUnorderedEventList+0x174>
    4d4c:	89 81       	ldd	r24, Y+1	; 0x01
    4d4e:	9a 81       	ldd	r25, Y+2	; 0x02
    4d50:	fc 01       	movw	r30, r24
    4d52:	82 8d       	ldd	r24, Z+26	; 0x1a
    4d54:	80 93 c2 17 	sts	0x17C2, r24	; 0x8017c2 <uxTopReadyPriority>
    4d58:	89 81       	ldd	r24, Y+1	; 0x01
    4d5a:	9a 81       	ldd	r25, Y+2	; 0x02
    4d5c:	fc 01       	movw	r30, r24
    4d5e:	82 8d       	ldd	r24, Z+26	; 0x1a
    4d60:	28 2f       	mov	r18, r24
    4d62:	30 e0       	ldi	r19, 0x00	; 0
    4d64:	4b e0       	ldi	r20, 0x0B	; 11
    4d66:	42 9f       	mul	r20, r18
    4d68:	c0 01       	movw	r24, r0
    4d6a:	43 9f       	mul	r20, r19
    4d6c:	90 0d       	add	r25, r0
    4d6e:	11 24       	eor	r1, r1
    4d70:	81 5e       	subi	r24, 0xE1	; 225
    4d72:	98 4e       	sbci	r25, 0xE8	; 232
    4d74:	fc 01       	movw	r30, r24
    4d76:	80 81       	ld	r24, Z
    4d78:	91 81       	ldd	r25, Z+1	; 0x01
    4d7a:	98 87       	std	Y+8, r25	; 0x08
    4d7c:	8f 83       	std	Y+7, r24	; 0x07
    4d7e:	89 81       	ldd	r24, Y+1	; 0x01
    4d80:	9a 81       	ldd	r25, Y+2	; 0x02
    4d82:	2f 81       	ldd	r18, Y+7	; 0x07
    4d84:	38 85       	ldd	r19, Y+8	; 0x08
    4d86:	fc 01       	movw	r30, r24
    4d88:	37 83       	std	Z+7, r19	; 0x07
    4d8a:	26 83       	std	Z+6, r18	; 0x06
    4d8c:	8f 81       	ldd	r24, Y+7	; 0x07
    4d8e:	98 85       	ldd	r25, Y+8	; 0x08
    4d90:	fc 01       	movw	r30, r24
    4d92:	26 81       	ldd	r18, Z+6	; 0x06
    4d94:	37 81       	ldd	r19, Z+7	; 0x07
    4d96:	89 81       	ldd	r24, Y+1	; 0x01
    4d98:	9a 81       	ldd	r25, Y+2	; 0x02
    4d9a:	fc 01       	movw	r30, r24
    4d9c:	31 87       	std	Z+9, r19	; 0x09
    4d9e:	20 87       	std	Z+8, r18	; 0x08
    4da0:	8f 81       	ldd	r24, Y+7	; 0x07
    4da2:	98 85       	ldd	r25, Y+8	; 0x08
    4da4:	fc 01       	movw	r30, r24
    4da6:	86 81       	ldd	r24, Z+6	; 0x06
    4da8:	97 81       	ldd	r25, Z+7	; 0x07
    4daa:	29 81       	ldd	r18, Y+1	; 0x01
    4dac:	3a 81       	ldd	r19, Y+2	; 0x02
    4dae:	2e 5f       	subi	r18, 0xFE	; 254
    4db0:	3f 4f       	sbci	r19, 0xFF	; 255
    4db2:	fc 01       	movw	r30, r24
    4db4:	35 83       	std	Z+5, r19	; 0x05
    4db6:	24 83       	std	Z+4, r18	; 0x04
    4db8:	89 81       	ldd	r24, Y+1	; 0x01
    4dba:	9a 81       	ldd	r25, Y+2	; 0x02
    4dbc:	9c 01       	movw	r18, r24
    4dbe:	2e 5f       	subi	r18, 0xFE	; 254
    4dc0:	3f 4f       	sbci	r19, 0xFF	; 255
    4dc2:	8f 81       	ldd	r24, Y+7	; 0x07
    4dc4:	98 85       	ldd	r25, Y+8	; 0x08
    4dc6:	fc 01       	movw	r30, r24
    4dc8:	37 83       	std	Z+7, r19	; 0x07
    4dca:	26 83       	std	Z+6, r18	; 0x06
    4dcc:	89 81       	ldd	r24, Y+1	; 0x01
    4dce:	9a 81       	ldd	r25, Y+2	; 0x02
    4dd0:	fc 01       	movw	r30, r24
    4dd2:	82 8d       	ldd	r24, Z+26	; 0x1a
    4dd4:	28 2f       	mov	r18, r24
    4dd6:	30 e0       	ldi	r19, 0x00	; 0
    4dd8:	4b e0       	ldi	r20, 0x0B	; 11
    4dda:	42 9f       	mul	r20, r18
    4ddc:	c0 01       	movw	r24, r0
    4dde:	43 9f       	mul	r20, r19
    4de0:	90 0d       	add	r25, r0
    4de2:	11 24       	eor	r1, r1
    4de4:	9c 01       	movw	r18, r24
    4de6:	22 5e       	subi	r18, 0xE2	; 226
    4de8:	38 4e       	sbci	r19, 0xE8	; 232
    4dea:	89 81       	ldd	r24, Y+1	; 0x01
    4dec:	9a 81       	ldd	r25, Y+2	; 0x02
    4dee:	fc 01       	movw	r30, r24
    4df0:	35 87       	std	Z+13, r19	; 0x0d
    4df2:	24 87       	std	Z+12, r18	; 0x0c
    4df4:	89 81       	ldd	r24, Y+1	; 0x01
    4df6:	9a 81       	ldd	r25, Y+2	; 0x02
    4df8:	fc 01       	movw	r30, r24
    4dfa:	82 8d       	ldd	r24, Z+26	; 0x1a
    4dfc:	88 2f       	mov	r24, r24
    4dfe:	90 e0       	ldi	r25, 0x00	; 0
    4e00:	4b e0       	ldi	r20, 0x0B	; 11
    4e02:	48 9f       	mul	r20, r24
    4e04:	90 01       	movw	r18, r0
    4e06:	49 9f       	mul	r20, r25
    4e08:	30 0d       	add	r19, r0
    4e0a:	11 24       	eor	r1, r1
    4e0c:	22 5e       	subi	r18, 0xE2	; 226
    4e0e:	38 4e       	sbci	r19, 0xE8	; 232
    4e10:	f9 01       	movw	r30, r18
    4e12:	20 81       	ld	r18, Z
    4e14:	41 e0       	ldi	r20, 0x01	; 1
    4e16:	42 0f       	add	r20, r18
    4e18:	5b e0       	ldi	r21, 0x0B	; 11
    4e1a:	58 9f       	mul	r21, r24
    4e1c:	90 01       	movw	r18, r0
    4e1e:	59 9f       	mul	r21, r25
    4e20:	30 0d       	add	r19, r0
    4e22:	11 24       	eor	r1, r1
    4e24:	c9 01       	movw	r24, r18
    4e26:	82 5e       	subi	r24, 0xE2	; 226
    4e28:	98 4e       	sbci	r25, 0xE8	; 232
    4e2a:	fc 01       	movw	r30, r24
    4e2c:	40 83       	st	Z, r20
    4e2e:	89 81       	ldd	r24, Y+1	; 0x01
    4e30:	9a 81       	ldd	r25, Y+2	; 0x02
    4e32:	fc 01       	movw	r30, r24
    4e34:	22 8d       	ldd	r18, Z+26	; 0x1a
    4e36:	80 91 1c 17 	lds	r24, 0x171C	; 0x80171c <pxCurrentTCB>
    4e3a:	90 91 1d 17 	lds	r25, 0x171D	; 0x80171d <pxCurrentTCB+0x1>
    4e3e:	fc 01       	movw	r30, r24
    4e40:	82 8d       	ldd	r24, Z+26	; 0x1a
    4e42:	82 17       	cp	r24, r18
    4e44:	18 f4       	brcc	.+6      	; 0x4e4c <vTaskRemoveFromUnorderedEventList+0x268>
    4e46:	81 e0       	ldi	r24, 0x01	; 1
    4e48:	80 93 c8 17 	sts	0x17C8, r24	; 0x8017c8 <xYieldPending>
    4e4c:	00 00       	nop
    4e4e:	2e 96       	adiw	r28, 0x0e	; 14
    4e50:	0f b6       	in	r0, 0x3f	; 63
    4e52:	f8 94       	cli
    4e54:	de bf       	out	0x3e, r29	; 62
    4e56:	0f be       	out	0x3f, r0	; 63
    4e58:	cd bf       	out	0x3d, r28	; 61
    4e5a:	df 91       	pop	r29
    4e5c:	cf 91       	pop	r28
    4e5e:	08 95       	ret

00004e60 <vTaskSetTimeOutState>:
    4e60:	cf 93       	push	r28
    4e62:	df 93       	push	r29
    4e64:	1f 92       	push	r1
    4e66:	1f 92       	push	r1
    4e68:	cd b7       	in	r28, 0x3d	; 61
    4e6a:	de b7       	in	r29, 0x3e	; 62
    4e6c:	9a 83       	std	Y+2, r25	; 0x02
    4e6e:	89 83       	std	Y+1, r24	; 0x01
    4e70:	0f b6       	in	r0, 0x3f	; 63
    4e72:	f8 94       	cli
    4e74:	0f 92       	push	r0
    4e76:	20 91 c9 17 	lds	r18, 0x17C9	; 0x8017c9 <xNumOfOverflows>
    4e7a:	89 81       	ldd	r24, Y+1	; 0x01
    4e7c:	9a 81       	ldd	r25, Y+2	; 0x02
    4e7e:	fc 01       	movw	r30, r24
    4e80:	20 83       	st	Z, r18
    4e82:	80 91 be 17 	lds	r24, 0x17BE	; 0x8017be <xTickCount>
    4e86:	90 91 bf 17 	lds	r25, 0x17BF	; 0x8017bf <xTickCount+0x1>
    4e8a:	a0 91 c0 17 	lds	r26, 0x17C0	; 0x8017c0 <xTickCount+0x2>
    4e8e:	b0 91 c1 17 	lds	r27, 0x17C1	; 0x8017c1 <xTickCount+0x3>
    4e92:	29 81       	ldd	r18, Y+1	; 0x01
    4e94:	3a 81       	ldd	r19, Y+2	; 0x02
    4e96:	f9 01       	movw	r30, r18
    4e98:	81 83       	std	Z+1, r24	; 0x01
    4e9a:	92 83       	std	Z+2, r25	; 0x02
    4e9c:	a3 83       	std	Z+3, r26	; 0x03
    4e9e:	b4 83       	std	Z+4, r27	; 0x04
    4ea0:	0f 90       	pop	r0
    4ea2:	0f be       	out	0x3f, r0	; 63
    4ea4:	00 00       	nop
    4ea6:	0f 90       	pop	r0
    4ea8:	0f 90       	pop	r0
    4eaa:	df 91       	pop	r29
    4eac:	cf 91       	pop	r28
    4eae:	08 95       	ret

00004eb0 <vTaskInternalSetTimeOutState>:
    4eb0:	cf 93       	push	r28
    4eb2:	df 93       	push	r29
    4eb4:	1f 92       	push	r1
    4eb6:	1f 92       	push	r1
    4eb8:	cd b7       	in	r28, 0x3d	; 61
    4eba:	de b7       	in	r29, 0x3e	; 62
    4ebc:	9a 83       	std	Y+2, r25	; 0x02
    4ebe:	89 83       	std	Y+1, r24	; 0x01
    4ec0:	20 91 c9 17 	lds	r18, 0x17C9	; 0x8017c9 <xNumOfOverflows>
    4ec4:	89 81       	ldd	r24, Y+1	; 0x01
    4ec6:	9a 81       	ldd	r25, Y+2	; 0x02
    4ec8:	fc 01       	movw	r30, r24
    4eca:	20 83       	st	Z, r18
    4ecc:	80 91 be 17 	lds	r24, 0x17BE	; 0x8017be <xTickCount>
    4ed0:	90 91 bf 17 	lds	r25, 0x17BF	; 0x8017bf <xTickCount+0x1>
    4ed4:	a0 91 c0 17 	lds	r26, 0x17C0	; 0x8017c0 <xTickCount+0x2>
    4ed8:	b0 91 c1 17 	lds	r27, 0x17C1	; 0x8017c1 <xTickCount+0x3>
    4edc:	29 81       	ldd	r18, Y+1	; 0x01
    4ede:	3a 81       	ldd	r19, Y+2	; 0x02
    4ee0:	f9 01       	movw	r30, r18
    4ee2:	81 83       	std	Z+1, r24	; 0x01
    4ee4:	92 83       	std	Z+2, r25	; 0x02
    4ee6:	a3 83       	std	Z+3, r26	; 0x03
    4ee8:	b4 83       	std	Z+4, r27	; 0x04
    4eea:	00 00       	nop
    4eec:	0f 90       	pop	r0
    4eee:	0f 90       	pop	r0
    4ef0:	df 91       	pop	r29
    4ef2:	cf 91       	pop	r28
    4ef4:	08 95       	ret

00004ef6 <xTaskCheckForTimeOut>:
    4ef6:	ef 92       	push	r14
    4ef8:	ff 92       	push	r15
    4efa:	0f 93       	push	r16
    4efc:	1f 93       	push	r17
    4efe:	cf 93       	push	r28
    4f00:	df 93       	push	r29
    4f02:	cd b7       	in	r28, 0x3d	; 61
    4f04:	de b7       	in	r29, 0x3e	; 62
    4f06:	2d 97       	sbiw	r28, 0x0d	; 13
    4f08:	0f b6       	in	r0, 0x3f	; 63
    4f0a:	f8 94       	cli
    4f0c:	de bf       	out	0x3e, r29	; 62
    4f0e:	0f be       	out	0x3f, r0	; 63
    4f10:	cd bf       	out	0x3d, r28	; 61
    4f12:	9b 87       	std	Y+11, r25	; 0x0b
    4f14:	8a 87       	std	Y+10, r24	; 0x0a
    4f16:	7d 87       	std	Y+13, r23	; 0x0d
    4f18:	6c 87       	std	Y+12, r22	; 0x0c
    4f1a:	0f b6       	in	r0, 0x3f	; 63
    4f1c:	f8 94       	cli
    4f1e:	0f 92       	push	r0
    4f20:	80 91 be 17 	lds	r24, 0x17BE	; 0x8017be <xTickCount>
    4f24:	90 91 bf 17 	lds	r25, 0x17BF	; 0x8017bf <xTickCount+0x1>
    4f28:	a0 91 c0 17 	lds	r26, 0x17C0	; 0x8017c0 <xTickCount+0x2>
    4f2c:	b0 91 c1 17 	lds	r27, 0x17C1	; 0x8017c1 <xTickCount+0x3>
    4f30:	8a 83       	std	Y+2, r24	; 0x02
    4f32:	9b 83       	std	Y+3, r25	; 0x03
    4f34:	ac 83       	std	Y+4, r26	; 0x04
    4f36:	bd 83       	std	Y+5, r27	; 0x05
    4f38:	8a 85       	ldd	r24, Y+10	; 0x0a
    4f3a:	9b 85       	ldd	r25, Y+11	; 0x0b
    4f3c:	fc 01       	movw	r30, r24
    4f3e:	81 81       	ldd	r24, Z+1	; 0x01
    4f40:	92 81       	ldd	r25, Z+2	; 0x02
    4f42:	a3 81       	ldd	r26, Z+3	; 0x03
    4f44:	b4 81       	ldd	r27, Z+4	; 0x04
    4f46:	2a 81       	ldd	r18, Y+2	; 0x02
    4f48:	3b 81       	ldd	r19, Y+3	; 0x03
    4f4a:	4c 81       	ldd	r20, Y+4	; 0x04
    4f4c:	5d 81       	ldd	r21, Y+5	; 0x05
    4f4e:	79 01       	movw	r14, r18
    4f50:	8a 01       	movw	r16, r20
    4f52:	e8 1a       	sub	r14, r24
    4f54:	f9 0a       	sbc	r15, r25
    4f56:	0a 0b       	sbc	r16, r26
    4f58:	1b 0b       	sbc	r17, r27
    4f5a:	d8 01       	movw	r26, r16
    4f5c:	c7 01       	movw	r24, r14
    4f5e:	8e 83       	std	Y+6, r24	; 0x06
    4f60:	9f 83       	std	Y+7, r25	; 0x07
    4f62:	a8 87       	std	Y+8, r26	; 0x08
    4f64:	b9 87       	std	Y+9, r27	; 0x09
    4f66:	8a 85       	ldd	r24, Y+10	; 0x0a
    4f68:	9b 85       	ldd	r25, Y+11	; 0x0b
    4f6a:	fc 01       	movw	r30, r24
    4f6c:	90 81       	ld	r25, Z
    4f6e:	80 91 c9 17 	lds	r24, 0x17C9	; 0x8017c9 <xNumOfOverflows>
    4f72:	98 17       	cp	r25, r24
    4f74:	d1 f0       	breq	.+52     	; 0x4faa <xTaskCheckForTimeOut+0xb4>
    4f76:	8a 85       	ldd	r24, Y+10	; 0x0a
    4f78:	9b 85       	ldd	r25, Y+11	; 0x0b
    4f7a:	fc 01       	movw	r30, r24
    4f7c:	21 81       	ldd	r18, Z+1	; 0x01
    4f7e:	32 81       	ldd	r19, Z+2	; 0x02
    4f80:	43 81       	ldd	r20, Z+3	; 0x03
    4f82:	54 81       	ldd	r21, Z+4	; 0x04
    4f84:	8a 81       	ldd	r24, Y+2	; 0x02
    4f86:	9b 81       	ldd	r25, Y+3	; 0x03
    4f88:	ac 81       	ldd	r26, Y+4	; 0x04
    4f8a:	bd 81       	ldd	r27, Y+5	; 0x05
    4f8c:	82 17       	cp	r24, r18
    4f8e:	93 07       	cpc	r25, r19
    4f90:	a4 07       	cpc	r26, r20
    4f92:	b5 07       	cpc	r27, r21
    4f94:	50 f0       	brcs	.+20     	; 0x4faa <xTaskCheckForTimeOut+0xb4>
    4f96:	81 e0       	ldi	r24, 0x01	; 1
    4f98:	89 83       	std	Y+1, r24	; 0x01
    4f9a:	8c 85       	ldd	r24, Y+12	; 0x0c
    4f9c:	9d 85       	ldd	r25, Y+13	; 0x0d
    4f9e:	fc 01       	movw	r30, r24
    4fa0:	10 82       	st	Z, r1
    4fa2:	11 82       	std	Z+1, r1	; 0x01
    4fa4:	12 82       	std	Z+2, r1	; 0x02
    4fa6:	13 82       	std	Z+3, r1	; 0x03
    4fa8:	38 c0       	rjmp	.+112    	; 0x501a <xTaskCheckForTimeOut+0x124>
    4faa:	8c 85       	ldd	r24, Y+12	; 0x0c
    4fac:	9d 85       	ldd	r25, Y+13	; 0x0d
    4fae:	fc 01       	movw	r30, r24
    4fb0:	20 81       	ld	r18, Z
    4fb2:	31 81       	ldd	r19, Z+1	; 0x01
    4fb4:	42 81       	ldd	r20, Z+2	; 0x02
    4fb6:	53 81       	ldd	r21, Z+3	; 0x03
    4fb8:	8e 81       	ldd	r24, Y+6	; 0x06
    4fba:	9f 81       	ldd	r25, Y+7	; 0x07
    4fbc:	a8 85       	ldd	r26, Y+8	; 0x08
    4fbe:	b9 85       	ldd	r27, Y+9	; 0x09
    4fc0:	82 17       	cp	r24, r18
    4fc2:	93 07       	cpc	r25, r19
    4fc4:	a4 07       	cpc	r26, r20
    4fc6:	b5 07       	cpc	r27, r21
    4fc8:	f8 f4       	brcc	.+62     	; 0x5008 <xTaskCheckForTimeOut+0x112>
    4fca:	8c 85       	ldd	r24, Y+12	; 0x0c
    4fcc:	9d 85       	ldd	r25, Y+13	; 0x0d
    4fce:	fc 01       	movw	r30, r24
    4fd0:	20 81       	ld	r18, Z
    4fd2:	31 81       	ldd	r19, Z+1	; 0x01
    4fd4:	42 81       	ldd	r20, Z+2	; 0x02
    4fd6:	53 81       	ldd	r21, Z+3	; 0x03
    4fd8:	8e 81       	ldd	r24, Y+6	; 0x06
    4fda:	9f 81       	ldd	r25, Y+7	; 0x07
    4fdc:	a8 85       	ldd	r26, Y+8	; 0x08
    4fde:	b9 85       	ldd	r27, Y+9	; 0x09
    4fe0:	79 01       	movw	r14, r18
    4fe2:	8a 01       	movw	r16, r20
    4fe4:	e8 1a       	sub	r14, r24
    4fe6:	f9 0a       	sbc	r15, r25
    4fe8:	0a 0b       	sbc	r16, r26
    4fea:	1b 0b       	sbc	r17, r27
    4fec:	d8 01       	movw	r26, r16
    4fee:	c7 01       	movw	r24, r14
    4ff0:	2c 85       	ldd	r18, Y+12	; 0x0c
    4ff2:	3d 85       	ldd	r19, Y+13	; 0x0d
    4ff4:	f9 01       	movw	r30, r18
    4ff6:	80 83       	st	Z, r24
    4ff8:	91 83       	std	Z+1, r25	; 0x01
    4ffa:	a2 83       	std	Z+2, r26	; 0x02
    4ffc:	b3 83       	std	Z+3, r27	; 0x03
    4ffe:	8a 85       	ldd	r24, Y+10	; 0x0a
    5000:	9b 85       	ldd	r25, Y+11	; 0x0b
    5002:	56 df       	rcall	.-340    	; 0x4eb0 <vTaskInternalSetTimeOutState>
    5004:	19 82       	std	Y+1, r1	; 0x01
    5006:	09 c0       	rjmp	.+18     	; 0x501a <xTaskCheckForTimeOut+0x124>
    5008:	8c 85       	ldd	r24, Y+12	; 0x0c
    500a:	9d 85       	ldd	r25, Y+13	; 0x0d
    500c:	fc 01       	movw	r30, r24
    500e:	10 82       	st	Z, r1
    5010:	11 82       	std	Z+1, r1	; 0x01
    5012:	12 82       	std	Z+2, r1	; 0x02
    5014:	13 82       	std	Z+3, r1	; 0x03
    5016:	81 e0       	ldi	r24, 0x01	; 1
    5018:	89 83       	std	Y+1, r24	; 0x01
    501a:	0f 90       	pop	r0
    501c:	0f be       	out	0x3f, r0	; 63
    501e:	89 81       	ldd	r24, Y+1	; 0x01
    5020:	2d 96       	adiw	r28, 0x0d	; 13
    5022:	0f b6       	in	r0, 0x3f	; 63
    5024:	f8 94       	cli
    5026:	de bf       	out	0x3e, r29	; 62
    5028:	0f be       	out	0x3f, r0	; 63
    502a:	cd bf       	out	0x3d, r28	; 61
    502c:	df 91       	pop	r29
    502e:	cf 91       	pop	r28
    5030:	1f 91       	pop	r17
    5032:	0f 91       	pop	r16
    5034:	ff 90       	pop	r15
    5036:	ef 90       	pop	r14
    5038:	08 95       	ret

0000503a <vTaskMissedYield>:
    503a:	cf 93       	push	r28
    503c:	df 93       	push	r29
    503e:	cd b7       	in	r28, 0x3d	; 61
    5040:	de b7       	in	r29, 0x3e	; 62
    5042:	81 e0       	ldi	r24, 0x01	; 1
    5044:	80 93 c8 17 	sts	0x17C8, r24	; 0x8017c8 <xYieldPending>
    5048:	00 00       	nop
    504a:	df 91       	pop	r29
    504c:	cf 91       	pop	r28
    504e:	08 95       	ret

00005050 <prvInitialiseTaskLists>:
    5050:	cf 93       	push	r28
    5052:	df 93       	push	r29
    5054:	1f 92       	push	r1
    5056:	cd b7       	in	r28, 0x3d	; 61
    5058:	de b7       	in	r29, 0x3e	; 62
    505a:	19 82       	std	Y+1, r1	; 0x01
    505c:	10 c0       	rjmp	.+32     	; 0x507e <prvInitialiseTaskLists+0x2e>
    505e:	89 81       	ldd	r24, Y+1	; 0x01
    5060:	28 2f       	mov	r18, r24
    5062:	30 e0       	ldi	r19, 0x00	; 0
    5064:	4b e0       	ldi	r20, 0x0B	; 11
    5066:	42 9f       	mul	r20, r18
    5068:	c0 01       	movw	r24, r0
    506a:	43 9f       	mul	r20, r19
    506c:	90 0d       	add	r25, r0
    506e:	11 24       	eor	r1, r1
    5070:	82 5e       	subi	r24, 0xE2	; 226
    5072:	98 4e       	sbci	r25, 0xE8	; 232
    5074:	0e 94 d2 0c 	call	0x19a4	; 0x19a4 <vListInitialise>
    5078:	89 81       	ldd	r24, Y+1	; 0x01
    507a:	8f 5f       	subi	r24, 0xFF	; 255
    507c:	89 83       	std	Y+1, r24	; 0x01
    507e:	89 81       	ldd	r24, Y+1	; 0x01
    5080:	8a 30       	cpi	r24, 0x0A	; 10
    5082:	68 f3       	brcs	.-38     	; 0x505e <prvInitialiseTaskLists+0xe>
    5084:	8c e8       	ldi	r24, 0x8C	; 140
    5086:	97 e1       	ldi	r25, 0x17	; 23
    5088:	0e 94 d2 0c 	call	0x19a4	; 0x19a4 <vListInitialise>
    508c:	87 e9       	ldi	r24, 0x97	; 151
    508e:	97 e1       	ldi	r25, 0x17	; 23
    5090:	0e 94 d2 0c 	call	0x19a4	; 0x19a4 <vListInitialise>
    5094:	86 ea       	ldi	r24, 0xA6	; 166
    5096:	97 e1       	ldi	r25, 0x17	; 23
    5098:	0e 94 d2 0c 	call	0x19a4	; 0x19a4 <vListInitialise>
    509c:	81 eb       	ldi	r24, 0xB1	; 177
    509e:	97 e1       	ldi	r25, 0x17	; 23
    50a0:	0e 94 d2 0c 	call	0x19a4	; 0x19a4 <vListInitialise>
    50a4:	8c e8       	ldi	r24, 0x8C	; 140
    50a6:	97 e1       	ldi	r25, 0x17	; 23
    50a8:	90 93 a3 17 	sts	0x17A3, r25	; 0x8017a3 <pxDelayedTaskList+0x1>
    50ac:	80 93 a2 17 	sts	0x17A2, r24	; 0x8017a2 <pxDelayedTaskList>
    50b0:	87 e9       	ldi	r24, 0x97	; 151
    50b2:	97 e1       	ldi	r25, 0x17	; 23
    50b4:	90 93 a5 17 	sts	0x17A5, r25	; 0x8017a5 <pxOverflowDelayedTaskList+0x1>
    50b8:	80 93 a4 17 	sts	0x17A4, r24	; 0x8017a4 <pxOverflowDelayedTaskList>
    50bc:	00 00       	nop
    50be:	0f 90       	pop	r0
    50c0:	df 91       	pop	r29
    50c2:	cf 91       	pop	r28
    50c4:	08 95       	ret

000050c6 <prvCheckTasksWaitingTermination>:
    50c6:	cf 93       	push	r28
    50c8:	df 93       	push	r29
    50ca:	1f 92       	push	r1
    50cc:	1f 92       	push	r1
    50ce:	cd b7       	in	r28, 0x3d	; 61
    50d0:	de b7       	in	r29, 0x3e	; 62
    50d2:	20 c0       	rjmp	.+64     	; 0x5114 <prvCheckTasksWaitingTermination+0x4e>
    50d4:	0f b6       	in	r0, 0x3f	; 63
    50d6:	f8 94       	cli
    50d8:	0f 92       	push	r0
    50da:	80 91 b8 17 	lds	r24, 0x17B8	; 0x8017b8 <xTasksWaitingTermination+0x7>
    50de:	90 91 b9 17 	lds	r25, 0x17B9	; 0x8017b9 <xTasksWaitingTermination+0x8>
    50e2:	fc 01       	movw	r30, r24
    50e4:	80 85       	ldd	r24, Z+8	; 0x08
    50e6:	91 85       	ldd	r25, Z+9	; 0x09
    50e8:	9a 83       	std	Y+2, r25	; 0x02
    50ea:	89 83       	std	Y+1, r24	; 0x01
    50ec:	89 81       	ldd	r24, Y+1	; 0x01
    50ee:	9a 81       	ldd	r25, Y+2	; 0x02
    50f0:	02 96       	adiw	r24, 0x02	; 2
    50f2:	0e 94 a6 0d 	call	0x1b4c	; 0x1b4c <uxListRemove>
    50f6:	80 91 bd 17 	lds	r24, 0x17BD	; 0x8017bd <uxCurrentNumberOfTasks>
    50fa:	81 50       	subi	r24, 0x01	; 1
    50fc:	80 93 bd 17 	sts	0x17BD, r24	; 0x8017bd <uxCurrentNumberOfTasks>
    5100:	80 91 bc 17 	lds	r24, 0x17BC	; 0x8017bc <uxDeletedTasksWaitingCleanUp>
    5104:	81 50       	subi	r24, 0x01	; 1
    5106:	80 93 bc 17 	sts	0x17BC, r24	; 0x8017bc <uxDeletedTasksWaitingCleanUp>
    510a:	0f 90       	pop	r0
    510c:	0f be       	out	0x3f, r0	; 63
    510e:	89 81       	ldd	r24, Y+1	; 0x01
    5110:	9a 81       	ldd	r25, Y+2	; 0x02
    5112:	0a d0       	rcall	.+20     	; 0x5128 <prvDeleteTCB>
    5114:	80 91 bc 17 	lds	r24, 0x17BC	; 0x8017bc <uxDeletedTasksWaitingCleanUp>
    5118:	88 23       	and	r24, r24
    511a:	e1 f6       	brne	.-72     	; 0x50d4 <prvCheckTasksWaitingTermination+0xe>
    511c:	00 00       	nop
    511e:	0f 90       	pop	r0
    5120:	0f 90       	pop	r0
    5122:	df 91       	pop	r29
    5124:	cf 91       	pop	r28
    5126:	08 95       	ret

00005128 <prvDeleteTCB>:
    5128:	cf 93       	push	r28
    512a:	df 93       	push	r29
    512c:	1f 92       	push	r1
    512e:	1f 92       	push	r1
    5130:	cd b7       	in	r28, 0x3d	; 61
    5132:	de b7       	in	r29, 0x3e	; 62
    5134:	9a 83       	std	Y+2, r25	; 0x02
    5136:	89 83       	std	Y+1, r24	; 0x01
    5138:	89 81       	ldd	r24, Y+1	; 0x01
    513a:	9a 81       	ldd	r25, Y+2	; 0x02
    513c:	fc 01       	movw	r30, r24
    513e:	83 8d       	ldd	r24, Z+27	; 0x1b
    5140:	94 8d       	ldd	r25, Z+28	; 0x1c
    5142:	0e 94 2f 0b 	call	0x165e	; 0x165e <vPortFree>
    5146:	89 81       	ldd	r24, Y+1	; 0x01
    5148:	9a 81       	ldd	r25, Y+2	; 0x02
    514a:	0e 94 2f 0b 	call	0x165e	; 0x165e <vPortFree>
    514e:	00 00       	nop
    5150:	0f 90       	pop	r0
    5152:	0f 90       	pop	r0
    5154:	df 91       	pop	r29
    5156:	cf 91       	pop	r28
    5158:	08 95       	ret

0000515a <prvResetNextTaskUnblockTime>:
    515a:	cf 93       	push	r28
    515c:	df 93       	push	r29
    515e:	cd b7       	in	r28, 0x3d	; 61
    5160:	de b7       	in	r29, 0x3e	; 62
    5162:	80 91 a2 17 	lds	r24, 0x17A2	; 0x8017a2 <pxDelayedTaskList>
    5166:	90 91 a3 17 	lds	r25, 0x17A3	; 0x8017a3 <pxDelayedTaskList+0x1>
    516a:	fc 01       	movw	r30, r24
    516c:	80 81       	ld	r24, Z
    516e:	88 23       	and	r24, r24
    5170:	61 f4       	brne	.+24     	; 0x518a <prvResetNextTaskUnblockTime+0x30>
    5172:	8f ef       	ldi	r24, 0xFF	; 255
    5174:	9f ef       	ldi	r25, 0xFF	; 255
    5176:	dc 01       	movw	r26, r24
    5178:	80 93 cb 17 	sts	0x17CB, r24	; 0x8017cb <xNextTaskUnblockTime>
    517c:	90 93 cc 17 	sts	0x17CC, r25	; 0x8017cc <xNextTaskUnblockTime+0x1>
    5180:	a0 93 cd 17 	sts	0x17CD, r26	; 0x8017cd <xNextTaskUnblockTime+0x2>
    5184:	b0 93 ce 17 	sts	0x17CE, r27	; 0x8017ce <xNextTaskUnblockTime+0x3>
    5188:	14 c0       	rjmp	.+40     	; 0x51b2 <prvResetNextTaskUnblockTime+0x58>
    518a:	80 91 a2 17 	lds	r24, 0x17A2	; 0x8017a2 <pxDelayedTaskList>
    518e:	90 91 a3 17 	lds	r25, 0x17A3	; 0x8017a3 <pxDelayedTaskList+0x1>
    5192:	fc 01       	movw	r30, r24
    5194:	87 81       	ldd	r24, Z+7	; 0x07
    5196:	90 85       	ldd	r25, Z+8	; 0x08
    5198:	fc 01       	movw	r30, r24
    519a:	80 81       	ld	r24, Z
    519c:	91 81       	ldd	r25, Z+1	; 0x01
    519e:	a2 81       	ldd	r26, Z+2	; 0x02
    51a0:	b3 81       	ldd	r27, Z+3	; 0x03
    51a2:	80 93 cb 17 	sts	0x17CB, r24	; 0x8017cb <xNextTaskUnblockTime>
    51a6:	90 93 cc 17 	sts	0x17CC, r25	; 0x8017cc <xNextTaskUnblockTime+0x1>
    51aa:	a0 93 cd 17 	sts	0x17CD, r26	; 0x8017cd <xNextTaskUnblockTime+0x2>
    51ae:	b0 93 ce 17 	sts	0x17CE, r27	; 0x8017ce <xNextTaskUnblockTime+0x3>
    51b2:	00 00       	nop
    51b4:	df 91       	pop	r29
    51b6:	cf 91       	pop	r28
    51b8:	08 95       	ret

000051ba <xTaskGetCurrentTaskHandle>:
    51ba:	cf 93       	push	r28
    51bc:	df 93       	push	r29
    51be:	1f 92       	push	r1
    51c0:	1f 92       	push	r1
    51c2:	cd b7       	in	r28, 0x3d	; 61
    51c4:	de b7       	in	r29, 0x3e	; 62
    51c6:	80 91 1c 17 	lds	r24, 0x171C	; 0x80171c <pxCurrentTCB>
    51ca:	90 91 1d 17 	lds	r25, 0x171D	; 0x80171d <pxCurrentTCB+0x1>
    51ce:	9a 83       	std	Y+2, r25	; 0x02
    51d0:	89 83       	std	Y+1, r24	; 0x01
    51d2:	89 81       	ldd	r24, Y+1	; 0x01
    51d4:	9a 81       	ldd	r25, Y+2	; 0x02
    51d6:	0f 90       	pop	r0
    51d8:	0f 90       	pop	r0
    51da:	df 91       	pop	r29
    51dc:	cf 91       	pop	r28
    51de:	08 95       	ret

000051e0 <xTaskGetSchedulerState>:
    51e0:	cf 93       	push	r28
    51e2:	df 93       	push	r29
    51e4:	1f 92       	push	r1
    51e6:	cd b7       	in	r28, 0x3d	; 61
    51e8:	de b7       	in	r29, 0x3e	; 62
    51ea:	80 91 c3 17 	lds	r24, 0x17C3	; 0x8017c3 <xSchedulerRunning>
    51ee:	88 23       	and	r24, r24
    51f0:	19 f4       	brne	.+6      	; 0x51f8 <xTaskGetSchedulerState+0x18>
    51f2:	81 e0       	ldi	r24, 0x01	; 1
    51f4:	89 83       	std	Y+1, r24	; 0x01
    51f6:	08 c0       	rjmp	.+16     	; 0x5208 <xTaskGetSchedulerState+0x28>
    51f8:	80 91 d1 17 	lds	r24, 0x17D1	; 0x8017d1 <uxSchedulerSuspended>
    51fc:	88 23       	and	r24, r24
    51fe:	19 f4       	brne	.+6      	; 0x5206 <xTaskGetSchedulerState+0x26>
    5200:	82 e0       	ldi	r24, 0x02	; 2
    5202:	89 83       	std	Y+1, r24	; 0x01
    5204:	01 c0       	rjmp	.+2      	; 0x5208 <xTaskGetSchedulerState+0x28>
    5206:	19 82       	std	Y+1, r1	; 0x01
    5208:	89 81       	ldd	r24, Y+1	; 0x01
    520a:	0f 90       	pop	r0
    520c:	df 91       	pop	r29
    520e:	cf 91       	pop	r28
    5210:	08 95       	ret

00005212 <xTaskPriorityInherit>:
    5212:	ef 92       	push	r14
    5214:	ff 92       	push	r15
    5216:	0f 93       	push	r16
    5218:	1f 93       	push	r17
    521a:	cf 93       	push	r28
    521c:	df 93       	push	r29
    521e:	cd b7       	in	r28, 0x3d	; 61
    5220:	de b7       	in	r29, 0x3e	; 62
    5222:	27 97       	sbiw	r28, 0x07	; 7
    5224:	0f b6       	in	r0, 0x3f	; 63
    5226:	f8 94       	cli
    5228:	de bf       	out	0x3e, r29	; 62
    522a:	0f be       	out	0x3f, r0	; 63
    522c:	cd bf       	out	0x3d, r28	; 61
    522e:	9f 83       	std	Y+7, r25	; 0x07
    5230:	8e 83       	std	Y+6, r24	; 0x06
    5232:	8e 81       	ldd	r24, Y+6	; 0x06
    5234:	9f 81       	ldd	r25, Y+7	; 0x07
    5236:	9b 83       	std	Y+3, r25	; 0x03
    5238:	8a 83       	std	Y+2, r24	; 0x02
    523a:	19 82       	std	Y+1, r1	; 0x01
    523c:	8e 81       	ldd	r24, Y+6	; 0x06
    523e:	9f 81       	ldd	r25, Y+7	; 0x07
    5240:	89 2b       	or	r24, r25
    5242:	09 f4       	brne	.+2      	; 0x5246 <xTaskPriorityInherit+0x34>
    5244:	ee c0       	rjmp	.+476    	; 0x5422 <xTaskPriorityInherit+0x210>
    5246:	8a 81       	ldd	r24, Y+2	; 0x02
    5248:	9b 81       	ldd	r25, Y+3	; 0x03
    524a:	fc 01       	movw	r30, r24
    524c:	22 8d       	ldd	r18, Z+26	; 0x1a
    524e:	80 91 1c 17 	lds	r24, 0x171C	; 0x80171c <pxCurrentTCB>
    5252:	90 91 1d 17 	lds	r25, 0x171D	; 0x80171d <pxCurrentTCB+0x1>
    5256:	fc 01       	movw	r30, r24
    5258:	82 8d       	ldd	r24, Z+26	; 0x1a
    525a:	28 17       	cp	r18, r24
    525c:	08 f0       	brcs	.+2      	; 0x5260 <xTaskPriorityInherit+0x4e>
    525e:	d3 c0       	rjmp	.+422    	; 0x5406 <xTaskPriorityInherit+0x1f4>
    5260:	8a 81       	ldd	r24, Y+2	; 0x02
    5262:	9b 81       	ldd	r25, Y+3	; 0x03
    5264:	fc 01       	movw	r30, r24
    5266:	86 85       	ldd	r24, Z+14	; 0x0e
    5268:	97 85       	ldd	r25, Z+15	; 0x0f
    526a:	a0 89       	ldd	r26, Z+16	; 0x10
    526c:	b1 89       	ldd	r27, Z+17	; 0x11
    526e:	bb 23       	and	r27, r27
    5270:	ec f0       	brlt	.+58     	; 0x52ac <xTaskPriorityInherit+0x9a>
    5272:	80 91 1c 17 	lds	r24, 0x171C	; 0x80171c <pxCurrentTCB>
    5276:	90 91 1d 17 	lds	r25, 0x171D	; 0x80171d <pxCurrentTCB+0x1>
    527a:	fc 01       	movw	r30, r24
    527c:	82 8d       	ldd	r24, Z+26	; 0x1a
    527e:	88 2f       	mov	r24, r24
    5280:	90 e0       	ldi	r25, 0x00	; 0
    5282:	a0 e0       	ldi	r26, 0x00	; 0
    5284:	b0 e0       	ldi	r27, 0x00	; 0
    5286:	2a e0       	ldi	r18, 0x0A	; 10
    5288:	30 e0       	ldi	r19, 0x00	; 0
    528a:	40 e0       	ldi	r20, 0x00	; 0
    528c:	50 e0       	ldi	r21, 0x00	; 0
    528e:	79 01       	movw	r14, r18
    5290:	8a 01       	movw	r16, r20
    5292:	e8 1a       	sub	r14, r24
    5294:	f9 0a       	sbc	r15, r25
    5296:	0a 0b       	sbc	r16, r26
    5298:	1b 0b       	sbc	r17, r27
    529a:	d8 01       	movw	r26, r16
    529c:	c7 01       	movw	r24, r14
    529e:	2a 81       	ldd	r18, Y+2	; 0x02
    52a0:	3b 81       	ldd	r19, Y+3	; 0x03
    52a2:	f9 01       	movw	r30, r18
    52a4:	86 87       	std	Z+14, r24	; 0x0e
    52a6:	97 87       	std	Z+15, r25	; 0x0f
    52a8:	a0 8b       	std	Z+16, r26	; 0x10
    52aa:	b1 8b       	std	Z+17, r27	; 0x11
    52ac:	8a 81       	ldd	r24, Y+2	; 0x02
    52ae:	9b 81       	ldd	r25, Y+3	; 0x03
    52b0:	fc 01       	movw	r30, r24
    52b2:	24 85       	ldd	r18, Z+12	; 0x0c
    52b4:	35 85       	ldd	r19, Z+13	; 0x0d
    52b6:	8a 81       	ldd	r24, Y+2	; 0x02
    52b8:	9b 81       	ldd	r25, Y+3	; 0x03
    52ba:	fc 01       	movw	r30, r24
    52bc:	82 8d       	ldd	r24, Z+26	; 0x1a
    52be:	48 2f       	mov	r20, r24
    52c0:	50 e0       	ldi	r21, 0x00	; 0
    52c2:	6b e0       	ldi	r22, 0x0B	; 11
    52c4:	64 9f       	mul	r22, r20
    52c6:	c0 01       	movw	r24, r0
    52c8:	65 9f       	mul	r22, r21
    52ca:	90 0d       	add	r25, r0
    52cc:	11 24       	eor	r1, r1
    52ce:	82 5e       	subi	r24, 0xE2	; 226
    52d0:	98 4e       	sbci	r25, 0xE8	; 232
    52d2:	28 17       	cp	r18, r24
    52d4:	39 07       	cpc	r19, r25
    52d6:	09 f0       	breq	.+2      	; 0x52da <xTaskPriorityInherit+0xc8>
    52d8:	89 c0       	rjmp	.+274    	; 0x53ec <xTaskPriorityInherit+0x1da>
    52da:	8a 81       	ldd	r24, Y+2	; 0x02
    52dc:	9b 81       	ldd	r25, Y+3	; 0x03
    52de:	02 96       	adiw	r24, 0x02	; 2
    52e0:	0e 94 a6 0d 	call	0x1b4c	; 0x1b4c <uxListRemove>
    52e4:	80 91 1c 17 	lds	r24, 0x171C	; 0x80171c <pxCurrentTCB>
    52e8:	90 91 1d 17 	lds	r25, 0x171D	; 0x80171d <pxCurrentTCB+0x1>
    52ec:	fc 01       	movw	r30, r24
    52ee:	22 8d       	ldd	r18, Z+26	; 0x1a
    52f0:	8a 81       	ldd	r24, Y+2	; 0x02
    52f2:	9b 81       	ldd	r25, Y+3	; 0x03
    52f4:	fc 01       	movw	r30, r24
    52f6:	22 8f       	std	Z+26, r18	; 0x1a
    52f8:	8a 81       	ldd	r24, Y+2	; 0x02
    52fa:	9b 81       	ldd	r25, Y+3	; 0x03
    52fc:	fc 01       	movw	r30, r24
    52fe:	92 8d       	ldd	r25, Z+26	; 0x1a
    5300:	80 91 c2 17 	lds	r24, 0x17C2	; 0x8017c2 <uxTopReadyPriority>
    5304:	89 17       	cp	r24, r25
    5306:	30 f4       	brcc	.+12     	; 0x5314 <xTaskPriorityInherit+0x102>
    5308:	8a 81       	ldd	r24, Y+2	; 0x02
    530a:	9b 81       	ldd	r25, Y+3	; 0x03
    530c:	fc 01       	movw	r30, r24
    530e:	82 8d       	ldd	r24, Z+26	; 0x1a
    5310:	80 93 c2 17 	sts	0x17C2, r24	; 0x8017c2 <uxTopReadyPriority>
    5314:	8a 81       	ldd	r24, Y+2	; 0x02
    5316:	9b 81       	ldd	r25, Y+3	; 0x03
    5318:	fc 01       	movw	r30, r24
    531a:	82 8d       	ldd	r24, Z+26	; 0x1a
    531c:	28 2f       	mov	r18, r24
    531e:	30 e0       	ldi	r19, 0x00	; 0
    5320:	4b e0       	ldi	r20, 0x0B	; 11
    5322:	42 9f       	mul	r20, r18
    5324:	c0 01       	movw	r24, r0
    5326:	43 9f       	mul	r20, r19
    5328:	90 0d       	add	r25, r0
    532a:	11 24       	eor	r1, r1
    532c:	81 5e       	subi	r24, 0xE1	; 225
    532e:	98 4e       	sbci	r25, 0xE8	; 232
    5330:	fc 01       	movw	r30, r24
    5332:	80 81       	ld	r24, Z
    5334:	91 81       	ldd	r25, Z+1	; 0x01
    5336:	9d 83       	std	Y+5, r25	; 0x05
    5338:	8c 83       	std	Y+4, r24	; 0x04
    533a:	8a 81       	ldd	r24, Y+2	; 0x02
    533c:	9b 81       	ldd	r25, Y+3	; 0x03
    533e:	2c 81       	ldd	r18, Y+4	; 0x04
    5340:	3d 81       	ldd	r19, Y+5	; 0x05
    5342:	fc 01       	movw	r30, r24
    5344:	37 83       	std	Z+7, r19	; 0x07
    5346:	26 83       	std	Z+6, r18	; 0x06
    5348:	8c 81       	ldd	r24, Y+4	; 0x04
    534a:	9d 81       	ldd	r25, Y+5	; 0x05
    534c:	fc 01       	movw	r30, r24
    534e:	26 81       	ldd	r18, Z+6	; 0x06
    5350:	37 81       	ldd	r19, Z+7	; 0x07
    5352:	8a 81       	ldd	r24, Y+2	; 0x02
    5354:	9b 81       	ldd	r25, Y+3	; 0x03
    5356:	fc 01       	movw	r30, r24
    5358:	31 87       	std	Z+9, r19	; 0x09
    535a:	20 87       	std	Z+8, r18	; 0x08
    535c:	8c 81       	ldd	r24, Y+4	; 0x04
    535e:	9d 81       	ldd	r25, Y+5	; 0x05
    5360:	fc 01       	movw	r30, r24
    5362:	86 81       	ldd	r24, Z+6	; 0x06
    5364:	97 81       	ldd	r25, Z+7	; 0x07
    5366:	2a 81       	ldd	r18, Y+2	; 0x02
    5368:	3b 81       	ldd	r19, Y+3	; 0x03
    536a:	2e 5f       	subi	r18, 0xFE	; 254
    536c:	3f 4f       	sbci	r19, 0xFF	; 255
    536e:	fc 01       	movw	r30, r24
    5370:	35 83       	std	Z+5, r19	; 0x05
    5372:	24 83       	std	Z+4, r18	; 0x04
    5374:	8a 81       	ldd	r24, Y+2	; 0x02
    5376:	9b 81       	ldd	r25, Y+3	; 0x03
    5378:	9c 01       	movw	r18, r24
    537a:	2e 5f       	subi	r18, 0xFE	; 254
    537c:	3f 4f       	sbci	r19, 0xFF	; 255
    537e:	8c 81       	ldd	r24, Y+4	; 0x04
    5380:	9d 81       	ldd	r25, Y+5	; 0x05
    5382:	fc 01       	movw	r30, r24
    5384:	37 83       	std	Z+7, r19	; 0x07
    5386:	26 83       	std	Z+6, r18	; 0x06
    5388:	8a 81       	ldd	r24, Y+2	; 0x02
    538a:	9b 81       	ldd	r25, Y+3	; 0x03
    538c:	fc 01       	movw	r30, r24
    538e:	82 8d       	ldd	r24, Z+26	; 0x1a
    5390:	28 2f       	mov	r18, r24
    5392:	30 e0       	ldi	r19, 0x00	; 0
    5394:	4b e0       	ldi	r20, 0x0B	; 11
    5396:	42 9f       	mul	r20, r18
    5398:	c0 01       	movw	r24, r0
    539a:	43 9f       	mul	r20, r19
    539c:	90 0d       	add	r25, r0
    539e:	11 24       	eor	r1, r1
    53a0:	9c 01       	movw	r18, r24
    53a2:	22 5e       	subi	r18, 0xE2	; 226
    53a4:	38 4e       	sbci	r19, 0xE8	; 232
    53a6:	8a 81       	ldd	r24, Y+2	; 0x02
    53a8:	9b 81       	ldd	r25, Y+3	; 0x03
    53aa:	fc 01       	movw	r30, r24
    53ac:	35 87       	std	Z+13, r19	; 0x0d
    53ae:	24 87       	std	Z+12, r18	; 0x0c
    53b0:	8a 81       	ldd	r24, Y+2	; 0x02
    53b2:	9b 81       	ldd	r25, Y+3	; 0x03
    53b4:	fc 01       	movw	r30, r24
    53b6:	82 8d       	ldd	r24, Z+26	; 0x1a
    53b8:	88 2f       	mov	r24, r24
    53ba:	90 e0       	ldi	r25, 0x00	; 0
    53bc:	4b e0       	ldi	r20, 0x0B	; 11
    53be:	48 9f       	mul	r20, r24
    53c0:	90 01       	movw	r18, r0
    53c2:	49 9f       	mul	r20, r25
    53c4:	30 0d       	add	r19, r0
    53c6:	11 24       	eor	r1, r1
    53c8:	22 5e       	subi	r18, 0xE2	; 226
    53ca:	38 4e       	sbci	r19, 0xE8	; 232
    53cc:	f9 01       	movw	r30, r18
    53ce:	20 81       	ld	r18, Z
    53d0:	41 e0       	ldi	r20, 0x01	; 1
    53d2:	42 0f       	add	r20, r18
    53d4:	5b e0       	ldi	r21, 0x0B	; 11
    53d6:	58 9f       	mul	r21, r24
    53d8:	90 01       	movw	r18, r0
    53da:	59 9f       	mul	r21, r25
    53dc:	30 0d       	add	r19, r0
    53de:	11 24       	eor	r1, r1
    53e0:	c9 01       	movw	r24, r18
    53e2:	82 5e       	subi	r24, 0xE2	; 226
    53e4:	98 4e       	sbci	r25, 0xE8	; 232
    53e6:	fc 01       	movw	r30, r24
    53e8:	40 83       	st	Z, r20
    53ea:	0a c0       	rjmp	.+20     	; 0x5400 <xTaskPriorityInherit+0x1ee>
    53ec:	80 91 1c 17 	lds	r24, 0x171C	; 0x80171c <pxCurrentTCB>
    53f0:	90 91 1d 17 	lds	r25, 0x171D	; 0x80171d <pxCurrentTCB+0x1>
    53f4:	fc 01       	movw	r30, r24
    53f6:	22 8d       	ldd	r18, Z+26	; 0x1a
    53f8:	8a 81       	ldd	r24, Y+2	; 0x02
    53fa:	9b 81       	ldd	r25, Y+3	; 0x03
    53fc:	fc 01       	movw	r30, r24
    53fe:	22 8f       	std	Z+26, r18	; 0x1a
    5400:	81 e0       	ldi	r24, 0x01	; 1
    5402:	89 83       	std	Y+1, r24	; 0x01
    5404:	0e c0       	rjmp	.+28     	; 0x5422 <xTaskPriorityInherit+0x210>
    5406:	8a 81       	ldd	r24, Y+2	; 0x02
    5408:	9b 81       	ldd	r25, Y+3	; 0x03
    540a:	fc 01       	movw	r30, r24
    540c:	25 a5       	ldd	r18, Z+45	; 0x2d
    540e:	80 91 1c 17 	lds	r24, 0x171C	; 0x80171c <pxCurrentTCB>
    5412:	90 91 1d 17 	lds	r25, 0x171D	; 0x80171d <pxCurrentTCB+0x1>
    5416:	fc 01       	movw	r30, r24
    5418:	82 8d       	ldd	r24, Z+26	; 0x1a
    541a:	28 17       	cp	r18, r24
    541c:	10 f4       	brcc	.+4      	; 0x5422 <xTaskPriorityInherit+0x210>
    541e:	81 e0       	ldi	r24, 0x01	; 1
    5420:	89 83       	std	Y+1, r24	; 0x01
    5422:	89 81       	ldd	r24, Y+1	; 0x01
    5424:	27 96       	adiw	r28, 0x07	; 7
    5426:	0f b6       	in	r0, 0x3f	; 63
    5428:	f8 94       	cli
    542a:	de bf       	out	0x3e, r29	; 62
    542c:	0f be       	out	0x3f, r0	; 63
    542e:	cd bf       	out	0x3d, r28	; 61
    5430:	df 91       	pop	r29
    5432:	cf 91       	pop	r28
    5434:	1f 91       	pop	r17
    5436:	0f 91       	pop	r16
    5438:	ff 90       	pop	r15
    543a:	ef 90       	pop	r14
    543c:	08 95       	ret

0000543e <xTaskPriorityDisinherit>:
    543e:	ef 92       	push	r14
    5440:	ff 92       	push	r15
    5442:	0f 93       	push	r16
    5444:	1f 93       	push	r17
    5446:	cf 93       	push	r28
    5448:	df 93       	push	r29
    544a:	cd b7       	in	r28, 0x3d	; 61
    544c:	de b7       	in	r29, 0x3e	; 62
    544e:	27 97       	sbiw	r28, 0x07	; 7
    5450:	0f b6       	in	r0, 0x3f	; 63
    5452:	f8 94       	cli
    5454:	de bf       	out	0x3e, r29	; 62
    5456:	0f be       	out	0x3f, r0	; 63
    5458:	cd bf       	out	0x3d, r28	; 61
    545a:	9f 83       	std	Y+7, r25	; 0x07
    545c:	8e 83       	std	Y+6, r24	; 0x06
    545e:	8e 81       	ldd	r24, Y+6	; 0x06
    5460:	9f 81       	ldd	r25, Y+7	; 0x07
    5462:	9b 83       	std	Y+3, r25	; 0x03
    5464:	8a 83       	std	Y+2, r24	; 0x02
    5466:	19 82       	std	Y+1, r1	; 0x01
    5468:	8e 81       	ldd	r24, Y+6	; 0x06
    546a:	9f 81       	ldd	r25, Y+7	; 0x07
    546c:	89 2b       	or	r24, r25
    546e:	09 f4       	brne	.+2      	; 0x5472 <xTaskPriorityDisinherit+0x34>
    5470:	bf c0       	rjmp	.+382    	; 0x55f0 <xTaskPriorityDisinherit+0x1b2>
    5472:	8a 81       	ldd	r24, Y+2	; 0x02
    5474:	9b 81       	ldd	r25, Y+3	; 0x03
    5476:	fc 01       	movw	r30, r24
    5478:	86 a5       	ldd	r24, Z+46	; 0x2e
    547a:	2f ef       	ldi	r18, 0xFF	; 255
    547c:	28 0f       	add	r18, r24
    547e:	8a 81       	ldd	r24, Y+2	; 0x02
    5480:	9b 81       	ldd	r25, Y+3	; 0x03
    5482:	fc 01       	movw	r30, r24
    5484:	26 a7       	std	Z+46, r18	; 0x2e
    5486:	8a 81       	ldd	r24, Y+2	; 0x02
    5488:	9b 81       	ldd	r25, Y+3	; 0x03
    548a:	fc 01       	movw	r30, r24
    548c:	22 8d       	ldd	r18, Z+26	; 0x1a
    548e:	8a 81       	ldd	r24, Y+2	; 0x02
    5490:	9b 81       	ldd	r25, Y+3	; 0x03
    5492:	fc 01       	movw	r30, r24
    5494:	85 a5       	ldd	r24, Z+45	; 0x2d
    5496:	28 17       	cp	r18, r24
    5498:	09 f4       	brne	.+2      	; 0x549c <xTaskPriorityDisinherit+0x5e>
    549a:	aa c0       	rjmp	.+340    	; 0x55f0 <xTaskPriorityDisinherit+0x1b2>
    549c:	8a 81       	ldd	r24, Y+2	; 0x02
    549e:	9b 81       	ldd	r25, Y+3	; 0x03
    54a0:	fc 01       	movw	r30, r24
    54a2:	86 a5       	ldd	r24, Z+46	; 0x2e
    54a4:	88 23       	and	r24, r24
    54a6:	09 f0       	breq	.+2      	; 0x54aa <xTaskPriorityDisinherit+0x6c>
    54a8:	a3 c0       	rjmp	.+326    	; 0x55f0 <xTaskPriorityDisinherit+0x1b2>
    54aa:	8a 81       	ldd	r24, Y+2	; 0x02
    54ac:	9b 81       	ldd	r25, Y+3	; 0x03
    54ae:	02 96       	adiw	r24, 0x02	; 2
    54b0:	0e 94 a6 0d 	call	0x1b4c	; 0x1b4c <uxListRemove>
    54b4:	8a 81       	ldd	r24, Y+2	; 0x02
    54b6:	9b 81       	ldd	r25, Y+3	; 0x03
    54b8:	fc 01       	movw	r30, r24
    54ba:	25 a5       	ldd	r18, Z+45	; 0x2d
    54bc:	8a 81       	ldd	r24, Y+2	; 0x02
    54be:	9b 81       	ldd	r25, Y+3	; 0x03
    54c0:	fc 01       	movw	r30, r24
    54c2:	22 8f       	std	Z+26, r18	; 0x1a
    54c4:	8a 81       	ldd	r24, Y+2	; 0x02
    54c6:	9b 81       	ldd	r25, Y+3	; 0x03
    54c8:	fc 01       	movw	r30, r24
    54ca:	82 8d       	ldd	r24, Z+26	; 0x1a
    54cc:	88 2f       	mov	r24, r24
    54ce:	90 e0       	ldi	r25, 0x00	; 0
    54d0:	a0 e0       	ldi	r26, 0x00	; 0
    54d2:	b0 e0       	ldi	r27, 0x00	; 0
    54d4:	2a e0       	ldi	r18, 0x0A	; 10
    54d6:	30 e0       	ldi	r19, 0x00	; 0
    54d8:	40 e0       	ldi	r20, 0x00	; 0
    54da:	50 e0       	ldi	r21, 0x00	; 0
    54dc:	79 01       	movw	r14, r18
    54de:	8a 01       	movw	r16, r20
    54e0:	e8 1a       	sub	r14, r24
    54e2:	f9 0a       	sbc	r15, r25
    54e4:	0a 0b       	sbc	r16, r26
    54e6:	1b 0b       	sbc	r17, r27
    54e8:	d8 01       	movw	r26, r16
    54ea:	c7 01       	movw	r24, r14
    54ec:	2a 81       	ldd	r18, Y+2	; 0x02
    54ee:	3b 81       	ldd	r19, Y+3	; 0x03
    54f0:	f9 01       	movw	r30, r18
    54f2:	86 87       	std	Z+14, r24	; 0x0e
    54f4:	97 87       	std	Z+15, r25	; 0x0f
    54f6:	a0 8b       	std	Z+16, r26	; 0x10
    54f8:	b1 8b       	std	Z+17, r27	; 0x11
    54fa:	8a 81       	ldd	r24, Y+2	; 0x02
    54fc:	9b 81       	ldd	r25, Y+3	; 0x03
    54fe:	fc 01       	movw	r30, r24
    5500:	92 8d       	ldd	r25, Z+26	; 0x1a
    5502:	80 91 c2 17 	lds	r24, 0x17C2	; 0x8017c2 <uxTopReadyPriority>
    5506:	89 17       	cp	r24, r25
    5508:	30 f4       	brcc	.+12     	; 0x5516 <xTaskPriorityDisinherit+0xd8>
    550a:	8a 81       	ldd	r24, Y+2	; 0x02
    550c:	9b 81       	ldd	r25, Y+3	; 0x03
    550e:	fc 01       	movw	r30, r24
    5510:	82 8d       	ldd	r24, Z+26	; 0x1a
    5512:	80 93 c2 17 	sts	0x17C2, r24	; 0x8017c2 <uxTopReadyPriority>
    5516:	8a 81       	ldd	r24, Y+2	; 0x02
    5518:	9b 81       	ldd	r25, Y+3	; 0x03
    551a:	fc 01       	movw	r30, r24
    551c:	82 8d       	ldd	r24, Z+26	; 0x1a
    551e:	28 2f       	mov	r18, r24
    5520:	30 e0       	ldi	r19, 0x00	; 0
    5522:	4b e0       	ldi	r20, 0x0B	; 11
    5524:	42 9f       	mul	r20, r18
    5526:	c0 01       	movw	r24, r0
    5528:	43 9f       	mul	r20, r19
    552a:	90 0d       	add	r25, r0
    552c:	11 24       	eor	r1, r1
    552e:	81 5e       	subi	r24, 0xE1	; 225
    5530:	98 4e       	sbci	r25, 0xE8	; 232
    5532:	fc 01       	movw	r30, r24
    5534:	80 81       	ld	r24, Z
    5536:	91 81       	ldd	r25, Z+1	; 0x01
    5538:	9d 83       	std	Y+5, r25	; 0x05
    553a:	8c 83       	std	Y+4, r24	; 0x04
    553c:	8a 81       	ldd	r24, Y+2	; 0x02
    553e:	9b 81       	ldd	r25, Y+3	; 0x03
    5540:	2c 81       	ldd	r18, Y+4	; 0x04
    5542:	3d 81       	ldd	r19, Y+5	; 0x05
    5544:	fc 01       	movw	r30, r24
    5546:	37 83       	std	Z+7, r19	; 0x07
    5548:	26 83       	std	Z+6, r18	; 0x06
    554a:	8c 81       	ldd	r24, Y+4	; 0x04
    554c:	9d 81       	ldd	r25, Y+5	; 0x05
    554e:	fc 01       	movw	r30, r24
    5550:	26 81       	ldd	r18, Z+6	; 0x06
    5552:	37 81       	ldd	r19, Z+7	; 0x07
    5554:	8a 81       	ldd	r24, Y+2	; 0x02
    5556:	9b 81       	ldd	r25, Y+3	; 0x03
    5558:	fc 01       	movw	r30, r24
    555a:	31 87       	std	Z+9, r19	; 0x09
    555c:	20 87       	std	Z+8, r18	; 0x08
    555e:	8c 81       	ldd	r24, Y+4	; 0x04
    5560:	9d 81       	ldd	r25, Y+5	; 0x05
    5562:	fc 01       	movw	r30, r24
    5564:	86 81       	ldd	r24, Z+6	; 0x06
    5566:	97 81       	ldd	r25, Z+7	; 0x07
    5568:	2a 81       	ldd	r18, Y+2	; 0x02
    556a:	3b 81       	ldd	r19, Y+3	; 0x03
    556c:	2e 5f       	subi	r18, 0xFE	; 254
    556e:	3f 4f       	sbci	r19, 0xFF	; 255
    5570:	fc 01       	movw	r30, r24
    5572:	35 83       	std	Z+5, r19	; 0x05
    5574:	24 83       	std	Z+4, r18	; 0x04
    5576:	8a 81       	ldd	r24, Y+2	; 0x02
    5578:	9b 81       	ldd	r25, Y+3	; 0x03
    557a:	9c 01       	movw	r18, r24
    557c:	2e 5f       	subi	r18, 0xFE	; 254
    557e:	3f 4f       	sbci	r19, 0xFF	; 255
    5580:	8c 81       	ldd	r24, Y+4	; 0x04
    5582:	9d 81       	ldd	r25, Y+5	; 0x05
    5584:	fc 01       	movw	r30, r24
    5586:	37 83       	std	Z+7, r19	; 0x07
    5588:	26 83       	std	Z+6, r18	; 0x06
    558a:	8a 81       	ldd	r24, Y+2	; 0x02
    558c:	9b 81       	ldd	r25, Y+3	; 0x03
    558e:	fc 01       	movw	r30, r24
    5590:	82 8d       	ldd	r24, Z+26	; 0x1a
    5592:	28 2f       	mov	r18, r24
    5594:	30 e0       	ldi	r19, 0x00	; 0
    5596:	4b e0       	ldi	r20, 0x0B	; 11
    5598:	42 9f       	mul	r20, r18
    559a:	c0 01       	movw	r24, r0
    559c:	43 9f       	mul	r20, r19
    559e:	90 0d       	add	r25, r0
    55a0:	11 24       	eor	r1, r1
    55a2:	9c 01       	movw	r18, r24
    55a4:	22 5e       	subi	r18, 0xE2	; 226
    55a6:	38 4e       	sbci	r19, 0xE8	; 232
    55a8:	8a 81       	ldd	r24, Y+2	; 0x02
    55aa:	9b 81       	ldd	r25, Y+3	; 0x03
    55ac:	fc 01       	movw	r30, r24
    55ae:	35 87       	std	Z+13, r19	; 0x0d
    55b0:	24 87       	std	Z+12, r18	; 0x0c
    55b2:	8a 81       	ldd	r24, Y+2	; 0x02
    55b4:	9b 81       	ldd	r25, Y+3	; 0x03
    55b6:	fc 01       	movw	r30, r24
    55b8:	82 8d       	ldd	r24, Z+26	; 0x1a
    55ba:	88 2f       	mov	r24, r24
    55bc:	90 e0       	ldi	r25, 0x00	; 0
    55be:	4b e0       	ldi	r20, 0x0B	; 11
    55c0:	48 9f       	mul	r20, r24
    55c2:	90 01       	movw	r18, r0
    55c4:	49 9f       	mul	r20, r25
    55c6:	30 0d       	add	r19, r0
    55c8:	11 24       	eor	r1, r1
    55ca:	22 5e       	subi	r18, 0xE2	; 226
    55cc:	38 4e       	sbci	r19, 0xE8	; 232
    55ce:	f9 01       	movw	r30, r18
    55d0:	20 81       	ld	r18, Z
    55d2:	41 e0       	ldi	r20, 0x01	; 1
    55d4:	42 0f       	add	r20, r18
    55d6:	5b e0       	ldi	r21, 0x0B	; 11
    55d8:	58 9f       	mul	r21, r24
    55da:	90 01       	movw	r18, r0
    55dc:	59 9f       	mul	r21, r25
    55de:	30 0d       	add	r19, r0
    55e0:	11 24       	eor	r1, r1
    55e2:	c9 01       	movw	r24, r18
    55e4:	82 5e       	subi	r24, 0xE2	; 226
    55e6:	98 4e       	sbci	r25, 0xE8	; 232
    55e8:	fc 01       	movw	r30, r24
    55ea:	40 83       	st	Z, r20
    55ec:	81 e0       	ldi	r24, 0x01	; 1
    55ee:	89 83       	std	Y+1, r24	; 0x01
    55f0:	89 81       	ldd	r24, Y+1	; 0x01
    55f2:	27 96       	adiw	r28, 0x07	; 7
    55f4:	0f b6       	in	r0, 0x3f	; 63
    55f6:	f8 94       	cli
    55f8:	de bf       	out	0x3e, r29	; 62
    55fa:	0f be       	out	0x3f, r0	; 63
    55fc:	cd bf       	out	0x3d, r28	; 61
    55fe:	df 91       	pop	r29
    5600:	cf 91       	pop	r28
    5602:	1f 91       	pop	r17
    5604:	0f 91       	pop	r16
    5606:	ff 90       	pop	r15
    5608:	ef 90       	pop	r14
    560a:	08 95       	ret

0000560c <vTaskPriorityDisinheritAfterTimeout>:
    560c:	ef 92       	push	r14
    560e:	ff 92       	push	r15
    5610:	0f 93       	push	r16
    5612:	1f 93       	push	r17
    5614:	cf 93       	push	r28
    5616:	df 93       	push	r29
    5618:	cd b7       	in	r28, 0x3d	; 61
    561a:	de b7       	in	r29, 0x3e	; 62
    561c:	2a 97       	sbiw	r28, 0x0a	; 10
    561e:	0f b6       	in	r0, 0x3f	; 63
    5620:	f8 94       	cli
    5622:	de bf       	out	0x3e, r29	; 62
    5624:	0f be       	out	0x3f, r0	; 63
    5626:	cd bf       	out	0x3d, r28	; 61
    5628:	99 87       	std	Y+9, r25	; 0x09
    562a:	88 87       	std	Y+8, r24	; 0x08
    562c:	6a 87       	std	Y+10, r22	; 0x0a
    562e:	88 85       	ldd	r24, Y+8	; 0x08
    5630:	99 85       	ldd	r25, Y+9	; 0x09
    5632:	9b 83       	std	Y+3, r25	; 0x03
    5634:	8a 83       	std	Y+2, r24	; 0x02
    5636:	81 e0       	ldi	r24, 0x01	; 1
    5638:	8c 83       	std	Y+4, r24	; 0x04
    563a:	88 85       	ldd	r24, Y+8	; 0x08
    563c:	99 85       	ldd	r25, Y+9	; 0x09
    563e:	89 2b       	or	r24, r25
    5640:	09 f4       	brne	.+2      	; 0x5644 <vTaskPriorityDisinheritAfterTimeout+0x38>
    5642:	dc c0       	rjmp	.+440    	; 0x57fc <vTaskPriorityDisinheritAfterTimeout+0x1f0>
    5644:	8a 81       	ldd	r24, Y+2	; 0x02
    5646:	9b 81       	ldd	r25, Y+3	; 0x03
    5648:	fc 01       	movw	r30, r24
    564a:	95 a5       	ldd	r25, Z+45	; 0x2d
    564c:	8a 85       	ldd	r24, Y+10	; 0x0a
    564e:	98 17       	cp	r25, r24
    5650:	18 f4       	brcc	.+6      	; 0x5658 <vTaskPriorityDisinheritAfterTimeout+0x4c>
    5652:	8a 85       	ldd	r24, Y+10	; 0x0a
    5654:	89 83       	std	Y+1, r24	; 0x01
    5656:	05 c0       	rjmp	.+10     	; 0x5662 <vTaskPriorityDisinheritAfterTimeout+0x56>
    5658:	8a 81       	ldd	r24, Y+2	; 0x02
    565a:	9b 81       	ldd	r25, Y+3	; 0x03
    565c:	fc 01       	movw	r30, r24
    565e:	85 a5       	ldd	r24, Z+45	; 0x2d
    5660:	89 83       	std	Y+1, r24	; 0x01
    5662:	8a 81       	ldd	r24, Y+2	; 0x02
    5664:	9b 81       	ldd	r25, Y+3	; 0x03
    5666:	fc 01       	movw	r30, r24
    5668:	92 8d       	ldd	r25, Z+26	; 0x1a
    566a:	89 81       	ldd	r24, Y+1	; 0x01
    566c:	98 17       	cp	r25, r24
    566e:	09 f4       	brne	.+2      	; 0x5672 <vTaskPriorityDisinheritAfterTimeout+0x66>
    5670:	c5 c0       	rjmp	.+394    	; 0x57fc <vTaskPriorityDisinheritAfterTimeout+0x1f0>
    5672:	8a 81       	ldd	r24, Y+2	; 0x02
    5674:	9b 81       	ldd	r25, Y+3	; 0x03
    5676:	fc 01       	movw	r30, r24
    5678:	96 a5       	ldd	r25, Z+46	; 0x2e
    567a:	8c 81       	ldd	r24, Y+4	; 0x04
    567c:	98 17       	cp	r25, r24
    567e:	09 f0       	breq	.+2      	; 0x5682 <vTaskPriorityDisinheritAfterTimeout+0x76>
    5680:	bd c0       	rjmp	.+378    	; 0x57fc <vTaskPriorityDisinheritAfterTimeout+0x1f0>
    5682:	8a 81       	ldd	r24, Y+2	; 0x02
    5684:	9b 81       	ldd	r25, Y+3	; 0x03
    5686:	fc 01       	movw	r30, r24
    5688:	82 8d       	ldd	r24, Z+26	; 0x1a
    568a:	8d 83       	std	Y+5, r24	; 0x05
    568c:	8a 81       	ldd	r24, Y+2	; 0x02
    568e:	9b 81       	ldd	r25, Y+3	; 0x03
    5690:	29 81       	ldd	r18, Y+1	; 0x01
    5692:	fc 01       	movw	r30, r24
    5694:	22 8f       	std	Z+26, r18	; 0x1a
    5696:	8a 81       	ldd	r24, Y+2	; 0x02
    5698:	9b 81       	ldd	r25, Y+3	; 0x03
    569a:	fc 01       	movw	r30, r24
    569c:	86 85       	ldd	r24, Z+14	; 0x0e
    569e:	97 85       	ldd	r25, Z+15	; 0x0f
    56a0:	a0 89       	ldd	r26, Z+16	; 0x10
    56a2:	b1 89       	ldd	r27, Z+17	; 0x11
    56a4:	bb 23       	and	r27, r27
    56a6:	c4 f0       	brlt	.+48     	; 0x56d8 <vTaskPriorityDisinheritAfterTimeout+0xcc>
    56a8:	89 81       	ldd	r24, Y+1	; 0x01
    56aa:	88 2f       	mov	r24, r24
    56ac:	90 e0       	ldi	r25, 0x00	; 0
    56ae:	a0 e0       	ldi	r26, 0x00	; 0
    56b0:	b0 e0       	ldi	r27, 0x00	; 0
    56b2:	2a e0       	ldi	r18, 0x0A	; 10
    56b4:	30 e0       	ldi	r19, 0x00	; 0
    56b6:	40 e0       	ldi	r20, 0x00	; 0
    56b8:	50 e0       	ldi	r21, 0x00	; 0
    56ba:	79 01       	movw	r14, r18
    56bc:	8a 01       	movw	r16, r20
    56be:	e8 1a       	sub	r14, r24
    56c0:	f9 0a       	sbc	r15, r25
    56c2:	0a 0b       	sbc	r16, r26
    56c4:	1b 0b       	sbc	r17, r27
    56c6:	d8 01       	movw	r26, r16
    56c8:	c7 01       	movw	r24, r14
    56ca:	2a 81       	ldd	r18, Y+2	; 0x02
    56cc:	3b 81       	ldd	r19, Y+3	; 0x03
    56ce:	f9 01       	movw	r30, r18
    56d0:	86 87       	std	Z+14, r24	; 0x0e
    56d2:	97 87       	std	Z+15, r25	; 0x0f
    56d4:	a0 8b       	std	Z+16, r26	; 0x10
    56d6:	b1 8b       	std	Z+17, r27	; 0x11
    56d8:	8a 81       	ldd	r24, Y+2	; 0x02
    56da:	9b 81       	ldd	r25, Y+3	; 0x03
    56dc:	fc 01       	movw	r30, r24
    56de:	24 85       	ldd	r18, Z+12	; 0x0c
    56e0:	35 85       	ldd	r19, Z+13	; 0x0d
    56e2:	8d 81       	ldd	r24, Y+5	; 0x05
    56e4:	48 2f       	mov	r20, r24
    56e6:	50 e0       	ldi	r21, 0x00	; 0
    56e8:	6b e0       	ldi	r22, 0x0B	; 11
    56ea:	64 9f       	mul	r22, r20
    56ec:	c0 01       	movw	r24, r0
    56ee:	65 9f       	mul	r22, r21
    56f0:	90 0d       	add	r25, r0
    56f2:	11 24       	eor	r1, r1
    56f4:	82 5e       	subi	r24, 0xE2	; 226
    56f6:	98 4e       	sbci	r25, 0xE8	; 232
    56f8:	28 17       	cp	r18, r24
    56fa:	39 07       	cpc	r19, r25
    56fc:	09 f0       	breq	.+2      	; 0x5700 <vTaskPriorityDisinheritAfterTimeout+0xf4>
    56fe:	7e c0       	rjmp	.+252    	; 0x57fc <vTaskPriorityDisinheritAfterTimeout+0x1f0>
    5700:	8a 81       	ldd	r24, Y+2	; 0x02
    5702:	9b 81       	ldd	r25, Y+3	; 0x03
    5704:	02 96       	adiw	r24, 0x02	; 2
    5706:	0e 94 a6 0d 	call	0x1b4c	; 0x1b4c <uxListRemove>
    570a:	8a 81       	ldd	r24, Y+2	; 0x02
    570c:	9b 81       	ldd	r25, Y+3	; 0x03
    570e:	fc 01       	movw	r30, r24
    5710:	92 8d       	ldd	r25, Z+26	; 0x1a
    5712:	80 91 c2 17 	lds	r24, 0x17C2	; 0x8017c2 <uxTopReadyPriority>
    5716:	89 17       	cp	r24, r25
    5718:	30 f4       	brcc	.+12     	; 0x5726 <vTaskPriorityDisinheritAfterTimeout+0x11a>
    571a:	8a 81       	ldd	r24, Y+2	; 0x02
    571c:	9b 81       	ldd	r25, Y+3	; 0x03
    571e:	fc 01       	movw	r30, r24
    5720:	82 8d       	ldd	r24, Z+26	; 0x1a
    5722:	80 93 c2 17 	sts	0x17C2, r24	; 0x8017c2 <uxTopReadyPriority>
    5726:	8a 81       	ldd	r24, Y+2	; 0x02
    5728:	9b 81       	ldd	r25, Y+3	; 0x03
    572a:	fc 01       	movw	r30, r24
    572c:	82 8d       	ldd	r24, Z+26	; 0x1a
    572e:	28 2f       	mov	r18, r24
    5730:	30 e0       	ldi	r19, 0x00	; 0
    5732:	4b e0       	ldi	r20, 0x0B	; 11
    5734:	42 9f       	mul	r20, r18
    5736:	c0 01       	movw	r24, r0
    5738:	43 9f       	mul	r20, r19
    573a:	90 0d       	add	r25, r0
    573c:	11 24       	eor	r1, r1
    573e:	81 5e       	subi	r24, 0xE1	; 225
    5740:	98 4e       	sbci	r25, 0xE8	; 232
    5742:	fc 01       	movw	r30, r24
    5744:	80 81       	ld	r24, Z
    5746:	91 81       	ldd	r25, Z+1	; 0x01
    5748:	9f 83       	std	Y+7, r25	; 0x07
    574a:	8e 83       	std	Y+6, r24	; 0x06
    574c:	8a 81       	ldd	r24, Y+2	; 0x02
    574e:	9b 81       	ldd	r25, Y+3	; 0x03
    5750:	2e 81       	ldd	r18, Y+6	; 0x06
    5752:	3f 81       	ldd	r19, Y+7	; 0x07
    5754:	fc 01       	movw	r30, r24
    5756:	37 83       	std	Z+7, r19	; 0x07
    5758:	26 83       	std	Z+6, r18	; 0x06
    575a:	8e 81       	ldd	r24, Y+6	; 0x06
    575c:	9f 81       	ldd	r25, Y+7	; 0x07
    575e:	fc 01       	movw	r30, r24
    5760:	26 81       	ldd	r18, Z+6	; 0x06
    5762:	37 81       	ldd	r19, Z+7	; 0x07
    5764:	8a 81       	ldd	r24, Y+2	; 0x02
    5766:	9b 81       	ldd	r25, Y+3	; 0x03
    5768:	fc 01       	movw	r30, r24
    576a:	31 87       	std	Z+9, r19	; 0x09
    576c:	20 87       	std	Z+8, r18	; 0x08
    576e:	8e 81       	ldd	r24, Y+6	; 0x06
    5770:	9f 81       	ldd	r25, Y+7	; 0x07
    5772:	fc 01       	movw	r30, r24
    5774:	86 81       	ldd	r24, Z+6	; 0x06
    5776:	97 81       	ldd	r25, Z+7	; 0x07
    5778:	2a 81       	ldd	r18, Y+2	; 0x02
    577a:	3b 81       	ldd	r19, Y+3	; 0x03
    577c:	2e 5f       	subi	r18, 0xFE	; 254
    577e:	3f 4f       	sbci	r19, 0xFF	; 255
    5780:	fc 01       	movw	r30, r24
    5782:	35 83       	std	Z+5, r19	; 0x05
    5784:	24 83       	std	Z+4, r18	; 0x04
    5786:	8a 81       	ldd	r24, Y+2	; 0x02
    5788:	9b 81       	ldd	r25, Y+3	; 0x03
    578a:	9c 01       	movw	r18, r24
    578c:	2e 5f       	subi	r18, 0xFE	; 254
    578e:	3f 4f       	sbci	r19, 0xFF	; 255
    5790:	8e 81       	ldd	r24, Y+6	; 0x06
    5792:	9f 81       	ldd	r25, Y+7	; 0x07
    5794:	fc 01       	movw	r30, r24
    5796:	37 83       	std	Z+7, r19	; 0x07
    5798:	26 83       	std	Z+6, r18	; 0x06
    579a:	8a 81       	ldd	r24, Y+2	; 0x02
    579c:	9b 81       	ldd	r25, Y+3	; 0x03
    579e:	fc 01       	movw	r30, r24
    57a0:	82 8d       	ldd	r24, Z+26	; 0x1a
    57a2:	28 2f       	mov	r18, r24
    57a4:	30 e0       	ldi	r19, 0x00	; 0
    57a6:	4b e0       	ldi	r20, 0x0B	; 11
    57a8:	42 9f       	mul	r20, r18
    57aa:	c0 01       	movw	r24, r0
    57ac:	43 9f       	mul	r20, r19
    57ae:	90 0d       	add	r25, r0
    57b0:	11 24       	eor	r1, r1
    57b2:	9c 01       	movw	r18, r24
    57b4:	22 5e       	subi	r18, 0xE2	; 226
    57b6:	38 4e       	sbci	r19, 0xE8	; 232
    57b8:	8a 81       	ldd	r24, Y+2	; 0x02
    57ba:	9b 81       	ldd	r25, Y+3	; 0x03
    57bc:	fc 01       	movw	r30, r24
    57be:	35 87       	std	Z+13, r19	; 0x0d
    57c0:	24 87       	std	Z+12, r18	; 0x0c
    57c2:	8a 81       	ldd	r24, Y+2	; 0x02
    57c4:	9b 81       	ldd	r25, Y+3	; 0x03
    57c6:	fc 01       	movw	r30, r24
    57c8:	82 8d       	ldd	r24, Z+26	; 0x1a
    57ca:	88 2f       	mov	r24, r24
    57cc:	90 e0       	ldi	r25, 0x00	; 0
    57ce:	4b e0       	ldi	r20, 0x0B	; 11
    57d0:	48 9f       	mul	r20, r24
    57d2:	90 01       	movw	r18, r0
    57d4:	49 9f       	mul	r20, r25
    57d6:	30 0d       	add	r19, r0
    57d8:	11 24       	eor	r1, r1
    57da:	22 5e       	subi	r18, 0xE2	; 226
    57dc:	38 4e       	sbci	r19, 0xE8	; 232
    57de:	f9 01       	movw	r30, r18
    57e0:	20 81       	ld	r18, Z
    57e2:	41 e0       	ldi	r20, 0x01	; 1
    57e4:	42 0f       	add	r20, r18
    57e6:	5b e0       	ldi	r21, 0x0B	; 11
    57e8:	58 9f       	mul	r21, r24
    57ea:	90 01       	movw	r18, r0
    57ec:	59 9f       	mul	r21, r25
    57ee:	30 0d       	add	r19, r0
    57f0:	11 24       	eor	r1, r1
    57f2:	c9 01       	movw	r24, r18
    57f4:	82 5e       	subi	r24, 0xE2	; 226
    57f6:	98 4e       	sbci	r25, 0xE8	; 232
    57f8:	fc 01       	movw	r30, r24
    57fa:	40 83       	st	Z, r20
    57fc:	00 00       	nop
    57fe:	2a 96       	adiw	r28, 0x0a	; 10
    5800:	0f b6       	in	r0, 0x3f	; 63
    5802:	f8 94       	cli
    5804:	de bf       	out	0x3e, r29	; 62
    5806:	0f be       	out	0x3f, r0	; 63
    5808:	cd bf       	out	0x3d, r28	; 61
    580a:	df 91       	pop	r29
    580c:	cf 91       	pop	r28
    580e:	1f 91       	pop	r17
    5810:	0f 91       	pop	r16
    5812:	ff 90       	pop	r15
    5814:	ef 90       	pop	r14
    5816:	08 95       	ret

00005818 <uxTaskResetEventItemValue>:
    5818:	ef 92       	push	r14
    581a:	ff 92       	push	r15
    581c:	0f 93       	push	r16
    581e:	1f 93       	push	r17
    5820:	cf 93       	push	r28
    5822:	df 93       	push	r29
    5824:	00 d0       	rcall	.+0      	; 0x5826 <uxTaskResetEventItemValue+0xe>
    5826:	1f 92       	push	r1
    5828:	cd b7       	in	r28, 0x3d	; 61
    582a:	de b7       	in	r29, 0x3e	; 62
    582c:	80 91 1c 17 	lds	r24, 0x171C	; 0x80171c <pxCurrentTCB>
    5830:	90 91 1d 17 	lds	r25, 0x171D	; 0x80171d <pxCurrentTCB+0x1>
    5834:	fc 01       	movw	r30, r24
    5836:	86 85       	ldd	r24, Z+14	; 0x0e
    5838:	97 85       	ldd	r25, Z+15	; 0x0f
    583a:	a0 89       	ldd	r26, Z+16	; 0x10
    583c:	b1 89       	ldd	r27, Z+17	; 0x11
    583e:	89 83       	std	Y+1, r24	; 0x01
    5840:	9a 83       	std	Y+2, r25	; 0x02
    5842:	ab 83       	std	Y+3, r26	; 0x03
    5844:	bc 83       	std	Y+4, r27	; 0x04
    5846:	60 91 1c 17 	lds	r22, 0x171C	; 0x80171c <pxCurrentTCB>
    584a:	70 91 1d 17 	lds	r23, 0x171D	; 0x80171d <pxCurrentTCB+0x1>
    584e:	80 91 1c 17 	lds	r24, 0x171C	; 0x80171c <pxCurrentTCB>
    5852:	90 91 1d 17 	lds	r25, 0x171D	; 0x80171d <pxCurrentTCB+0x1>
    5856:	fc 01       	movw	r30, r24
    5858:	82 8d       	ldd	r24, Z+26	; 0x1a
    585a:	88 2f       	mov	r24, r24
    585c:	90 e0       	ldi	r25, 0x00	; 0
    585e:	a0 e0       	ldi	r26, 0x00	; 0
    5860:	b0 e0       	ldi	r27, 0x00	; 0
    5862:	2a e0       	ldi	r18, 0x0A	; 10
    5864:	30 e0       	ldi	r19, 0x00	; 0
    5866:	40 e0       	ldi	r20, 0x00	; 0
    5868:	50 e0       	ldi	r21, 0x00	; 0
    586a:	79 01       	movw	r14, r18
    586c:	8a 01       	movw	r16, r20
    586e:	e8 1a       	sub	r14, r24
    5870:	f9 0a       	sbc	r15, r25
    5872:	0a 0b       	sbc	r16, r26
    5874:	1b 0b       	sbc	r17, r27
    5876:	d8 01       	movw	r26, r16
    5878:	c7 01       	movw	r24, r14
    587a:	fb 01       	movw	r30, r22
    587c:	86 87       	std	Z+14, r24	; 0x0e
    587e:	97 87       	std	Z+15, r25	; 0x0f
    5880:	a0 8b       	std	Z+16, r26	; 0x10
    5882:	b1 8b       	std	Z+17, r27	; 0x11
    5884:	89 81       	ldd	r24, Y+1	; 0x01
    5886:	9a 81       	ldd	r25, Y+2	; 0x02
    5888:	ab 81       	ldd	r26, Y+3	; 0x03
    588a:	bc 81       	ldd	r27, Y+4	; 0x04
    588c:	bc 01       	movw	r22, r24
    588e:	cd 01       	movw	r24, r26
    5890:	0f 90       	pop	r0
    5892:	0f 90       	pop	r0
    5894:	0f 90       	pop	r0
    5896:	0f 90       	pop	r0
    5898:	df 91       	pop	r29
    589a:	cf 91       	pop	r28
    589c:	1f 91       	pop	r17
    589e:	0f 91       	pop	r16
    58a0:	ff 90       	pop	r15
    58a2:	ef 90       	pop	r14
    58a4:	08 95       	ret

000058a6 <pvTaskIncrementMutexHeldCount>:
    58a6:	cf 93       	push	r28
    58a8:	df 93       	push	r29
    58aa:	cd b7       	in	r28, 0x3d	; 61
    58ac:	de b7       	in	r29, 0x3e	; 62
    58ae:	80 91 1c 17 	lds	r24, 0x171C	; 0x80171c <pxCurrentTCB>
    58b2:	90 91 1d 17 	lds	r25, 0x171D	; 0x80171d <pxCurrentTCB+0x1>
    58b6:	89 2b       	or	r24, r25
    58b8:	49 f0       	breq	.+18     	; 0x58cc <pvTaskIncrementMutexHeldCount+0x26>
    58ba:	80 91 1c 17 	lds	r24, 0x171C	; 0x80171c <pxCurrentTCB>
    58be:	90 91 1d 17 	lds	r25, 0x171D	; 0x80171d <pxCurrentTCB+0x1>
    58c2:	fc 01       	movw	r30, r24
    58c4:	26 a5       	ldd	r18, Z+46	; 0x2e
    58c6:	2f 5f       	subi	r18, 0xFF	; 255
    58c8:	fc 01       	movw	r30, r24
    58ca:	26 a7       	std	Z+46, r18	; 0x2e
    58cc:	80 91 1c 17 	lds	r24, 0x171C	; 0x80171c <pxCurrentTCB>
    58d0:	90 91 1d 17 	lds	r25, 0x171D	; 0x80171d <pxCurrentTCB+0x1>
    58d4:	df 91       	pop	r29
    58d6:	cf 91       	pop	r28
    58d8:	08 95       	ret

000058da <xTaskGenericNotifyWait>:
    58da:	af 92       	push	r10
    58dc:	bf 92       	push	r11
    58de:	cf 92       	push	r12
    58e0:	df 92       	push	r13
    58e2:	ef 92       	push	r14
    58e4:	ff 92       	push	r15
    58e6:	0f 93       	push	r16
    58e8:	1f 93       	push	r17
    58ea:	cf 93       	push	r28
    58ec:	df 93       	push	r29
    58ee:	cd b7       	in	r28, 0x3d	; 61
    58f0:	de b7       	in	r29, 0x3e	; 62
    58f2:	60 97       	sbiw	r28, 0x10	; 16
    58f4:	0f b6       	in	r0, 0x3f	; 63
    58f6:	f8 94       	cli
    58f8:	de bf       	out	0x3e, r29	; 62
    58fa:	0f be       	out	0x3f, r0	; 63
    58fc:	cd bf       	out	0x3d, r28	; 61
    58fe:	8a 83       	std	Y+2, r24	; 0x02
    5900:	4b 83       	std	Y+3, r20	; 0x03
    5902:	5c 83       	std	Y+4, r21	; 0x04
    5904:	6d 83       	std	Y+5, r22	; 0x05
    5906:	7e 83       	std	Y+6, r23	; 0x06
    5908:	0f 83       	std	Y+7, r16	; 0x07
    590a:	18 87       	std	Y+8, r17	; 0x08
    590c:	29 87       	std	Y+9, r18	; 0x09
    590e:	3a 87       	std	Y+10, r19	; 0x0a
    5910:	fc 86       	std	Y+12, r15	; 0x0c
    5912:	eb 86       	std	Y+11, r14	; 0x0b
    5914:	ad 86       	std	Y+13, r10	; 0x0d
    5916:	be 86       	std	Y+14, r11	; 0x0e
    5918:	cf 86       	std	Y+15, r12	; 0x0f
    591a:	d8 8a       	std	Y+16, r13	; 0x10
    591c:	0f b6       	in	r0, 0x3f	; 63
    591e:	f8 94       	cli
    5920:	0f 92       	push	r0
    5922:	20 91 1c 17 	lds	r18, 0x171C	; 0x80171c <pxCurrentTCB>
    5926:	30 91 1d 17 	lds	r19, 0x171D	; 0x80171d <pxCurrentTCB+0x1>
    592a:	8a 81       	ldd	r24, Y+2	; 0x02
    592c:	88 2f       	mov	r24, r24
    592e:	90 e0       	ldi	r25, 0x00	; 0
    5930:	82 0f       	add	r24, r18
    5932:	93 1f       	adc	r25, r19
    5934:	c3 96       	adiw	r24, 0x33	; 51
    5936:	dc 01       	movw	r26, r24
    5938:	8c 91       	ld	r24, X
    593a:	82 30       	cpi	r24, 0x02	; 2
    593c:	09 f4       	brne	.+2      	; 0x5940 <xTaskGenericNotifyWait+0x66>
    593e:	4f c0       	rjmp	.+158    	; 0x59de <xTaskGenericNotifyWait+0x104>
    5940:	60 91 1c 17 	lds	r22, 0x171C	; 0x80171c <pxCurrentTCB>
    5944:	70 91 1d 17 	lds	r23, 0x171D	; 0x80171d <pxCurrentTCB+0x1>
    5948:	8a 81       	ldd	r24, Y+2	; 0x02
    594a:	e8 2f       	mov	r30, r24
    594c:	f0 e0       	ldi	r31, 0x00	; 0
    594e:	8a 81       	ldd	r24, Y+2	; 0x02
    5950:	88 2f       	mov	r24, r24
    5952:	90 e0       	ldi	r25, 0x00	; 0
    5954:	88 0f       	add	r24, r24
    5956:	99 1f       	adc	r25, r25
    5958:	88 0f       	add	r24, r24
    595a:	99 1f       	adc	r25, r25
    595c:	86 0f       	add	r24, r22
    595e:	97 1f       	adc	r25, r23
    5960:	8f 96       	adiw	r24, 0x2f	; 47
    5962:	dc 01       	movw	r26, r24
    5964:	2d 91       	ld	r18, X+
    5966:	3d 91       	ld	r19, X+
    5968:	4d 91       	ld	r20, X+
    596a:	5c 91       	ld	r21, X
    596c:	8b 81       	ldd	r24, Y+3	; 0x03
    596e:	9c 81       	ldd	r25, Y+4	; 0x04
    5970:	ad 81       	ldd	r26, Y+5	; 0x05
    5972:	be 81       	ldd	r27, Y+6	; 0x06
    5974:	80 95       	com	r24
    5976:	90 95       	com	r25
    5978:	a0 95       	com	r26
    597a:	b0 95       	com	r27
    597c:	82 23       	and	r24, r18
    597e:	93 23       	and	r25, r19
    5980:	a4 23       	and	r26, r20
    5982:	b5 23       	and	r27, r21
    5984:	9f 01       	movw	r18, r30
    5986:	22 0f       	add	r18, r18
    5988:	33 1f       	adc	r19, r19
    598a:	22 0f       	add	r18, r18
    598c:	33 1f       	adc	r19, r19
    598e:	26 0f       	add	r18, r22
    5990:	37 1f       	adc	r19, r23
    5992:	21 5d       	subi	r18, 0xD1	; 209
    5994:	3f 4f       	sbci	r19, 0xFF	; 255
    5996:	f9 01       	movw	r30, r18
    5998:	80 83       	st	Z, r24
    599a:	91 83       	std	Z+1, r25	; 0x01
    599c:	a2 83       	std	Z+2, r26	; 0x02
    599e:	b3 83       	std	Z+3, r27	; 0x03
    59a0:	20 91 1c 17 	lds	r18, 0x171C	; 0x80171c <pxCurrentTCB>
    59a4:	30 91 1d 17 	lds	r19, 0x171D	; 0x80171d <pxCurrentTCB+0x1>
    59a8:	8a 81       	ldd	r24, Y+2	; 0x02
    59aa:	88 2f       	mov	r24, r24
    59ac:	90 e0       	ldi	r25, 0x00	; 0
    59ae:	82 0f       	add	r24, r18
    59b0:	93 1f       	adc	r25, r19
    59b2:	c3 96       	adiw	r24, 0x33	; 51
    59b4:	21 e0       	ldi	r18, 0x01	; 1
    59b6:	dc 01       	movw	r26, r24
    59b8:	2c 93       	st	X, r18
    59ba:	8d 85       	ldd	r24, Y+13	; 0x0d
    59bc:	9e 85       	ldd	r25, Y+14	; 0x0e
    59be:	af 85       	ldd	r26, Y+15	; 0x0f
    59c0:	b8 89       	ldd	r27, Y+16	; 0x10
    59c2:	89 2b       	or	r24, r25
    59c4:	8a 2b       	or	r24, r26
    59c6:	8b 2b       	or	r24, r27
    59c8:	51 f0       	breq	.+20     	; 0x59de <xTaskGenericNotifyWait+0x104>
    59ca:	8d 85       	ldd	r24, Y+13	; 0x0d
    59cc:	9e 85       	ldd	r25, Y+14	; 0x0e
    59ce:	af 85       	ldd	r26, Y+15	; 0x0f
    59d0:	b8 89       	ldd	r27, Y+16	; 0x10
    59d2:	41 e0       	ldi	r20, 0x01	; 1
    59d4:	bc 01       	movw	r22, r24
    59d6:	cd 01       	movw	r24, r26
    59d8:	b3 d4       	rcall	.+2406   	; 0x6340 <prvAddCurrentTaskToDelayedList>
    59da:	0e 94 c3 0e 	call	0x1d86	; 0x1d86 <vPortYield>
    59de:	0f 90       	pop	r0
    59e0:	0f be       	out	0x3f, r0	; 63
    59e2:	0f b6       	in	r0, 0x3f	; 63
    59e4:	f8 94       	cli
    59e6:	0f 92       	push	r0
    59e8:	8b 85       	ldd	r24, Y+11	; 0x0b
    59ea:	9c 85       	ldd	r25, Y+12	; 0x0c
    59ec:	89 2b       	or	r24, r25
    59ee:	d1 f0       	breq	.+52     	; 0x5a24 <xTaskGenericNotifyWait+0x14a>
    59f0:	20 91 1c 17 	lds	r18, 0x171C	; 0x80171c <pxCurrentTCB>
    59f4:	30 91 1d 17 	lds	r19, 0x171D	; 0x80171d <pxCurrentTCB+0x1>
    59f8:	8a 81       	ldd	r24, Y+2	; 0x02
    59fa:	88 2f       	mov	r24, r24
    59fc:	90 e0       	ldi	r25, 0x00	; 0
    59fe:	88 0f       	add	r24, r24
    5a00:	99 1f       	adc	r25, r25
    5a02:	88 0f       	add	r24, r24
    5a04:	99 1f       	adc	r25, r25
    5a06:	82 0f       	add	r24, r18
    5a08:	93 1f       	adc	r25, r19
    5a0a:	8f 96       	adiw	r24, 0x2f	; 47
    5a0c:	fc 01       	movw	r30, r24
    5a0e:	80 81       	ld	r24, Z
    5a10:	91 81       	ldd	r25, Z+1	; 0x01
    5a12:	a2 81       	ldd	r26, Z+2	; 0x02
    5a14:	b3 81       	ldd	r27, Z+3	; 0x03
    5a16:	2b 85       	ldd	r18, Y+11	; 0x0b
    5a18:	3c 85       	ldd	r19, Y+12	; 0x0c
    5a1a:	f9 01       	movw	r30, r18
    5a1c:	80 83       	st	Z, r24
    5a1e:	91 83       	std	Z+1, r25	; 0x01
    5a20:	a2 83       	std	Z+2, r26	; 0x02
    5a22:	b3 83       	std	Z+3, r27	; 0x03
    5a24:	20 91 1c 17 	lds	r18, 0x171C	; 0x80171c <pxCurrentTCB>
    5a28:	30 91 1d 17 	lds	r19, 0x171D	; 0x80171d <pxCurrentTCB+0x1>
    5a2c:	8a 81       	ldd	r24, Y+2	; 0x02
    5a2e:	88 2f       	mov	r24, r24
    5a30:	90 e0       	ldi	r25, 0x00	; 0
    5a32:	82 0f       	add	r24, r18
    5a34:	93 1f       	adc	r25, r19
    5a36:	c3 96       	adiw	r24, 0x33	; 51
    5a38:	dc 01       	movw	r26, r24
    5a3a:	8c 91       	ld	r24, X
    5a3c:	82 30       	cpi	r24, 0x02	; 2
    5a3e:	11 f0       	breq	.+4      	; 0x5a44 <xTaskGenericNotifyWait+0x16a>
    5a40:	19 82       	std	Y+1, r1	; 0x01
    5a42:	32 c0       	rjmp	.+100    	; 0x5aa8 <xTaskGenericNotifyWait+0x1ce>
    5a44:	60 91 1c 17 	lds	r22, 0x171C	; 0x80171c <pxCurrentTCB>
    5a48:	70 91 1d 17 	lds	r23, 0x171D	; 0x80171d <pxCurrentTCB+0x1>
    5a4c:	8a 81       	ldd	r24, Y+2	; 0x02
    5a4e:	e8 2f       	mov	r30, r24
    5a50:	f0 e0       	ldi	r31, 0x00	; 0
    5a52:	8a 81       	ldd	r24, Y+2	; 0x02
    5a54:	88 2f       	mov	r24, r24
    5a56:	90 e0       	ldi	r25, 0x00	; 0
    5a58:	88 0f       	add	r24, r24
    5a5a:	99 1f       	adc	r25, r25
    5a5c:	88 0f       	add	r24, r24
    5a5e:	99 1f       	adc	r25, r25
    5a60:	86 0f       	add	r24, r22
    5a62:	97 1f       	adc	r25, r23
    5a64:	8f 96       	adiw	r24, 0x2f	; 47
    5a66:	dc 01       	movw	r26, r24
    5a68:	2d 91       	ld	r18, X+
    5a6a:	3d 91       	ld	r19, X+
    5a6c:	4d 91       	ld	r20, X+
    5a6e:	5c 91       	ld	r21, X
    5a70:	8f 81       	ldd	r24, Y+7	; 0x07
    5a72:	98 85       	ldd	r25, Y+8	; 0x08
    5a74:	a9 85       	ldd	r26, Y+9	; 0x09
    5a76:	ba 85       	ldd	r27, Y+10	; 0x0a
    5a78:	80 95       	com	r24
    5a7a:	90 95       	com	r25
    5a7c:	a0 95       	com	r26
    5a7e:	b0 95       	com	r27
    5a80:	82 23       	and	r24, r18
    5a82:	93 23       	and	r25, r19
    5a84:	a4 23       	and	r26, r20
    5a86:	b5 23       	and	r27, r21
    5a88:	9f 01       	movw	r18, r30
    5a8a:	22 0f       	add	r18, r18
    5a8c:	33 1f       	adc	r19, r19
    5a8e:	22 0f       	add	r18, r18
    5a90:	33 1f       	adc	r19, r19
    5a92:	26 0f       	add	r18, r22
    5a94:	37 1f       	adc	r19, r23
    5a96:	21 5d       	subi	r18, 0xD1	; 209
    5a98:	3f 4f       	sbci	r19, 0xFF	; 255
    5a9a:	f9 01       	movw	r30, r18
    5a9c:	80 83       	st	Z, r24
    5a9e:	91 83       	std	Z+1, r25	; 0x01
    5aa0:	a2 83       	std	Z+2, r26	; 0x02
    5aa2:	b3 83       	std	Z+3, r27	; 0x03
    5aa4:	81 e0       	ldi	r24, 0x01	; 1
    5aa6:	89 83       	std	Y+1, r24	; 0x01
    5aa8:	20 91 1c 17 	lds	r18, 0x171C	; 0x80171c <pxCurrentTCB>
    5aac:	30 91 1d 17 	lds	r19, 0x171D	; 0x80171d <pxCurrentTCB+0x1>
    5ab0:	8a 81       	ldd	r24, Y+2	; 0x02
    5ab2:	88 2f       	mov	r24, r24
    5ab4:	90 e0       	ldi	r25, 0x00	; 0
    5ab6:	82 0f       	add	r24, r18
    5ab8:	93 1f       	adc	r25, r19
    5aba:	c3 96       	adiw	r24, 0x33	; 51
    5abc:	dc 01       	movw	r26, r24
    5abe:	1c 92       	st	X, r1
    5ac0:	0f 90       	pop	r0
    5ac2:	0f be       	out	0x3f, r0	; 63
    5ac4:	89 81       	ldd	r24, Y+1	; 0x01
    5ac6:	60 96       	adiw	r28, 0x10	; 16
    5ac8:	0f b6       	in	r0, 0x3f	; 63
    5aca:	f8 94       	cli
    5acc:	de bf       	out	0x3e, r29	; 62
    5ace:	0f be       	out	0x3f, r0	; 63
    5ad0:	cd bf       	out	0x3d, r28	; 61
    5ad2:	df 91       	pop	r29
    5ad4:	cf 91       	pop	r28
    5ad6:	1f 91       	pop	r17
    5ad8:	0f 91       	pop	r16
    5ada:	ff 90       	pop	r15
    5adc:	ef 90       	pop	r14
    5ade:	df 90       	pop	r13
    5ae0:	cf 90       	pop	r12
    5ae2:	bf 90       	pop	r11
    5ae4:	af 90       	pop	r10
    5ae6:	08 95       	ret

00005ae8 <xTaskGenericNotify>:
    5ae8:	ef 92       	push	r14
    5aea:	ff 92       	push	r15
    5aec:	0f 93       	push	r16
    5aee:	cf 93       	push	r28
    5af0:	df 93       	push	r29
    5af2:	cd b7       	in	r28, 0x3d	; 61
    5af4:	de b7       	in	r29, 0x3e	; 62
    5af6:	62 97       	sbiw	r28, 0x12	; 18
    5af8:	0f b6       	in	r0, 0x3f	; 63
    5afa:	f8 94       	cli
    5afc:	de bf       	out	0x3e, r29	; 62
    5afe:	0f be       	out	0x3f, r0	; 63
    5b00:	cd bf       	out	0x3d, r28	; 61
    5b02:	9a 87       	std	Y+10, r25	; 0x0a
    5b04:	89 87       	std	Y+9, r24	; 0x09
    5b06:	6b 87       	std	Y+11, r22	; 0x0b
    5b08:	2c 87       	std	Y+12, r18	; 0x0c
    5b0a:	3d 87       	std	Y+13, r19	; 0x0d
    5b0c:	4e 87       	std	Y+14, r20	; 0x0e
    5b0e:	5f 87       	std	Y+15, r21	; 0x0f
    5b10:	08 8b       	std	Y+16, r16	; 0x10
    5b12:	fa 8a       	std	Y+18, r15	; 0x12
    5b14:	e9 8a       	std	Y+17, r14	; 0x11
    5b16:	81 e0       	ldi	r24, 0x01	; 1
    5b18:	89 83       	std	Y+1, r24	; 0x01
    5b1a:	89 85       	ldd	r24, Y+9	; 0x09
    5b1c:	9a 85       	ldd	r25, Y+10	; 0x0a
    5b1e:	9b 83       	std	Y+3, r25	; 0x03
    5b20:	8a 83       	std	Y+2, r24	; 0x02
    5b22:	0f b6       	in	r0, 0x3f	; 63
    5b24:	f8 94       	cli
    5b26:	0f 92       	push	r0
    5b28:	89 89       	ldd	r24, Y+17	; 0x11
    5b2a:	9a 89       	ldd	r25, Y+18	; 0x12
    5b2c:	89 2b       	or	r24, r25
    5b2e:	c1 f0       	breq	.+48     	; 0x5b60 <xTaskGenericNotify+0x78>
    5b30:	8b 85       	ldd	r24, Y+11	; 0x0b
    5b32:	88 2f       	mov	r24, r24
    5b34:	90 e0       	ldi	r25, 0x00	; 0
    5b36:	2a 81       	ldd	r18, Y+2	; 0x02
    5b38:	3b 81       	ldd	r19, Y+3	; 0x03
    5b3a:	88 0f       	add	r24, r24
    5b3c:	99 1f       	adc	r25, r25
    5b3e:	88 0f       	add	r24, r24
    5b40:	99 1f       	adc	r25, r25
    5b42:	82 0f       	add	r24, r18
    5b44:	93 1f       	adc	r25, r19
    5b46:	8f 96       	adiw	r24, 0x2f	; 47
    5b48:	fc 01       	movw	r30, r24
    5b4a:	80 81       	ld	r24, Z
    5b4c:	91 81       	ldd	r25, Z+1	; 0x01
    5b4e:	a2 81       	ldd	r26, Z+2	; 0x02
    5b50:	b3 81       	ldd	r27, Z+3	; 0x03
    5b52:	29 89       	ldd	r18, Y+17	; 0x11
    5b54:	3a 89       	ldd	r19, Y+18	; 0x12
    5b56:	f9 01       	movw	r30, r18
    5b58:	80 83       	st	Z, r24
    5b5a:	91 83       	std	Z+1, r25	; 0x01
    5b5c:	a2 83       	std	Z+2, r26	; 0x02
    5b5e:	b3 83       	std	Z+3, r27	; 0x03
    5b60:	8b 85       	ldd	r24, Y+11	; 0x0b
    5b62:	88 2f       	mov	r24, r24
    5b64:	90 e0       	ldi	r25, 0x00	; 0
    5b66:	2a 81       	ldd	r18, Y+2	; 0x02
    5b68:	3b 81       	ldd	r19, Y+3	; 0x03
    5b6a:	82 0f       	add	r24, r18
    5b6c:	93 1f       	adc	r25, r19
    5b6e:	c3 96       	adiw	r24, 0x33	; 51
    5b70:	fc 01       	movw	r30, r24
    5b72:	80 81       	ld	r24, Z
    5b74:	8c 83       	std	Y+4, r24	; 0x04
    5b76:	8b 85       	ldd	r24, Y+11	; 0x0b
    5b78:	88 2f       	mov	r24, r24
    5b7a:	90 e0       	ldi	r25, 0x00	; 0
    5b7c:	2a 81       	ldd	r18, Y+2	; 0x02
    5b7e:	3b 81       	ldd	r19, Y+3	; 0x03
    5b80:	82 0f       	add	r24, r18
    5b82:	93 1f       	adc	r25, r19
    5b84:	c3 96       	adiw	r24, 0x33	; 51
    5b86:	22 e0       	ldi	r18, 0x02	; 2
    5b88:	fc 01       	movw	r30, r24
    5b8a:	20 83       	st	Z, r18
    5b8c:	88 89       	ldd	r24, Y+16	; 0x10
    5b8e:	88 2f       	mov	r24, r24
    5b90:	90 e0       	ldi	r25, 0x00	; 0
    5b92:	82 30       	cpi	r24, 0x02	; 2
    5b94:	91 05       	cpc	r25, r1
    5b96:	09 f4       	brne	.+2      	; 0x5b9a <xTaskGenericNotify+0xb2>
    5b98:	3e c0       	rjmp	.+124    	; 0x5c16 <xTaskGenericNotify+0x12e>
    5b9a:	83 30       	cpi	r24, 0x03	; 3
    5b9c:	91 05       	cpc	r25, r1
    5b9e:	34 f4       	brge	.+12     	; 0x5bac <xTaskGenericNotify+0xc4>
    5ba0:	00 97       	sbiw	r24, 0x00	; 0
    5ba2:	09 f4       	brne	.+2      	; 0x5ba6 <xTaskGenericNotify+0xbe>
    5ba4:	92 c0       	rjmp	.+292    	; 0x5cca <xTaskGenericNotify+0x1e2>
    5ba6:	01 97       	sbiw	r24, 0x01	; 1
    5ba8:	49 f0       	breq	.+18     	; 0x5bbc <xTaskGenericNotify+0xd4>
    5baa:	90 c0       	rjmp	.+288    	; 0x5ccc <xTaskGenericNotify+0x1e4>
    5bac:	83 30       	cpi	r24, 0x03	; 3
    5bae:	91 05       	cpc	r25, r1
    5bb0:	09 f4       	brne	.+2      	; 0x5bb4 <xTaskGenericNotify+0xcc>
    5bb2:	56 c0       	rjmp	.+172    	; 0x5c60 <xTaskGenericNotify+0x178>
    5bb4:	04 97       	sbiw	r24, 0x04	; 4
    5bb6:	09 f4       	brne	.+2      	; 0x5bba <xTaskGenericNotify+0xd2>
    5bb8:	6b c0       	rjmp	.+214    	; 0x5c90 <xTaskGenericNotify+0x1a8>
    5bba:	88 c0       	rjmp	.+272    	; 0x5ccc <xTaskGenericNotify+0x1e4>
    5bbc:	8b 85       	ldd	r24, Y+11	; 0x0b
    5bbe:	68 2f       	mov	r22, r24
    5bc0:	70 e0       	ldi	r23, 0x00	; 0
    5bc2:	8b 85       	ldd	r24, Y+11	; 0x0b
    5bc4:	88 2f       	mov	r24, r24
    5bc6:	90 e0       	ldi	r25, 0x00	; 0
    5bc8:	2a 81       	ldd	r18, Y+2	; 0x02
    5bca:	3b 81       	ldd	r19, Y+3	; 0x03
    5bcc:	88 0f       	add	r24, r24
    5bce:	99 1f       	adc	r25, r25
    5bd0:	88 0f       	add	r24, r24
    5bd2:	99 1f       	adc	r25, r25
    5bd4:	82 0f       	add	r24, r18
    5bd6:	93 1f       	adc	r25, r19
    5bd8:	8f 96       	adiw	r24, 0x2f	; 47
    5bda:	fc 01       	movw	r30, r24
    5bdc:	20 81       	ld	r18, Z
    5bde:	31 81       	ldd	r19, Z+1	; 0x01
    5be0:	42 81       	ldd	r20, Z+2	; 0x02
    5be2:	53 81       	ldd	r21, Z+3	; 0x03
    5be4:	8c 85       	ldd	r24, Y+12	; 0x0c
    5be6:	9d 85       	ldd	r25, Y+13	; 0x0d
    5be8:	ae 85       	ldd	r26, Y+14	; 0x0e
    5bea:	bf 85       	ldd	r27, Y+15	; 0x0f
    5bec:	82 2b       	or	r24, r18
    5bee:	93 2b       	or	r25, r19
    5bf0:	a4 2b       	or	r26, r20
    5bf2:	b5 2b       	or	r27, r21
    5bf4:	4a 81       	ldd	r20, Y+2	; 0x02
    5bf6:	5b 81       	ldd	r21, Y+3	; 0x03
    5bf8:	9b 01       	movw	r18, r22
    5bfa:	22 0f       	add	r18, r18
    5bfc:	33 1f       	adc	r19, r19
    5bfe:	22 0f       	add	r18, r18
    5c00:	33 1f       	adc	r19, r19
    5c02:	24 0f       	add	r18, r20
    5c04:	35 1f       	adc	r19, r21
    5c06:	21 5d       	subi	r18, 0xD1	; 209
    5c08:	3f 4f       	sbci	r19, 0xFF	; 255
    5c0a:	f9 01       	movw	r30, r18
    5c0c:	80 83       	st	Z, r24
    5c0e:	91 83       	std	Z+1, r25	; 0x01
    5c10:	a2 83       	std	Z+2, r26	; 0x02
    5c12:	b3 83       	std	Z+3, r27	; 0x03
    5c14:	5b c0       	rjmp	.+182    	; 0x5ccc <xTaskGenericNotify+0x1e4>
    5c16:	8b 85       	ldd	r24, Y+11	; 0x0b
    5c18:	28 2f       	mov	r18, r24
    5c1a:	30 e0       	ldi	r19, 0x00	; 0
    5c1c:	4a 81       	ldd	r20, Y+2	; 0x02
    5c1e:	5b 81       	ldd	r21, Y+3	; 0x03
    5c20:	c9 01       	movw	r24, r18
    5c22:	88 0f       	add	r24, r24
    5c24:	99 1f       	adc	r25, r25
    5c26:	88 0f       	add	r24, r24
    5c28:	99 1f       	adc	r25, r25
    5c2a:	84 0f       	add	r24, r20
    5c2c:	95 1f       	adc	r25, r21
    5c2e:	8f 96       	adiw	r24, 0x2f	; 47
    5c30:	fc 01       	movw	r30, r24
    5c32:	80 81       	ld	r24, Z
    5c34:	91 81       	ldd	r25, Z+1	; 0x01
    5c36:	a2 81       	ldd	r26, Z+2	; 0x02
    5c38:	b3 81       	ldd	r27, Z+3	; 0x03
    5c3a:	01 96       	adiw	r24, 0x01	; 1
    5c3c:	a1 1d       	adc	r26, r1
    5c3e:	b1 1d       	adc	r27, r1
    5c40:	4a 81       	ldd	r20, Y+2	; 0x02
    5c42:	5b 81       	ldd	r21, Y+3	; 0x03
    5c44:	22 0f       	add	r18, r18
    5c46:	33 1f       	adc	r19, r19
    5c48:	22 0f       	add	r18, r18
    5c4a:	33 1f       	adc	r19, r19
    5c4c:	24 0f       	add	r18, r20
    5c4e:	35 1f       	adc	r19, r21
    5c50:	21 5d       	subi	r18, 0xD1	; 209
    5c52:	3f 4f       	sbci	r19, 0xFF	; 255
    5c54:	f9 01       	movw	r30, r18
    5c56:	80 83       	st	Z, r24
    5c58:	91 83       	std	Z+1, r25	; 0x01
    5c5a:	a2 83       	std	Z+2, r26	; 0x02
    5c5c:	b3 83       	std	Z+3, r27	; 0x03
    5c5e:	36 c0       	rjmp	.+108    	; 0x5ccc <xTaskGenericNotify+0x1e4>
    5c60:	8b 85       	ldd	r24, Y+11	; 0x0b
    5c62:	88 2f       	mov	r24, r24
    5c64:	90 e0       	ldi	r25, 0x00	; 0
    5c66:	2a 81       	ldd	r18, Y+2	; 0x02
    5c68:	3b 81       	ldd	r19, Y+3	; 0x03
    5c6a:	88 0f       	add	r24, r24
    5c6c:	99 1f       	adc	r25, r25
    5c6e:	88 0f       	add	r24, r24
    5c70:	99 1f       	adc	r25, r25
    5c72:	82 0f       	add	r24, r18
    5c74:	93 1f       	adc	r25, r19
    5c76:	9c 01       	movw	r18, r24
    5c78:	21 5d       	subi	r18, 0xD1	; 209
    5c7a:	3f 4f       	sbci	r19, 0xFF	; 255
    5c7c:	8c 85       	ldd	r24, Y+12	; 0x0c
    5c7e:	9d 85       	ldd	r25, Y+13	; 0x0d
    5c80:	ae 85       	ldd	r26, Y+14	; 0x0e
    5c82:	bf 85       	ldd	r27, Y+15	; 0x0f
    5c84:	f9 01       	movw	r30, r18
    5c86:	80 83       	st	Z, r24
    5c88:	91 83       	std	Z+1, r25	; 0x01
    5c8a:	a2 83       	std	Z+2, r26	; 0x02
    5c8c:	b3 83       	std	Z+3, r27	; 0x03
    5c8e:	1e c0       	rjmp	.+60     	; 0x5ccc <xTaskGenericNotify+0x1e4>
    5c90:	8c 81       	ldd	r24, Y+4	; 0x04
    5c92:	82 30       	cpi	r24, 0x02	; 2
    5c94:	c1 f0       	breq	.+48     	; 0x5cc6 <xTaskGenericNotify+0x1de>
    5c96:	8b 85       	ldd	r24, Y+11	; 0x0b
    5c98:	88 2f       	mov	r24, r24
    5c9a:	90 e0       	ldi	r25, 0x00	; 0
    5c9c:	2a 81       	ldd	r18, Y+2	; 0x02
    5c9e:	3b 81       	ldd	r19, Y+3	; 0x03
    5ca0:	88 0f       	add	r24, r24
    5ca2:	99 1f       	adc	r25, r25
    5ca4:	88 0f       	add	r24, r24
    5ca6:	99 1f       	adc	r25, r25
    5ca8:	82 0f       	add	r24, r18
    5caa:	93 1f       	adc	r25, r19
    5cac:	9c 01       	movw	r18, r24
    5cae:	21 5d       	subi	r18, 0xD1	; 209
    5cb0:	3f 4f       	sbci	r19, 0xFF	; 255
    5cb2:	8c 85       	ldd	r24, Y+12	; 0x0c
    5cb4:	9d 85       	ldd	r25, Y+13	; 0x0d
    5cb6:	ae 85       	ldd	r26, Y+14	; 0x0e
    5cb8:	bf 85       	ldd	r27, Y+15	; 0x0f
    5cba:	f9 01       	movw	r30, r18
    5cbc:	80 83       	st	Z, r24
    5cbe:	91 83       	std	Z+1, r25	; 0x01
    5cc0:	a2 83       	std	Z+2, r26	; 0x02
    5cc2:	b3 83       	std	Z+3, r27	; 0x03
    5cc4:	03 c0       	rjmp	.+6      	; 0x5ccc <xTaskGenericNotify+0x1e4>
    5cc6:	19 82       	std	Y+1, r1	; 0x01
    5cc8:	01 c0       	rjmp	.+2      	; 0x5ccc <xTaskGenericNotify+0x1e4>
    5cca:	00 00       	nop
    5ccc:	8c 81       	ldd	r24, Y+4	; 0x04
    5cce:	81 30       	cpi	r24, 0x01	; 1
    5cd0:	09 f0       	breq	.+2      	; 0x5cd4 <xTaskGenericNotify+0x1ec>
    5cd2:	cc c0       	rjmp	.+408    	; 0x5e6c <xTaskGenericNotify+0x384>
    5cd4:	8a 81       	ldd	r24, Y+2	; 0x02
    5cd6:	9b 81       	ldd	r25, Y+3	; 0x03
    5cd8:	fc 01       	movw	r30, r24
    5cda:	84 85       	ldd	r24, Z+12	; 0x0c
    5cdc:	95 85       	ldd	r25, Z+13	; 0x0d
    5cde:	9e 83       	std	Y+6, r25	; 0x06
    5ce0:	8d 83       	std	Y+5, r24	; 0x05
    5ce2:	8a 81       	ldd	r24, Y+2	; 0x02
    5ce4:	9b 81       	ldd	r25, Y+3	; 0x03
    5ce6:	fc 01       	movw	r30, r24
    5ce8:	86 81       	ldd	r24, Z+6	; 0x06
    5cea:	97 81       	ldd	r25, Z+7	; 0x07
    5cec:	2a 81       	ldd	r18, Y+2	; 0x02
    5cee:	3b 81       	ldd	r19, Y+3	; 0x03
    5cf0:	f9 01       	movw	r30, r18
    5cf2:	20 85       	ldd	r18, Z+8	; 0x08
    5cf4:	31 85       	ldd	r19, Z+9	; 0x09
    5cf6:	fc 01       	movw	r30, r24
    5cf8:	37 83       	std	Z+7, r19	; 0x07
    5cfa:	26 83       	std	Z+6, r18	; 0x06
    5cfc:	8a 81       	ldd	r24, Y+2	; 0x02
    5cfe:	9b 81       	ldd	r25, Y+3	; 0x03
    5d00:	fc 01       	movw	r30, r24
    5d02:	80 85       	ldd	r24, Z+8	; 0x08
    5d04:	91 85       	ldd	r25, Z+9	; 0x09
    5d06:	2a 81       	ldd	r18, Y+2	; 0x02
    5d08:	3b 81       	ldd	r19, Y+3	; 0x03
    5d0a:	f9 01       	movw	r30, r18
    5d0c:	26 81       	ldd	r18, Z+6	; 0x06
    5d0e:	37 81       	ldd	r19, Z+7	; 0x07
    5d10:	fc 01       	movw	r30, r24
    5d12:	35 83       	std	Z+5, r19	; 0x05
    5d14:	24 83       	std	Z+4, r18	; 0x04
    5d16:	8d 81       	ldd	r24, Y+5	; 0x05
    5d18:	9e 81       	ldd	r25, Y+6	; 0x06
    5d1a:	fc 01       	movw	r30, r24
    5d1c:	21 81       	ldd	r18, Z+1	; 0x01
    5d1e:	32 81       	ldd	r19, Z+2	; 0x02
    5d20:	8a 81       	ldd	r24, Y+2	; 0x02
    5d22:	9b 81       	ldd	r25, Y+3	; 0x03
    5d24:	02 96       	adiw	r24, 0x02	; 2
    5d26:	28 17       	cp	r18, r24
    5d28:	39 07       	cpc	r19, r25
    5d2a:	51 f4       	brne	.+20     	; 0x5d40 <xTaskGenericNotify+0x258>
    5d2c:	8a 81       	ldd	r24, Y+2	; 0x02
    5d2e:	9b 81       	ldd	r25, Y+3	; 0x03
    5d30:	fc 01       	movw	r30, r24
    5d32:	20 85       	ldd	r18, Z+8	; 0x08
    5d34:	31 85       	ldd	r19, Z+9	; 0x09
    5d36:	8d 81       	ldd	r24, Y+5	; 0x05
    5d38:	9e 81       	ldd	r25, Y+6	; 0x06
    5d3a:	fc 01       	movw	r30, r24
    5d3c:	32 83       	std	Z+2, r19	; 0x02
    5d3e:	21 83       	std	Z+1, r18	; 0x01
    5d40:	8a 81       	ldd	r24, Y+2	; 0x02
    5d42:	9b 81       	ldd	r25, Y+3	; 0x03
    5d44:	fc 01       	movw	r30, r24
    5d46:	15 86       	std	Z+13, r1	; 0x0d
    5d48:	14 86       	std	Z+12, r1	; 0x0c
    5d4a:	8d 81       	ldd	r24, Y+5	; 0x05
    5d4c:	9e 81       	ldd	r25, Y+6	; 0x06
    5d4e:	fc 01       	movw	r30, r24
    5d50:	80 81       	ld	r24, Z
    5d52:	2f ef       	ldi	r18, 0xFF	; 255
    5d54:	28 0f       	add	r18, r24
    5d56:	8d 81       	ldd	r24, Y+5	; 0x05
    5d58:	9e 81       	ldd	r25, Y+6	; 0x06
    5d5a:	fc 01       	movw	r30, r24
    5d5c:	20 83       	st	Z, r18
    5d5e:	8a 81       	ldd	r24, Y+2	; 0x02
    5d60:	9b 81       	ldd	r25, Y+3	; 0x03
    5d62:	fc 01       	movw	r30, r24
    5d64:	92 8d       	ldd	r25, Z+26	; 0x1a
    5d66:	80 91 c2 17 	lds	r24, 0x17C2	; 0x8017c2 <uxTopReadyPriority>
    5d6a:	89 17       	cp	r24, r25
    5d6c:	30 f4       	brcc	.+12     	; 0x5d7a <xTaskGenericNotify+0x292>
    5d6e:	8a 81       	ldd	r24, Y+2	; 0x02
    5d70:	9b 81       	ldd	r25, Y+3	; 0x03
    5d72:	fc 01       	movw	r30, r24
    5d74:	82 8d       	ldd	r24, Z+26	; 0x1a
    5d76:	80 93 c2 17 	sts	0x17C2, r24	; 0x8017c2 <uxTopReadyPriority>
    5d7a:	8a 81       	ldd	r24, Y+2	; 0x02
    5d7c:	9b 81       	ldd	r25, Y+3	; 0x03
    5d7e:	fc 01       	movw	r30, r24
    5d80:	82 8d       	ldd	r24, Z+26	; 0x1a
    5d82:	28 2f       	mov	r18, r24
    5d84:	30 e0       	ldi	r19, 0x00	; 0
    5d86:	4b e0       	ldi	r20, 0x0B	; 11
    5d88:	42 9f       	mul	r20, r18
    5d8a:	c0 01       	movw	r24, r0
    5d8c:	43 9f       	mul	r20, r19
    5d8e:	90 0d       	add	r25, r0
    5d90:	11 24       	eor	r1, r1
    5d92:	81 5e       	subi	r24, 0xE1	; 225
    5d94:	98 4e       	sbci	r25, 0xE8	; 232
    5d96:	fc 01       	movw	r30, r24
    5d98:	80 81       	ld	r24, Z
    5d9a:	91 81       	ldd	r25, Z+1	; 0x01
    5d9c:	98 87       	std	Y+8, r25	; 0x08
    5d9e:	8f 83       	std	Y+7, r24	; 0x07
    5da0:	8a 81       	ldd	r24, Y+2	; 0x02
    5da2:	9b 81       	ldd	r25, Y+3	; 0x03
    5da4:	2f 81       	ldd	r18, Y+7	; 0x07
    5da6:	38 85       	ldd	r19, Y+8	; 0x08
    5da8:	fc 01       	movw	r30, r24
    5daa:	37 83       	std	Z+7, r19	; 0x07
    5dac:	26 83       	std	Z+6, r18	; 0x06
    5dae:	8f 81       	ldd	r24, Y+7	; 0x07
    5db0:	98 85       	ldd	r25, Y+8	; 0x08
    5db2:	fc 01       	movw	r30, r24
    5db4:	26 81       	ldd	r18, Z+6	; 0x06
    5db6:	37 81       	ldd	r19, Z+7	; 0x07
    5db8:	8a 81       	ldd	r24, Y+2	; 0x02
    5dba:	9b 81       	ldd	r25, Y+3	; 0x03
    5dbc:	fc 01       	movw	r30, r24
    5dbe:	31 87       	std	Z+9, r19	; 0x09
    5dc0:	20 87       	std	Z+8, r18	; 0x08
    5dc2:	8f 81       	ldd	r24, Y+7	; 0x07
    5dc4:	98 85       	ldd	r25, Y+8	; 0x08
    5dc6:	fc 01       	movw	r30, r24
    5dc8:	86 81       	ldd	r24, Z+6	; 0x06
    5dca:	97 81       	ldd	r25, Z+7	; 0x07
    5dcc:	2a 81       	ldd	r18, Y+2	; 0x02
    5dce:	3b 81       	ldd	r19, Y+3	; 0x03
    5dd0:	2e 5f       	subi	r18, 0xFE	; 254
    5dd2:	3f 4f       	sbci	r19, 0xFF	; 255
    5dd4:	fc 01       	movw	r30, r24
    5dd6:	35 83       	std	Z+5, r19	; 0x05
    5dd8:	24 83       	std	Z+4, r18	; 0x04
    5dda:	8a 81       	ldd	r24, Y+2	; 0x02
    5ddc:	9b 81       	ldd	r25, Y+3	; 0x03
    5dde:	9c 01       	movw	r18, r24
    5de0:	2e 5f       	subi	r18, 0xFE	; 254
    5de2:	3f 4f       	sbci	r19, 0xFF	; 255
    5de4:	8f 81       	ldd	r24, Y+7	; 0x07
    5de6:	98 85       	ldd	r25, Y+8	; 0x08
    5de8:	fc 01       	movw	r30, r24
    5dea:	37 83       	std	Z+7, r19	; 0x07
    5dec:	26 83       	std	Z+6, r18	; 0x06
    5dee:	8a 81       	ldd	r24, Y+2	; 0x02
    5df0:	9b 81       	ldd	r25, Y+3	; 0x03
    5df2:	fc 01       	movw	r30, r24
    5df4:	82 8d       	ldd	r24, Z+26	; 0x1a
    5df6:	28 2f       	mov	r18, r24
    5df8:	30 e0       	ldi	r19, 0x00	; 0
    5dfa:	4b e0       	ldi	r20, 0x0B	; 11
    5dfc:	42 9f       	mul	r20, r18
    5dfe:	c0 01       	movw	r24, r0
    5e00:	43 9f       	mul	r20, r19
    5e02:	90 0d       	add	r25, r0
    5e04:	11 24       	eor	r1, r1
    5e06:	9c 01       	movw	r18, r24
    5e08:	22 5e       	subi	r18, 0xE2	; 226
    5e0a:	38 4e       	sbci	r19, 0xE8	; 232
    5e0c:	8a 81       	ldd	r24, Y+2	; 0x02
    5e0e:	9b 81       	ldd	r25, Y+3	; 0x03
    5e10:	fc 01       	movw	r30, r24
    5e12:	35 87       	std	Z+13, r19	; 0x0d
    5e14:	24 87       	std	Z+12, r18	; 0x0c
    5e16:	8a 81       	ldd	r24, Y+2	; 0x02
    5e18:	9b 81       	ldd	r25, Y+3	; 0x03
    5e1a:	fc 01       	movw	r30, r24
    5e1c:	82 8d       	ldd	r24, Z+26	; 0x1a
    5e1e:	88 2f       	mov	r24, r24
    5e20:	90 e0       	ldi	r25, 0x00	; 0
    5e22:	4b e0       	ldi	r20, 0x0B	; 11
    5e24:	48 9f       	mul	r20, r24
    5e26:	90 01       	movw	r18, r0
    5e28:	49 9f       	mul	r20, r25
    5e2a:	30 0d       	add	r19, r0
    5e2c:	11 24       	eor	r1, r1
    5e2e:	22 5e       	subi	r18, 0xE2	; 226
    5e30:	38 4e       	sbci	r19, 0xE8	; 232
    5e32:	f9 01       	movw	r30, r18
    5e34:	20 81       	ld	r18, Z
    5e36:	41 e0       	ldi	r20, 0x01	; 1
    5e38:	42 0f       	add	r20, r18
    5e3a:	5b e0       	ldi	r21, 0x0B	; 11
    5e3c:	58 9f       	mul	r21, r24
    5e3e:	90 01       	movw	r18, r0
    5e40:	59 9f       	mul	r21, r25
    5e42:	30 0d       	add	r19, r0
    5e44:	11 24       	eor	r1, r1
    5e46:	c9 01       	movw	r24, r18
    5e48:	82 5e       	subi	r24, 0xE2	; 226
    5e4a:	98 4e       	sbci	r25, 0xE8	; 232
    5e4c:	fc 01       	movw	r30, r24
    5e4e:	40 83       	st	Z, r20
    5e50:	8a 81       	ldd	r24, Y+2	; 0x02
    5e52:	9b 81       	ldd	r25, Y+3	; 0x03
    5e54:	fc 01       	movw	r30, r24
    5e56:	22 8d       	ldd	r18, Z+26	; 0x1a
    5e58:	80 91 1c 17 	lds	r24, 0x171C	; 0x80171c <pxCurrentTCB>
    5e5c:	90 91 1d 17 	lds	r25, 0x171D	; 0x80171d <pxCurrentTCB+0x1>
    5e60:	fc 01       	movw	r30, r24
    5e62:	82 8d       	ldd	r24, Z+26	; 0x1a
    5e64:	82 17       	cp	r24, r18
    5e66:	10 f4       	brcc	.+4      	; 0x5e6c <xTaskGenericNotify+0x384>
    5e68:	0e 94 c3 0e 	call	0x1d86	; 0x1d86 <vPortYield>
    5e6c:	0f 90       	pop	r0
    5e6e:	0f be       	out	0x3f, r0	; 63
    5e70:	89 81       	ldd	r24, Y+1	; 0x01
    5e72:	62 96       	adiw	r28, 0x12	; 18
    5e74:	0f b6       	in	r0, 0x3f	; 63
    5e76:	f8 94       	cli
    5e78:	de bf       	out	0x3e, r29	; 62
    5e7a:	0f be       	out	0x3f, r0	; 63
    5e7c:	cd bf       	out	0x3d, r28	; 61
    5e7e:	df 91       	pop	r29
    5e80:	cf 91       	pop	r28
    5e82:	0f 91       	pop	r16
    5e84:	ff 90       	pop	r15
    5e86:	ef 90       	pop	r14
    5e88:	08 95       	ret

00005e8a <xTaskGenericNotifyFromISR>:
    5e8a:	cf 92       	push	r12
    5e8c:	df 92       	push	r13
    5e8e:	ef 92       	push	r14
    5e90:	ff 92       	push	r15
    5e92:	0f 93       	push	r16
    5e94:	cf 93       	push	r28
    5e96:	df 93       	push	r29
    5e98:	cd b7       	in	r28, 0x3d	; 61
    5e9a:	de b7       	in	r29, 0x3e	; 62
    5e9c:	67 97       	sbiw	r28, 0x17	; 23
    5e9e:	0f b6       	in	r0, 0x3f	; 63
    5ea0:	f8 94       	cli
    5ea2:	de bf       	out	0x3e, r29	; 62
    5ea4:	0f be       	out	0x3f, r0	; 63
    5ea6:	cd bf       	out	0x3d, r28	; 61
    5ea8:	9d 87       	std	Y+13, r25	; 0x0d
    5eaa:	8c 87       	std	Y+12, r24	; 0x0c
    5eac:	6e 87       	std	Y+14, r22	; 0x0e
    5eae:	2f 87       	std	Y+15, r18	; 0x0f
    5eb0:	38 8b       	std	Y+16, r19	; 0x10
    5eb2:	49 8b       	std	Y+17, r20	; 0x11
    5eb4:	5a 8b       	std	Y+18, r21	; 0x12
    5eb6:	0b 8b       	std	Y+19, r16	; 0x13
    5eb8:	fd 8a       	std	Y+21, r15	; 0x15
    5eba:	ec 8a       	std	Y+20, r14	; 0x14
    5ebc:	df 8a       	std	Y+23, r13	; 0x17
    5ebe:	ce 8a       	std	Y+22, r12	; 0x16
    5ec0:	81 e0       	ldi	r24, 0x01	; 1
    5ec2:	89 83       	std	Y+1, r24	; 0x01
    5ec4:	8c 85       	ldd	r24, Y+12	; 0x0c
    5ec6:	9d 85       	ldd	r25, Y+13	; 0x0d
    5ec8:	9b 83       	std	Y+3, r25	; 0x03
    5eca:	8a 83       	std	Y+2, r24	; 0x02
    5ecc:	1c 82       	std	Y+4, r1	; 0x04
    5ece:	8c 89       	ldd	r24, Y+20	; 0x14
    5ed0:	9d 89       	ldd	r25, Y+21	; 0x15
    5ed2:	89 2b       	or	r24, r25
    5ed4:	c1 f0       	breq	.+48     	; 0x5f06 <xTaskGenericNotifyFromISR+0x7c>
    5ed6:	8e 85       	ldd	r24, Y+14	; 0x0e
    5ed8:	88 2f       	mov	r24, r24
    5eda:	90 e0       	ldi	r25, 0x00	; 0
    5edc:	2a 81       	ldd	r18, Y+2	; 0x02
    5ede:	3b 81       	ldd	r19, Y+3	; 0x03
    5ee0:	88 0f       	add	r24, r24
    5ee2:	99 1f       	adc	r25, r25
    5ee4:	88 0f       	add	r24, r24
    5ee6:	99 1f       	adc	r25, r25
    5ee8:	82 0f       	add	r24, r18
    5eea:	93 1f       	adc	r25, r19
    5eec:	8f 96       	adiw	r24, 0x2f	; 47
    5eee:	fc 01       	movw	r30, r24
    5ef0:	80 81       	ld	r24, Z
    5ef2:	91 81       	ldd	r25, Z+1	; 0x01
    5ef4:	a2 81       	ldd	r26, Z+2	; 0x02
    5ef6:	b3 81       	ldd	r27, Z+3	; 0x03
    5ef8:	2c 89       	ldd	r18, Y+20	; 0x14
    5efa:	3d 89       	ldd	r19, Y+21	; 0x15
    5efc:	f9 01       	movw	r30, r18
    5efe:	80 83       	st	Z, r24
    5f00:	91 83       	std	Z+1, r25	; 0x01
    5f02:	a2 83       	std	Z+2, r26	; 0x02
    5f04:	b3 83       	std	Z+3, r27	; 0x03
    5f06:	8e 85       	ldd	r24, Y+14	; 0x0e
    5f08:	88 2f       	mov	r24, r24
    5f0a:	90 e0       	ldi	r25, 0x00	; 0
    5f0c:	2a 81       	ldd	r18, Y+2	; 0x02
    5f0e:	3b 81       	ldd	r19, Y+3	; 0x03
    5f10:	82 0f       	add	r24, r18
    5f12:	93 1f       	adc	r25, r19
    5f14:	c3 96       	adiw	r24, 0x33	; 51
    5f16:	fc 01       	movw	r30, r24
    5f18:	80 81       	ld	r24, Z
    5f1a:	8d 83       	std	Y+5, r24	; 0x05
    5f1c:	8e 85       	ldd	r24, Y+14	; 0x0e
    5f1e:	88 2f       	mov	r24, r24
    5f20:	90 e0       	ldi	r25, 0x00	; 0
    5f22:	2a 81       	ldd	r18, Y+2	; 0x02
    5f24:	3b 81       	ldd	r19, Y+3	; 0x03
    5f26:	82 0f       	add	r24, r18
    5f28:	93 1f       	adc	r25, r19
    5f2a:	c3 96       	adiw	r24, 0x33	; 51
    5f2c:	22 e0       	ldi	r18, 0x02	; 2
    5f2e:	fc 01       	movw	r30, r24
    5f30:	20 83       	st	Z, r18
    5f32:	8b 89       	ldd	r24, Y+19	; 0x13
    5f34:	88 2f       	mov	r24, r24
    5f36:	90 e0       	ldi	r25, 0x00	; 0
    5f38:	82 30       	cpi	r24, 0x02	; 2
    5f3a:	91 05       	cpc	r25, r1
    5f3c:	09 f4       	brne	.+2      	; 0x5f40 <xTaskGenericNotifyFromISR+0xb6>
    5f3e:	3e c0       	rjmp	.+124    	; 0x5fbc <xTaskGenericNotifyFromISR+0x132>
    5f40:	83 30       	cpi	r24, 0x03	; 3
    5f42:	91 05       	cpc	r25, r1
    5f44:	34 f4       	brge	.+12     	; 0x5f52 <xTaskGenericNotifyFromISR+0xc8>
    5f46:	00 97       	sbiw	r24, 0x00	; 0
    5f48:	09 f4       	brne	.+2      	; 0x5f4c <xTaskGenericNotifyFromISR+0xc2>
    5f4a:	92 c0       	rjmp	.+292    	; 0x6070 <xTaskGenericNotifyFromISR+0x1e6>
    5f4c:	01 97       	sbiw	r24, 0x01	; 1
    5f4e:	49 f0       	breq	.+18     	; 0x5f62 <xTaskGenericNotifyFromISR+0xd8>
    5f50:	90 c0       	rjmp	.+288    	; 0x6072 <xTaskGenericNotifyFromISR+0x1e8>
    5f52:	83 30       	cpi	r24, 0x03	; 3
    5f54:	91 05       	cpc	r25, r1
    5f56:	09 f4       	brne	.+2      	; 0x5f5a <xTaskGenericNotifyFromISR+0xd0>
    5f58:	56 c0       	rjmp	.+172    	; 0x6006 <xTaskGenericNotifyFromISR+0x17c>
    5f5a:	04 97       	sbiw	r24, 0x04	; 4
    5f5c:	09 f4       	brne	.+2      	; 0x5f60 <xTaskGenericNotifyFromISR+0xd6>
    5f5e:	6b c0       	rjmp	.+214    	; 0x6036 <xTaskGenericNotifyFromISR+0x1ac>
    5f60:	88 c0       	rjmp	.+272    	; 0x6072 <xTaskGenericNotifyFromISR+0x1e8>
    5f62:	8e 85       	ldd	r24, Y+14	; 0x0e
    5f64:	68 2f       	mov	r22, r24
    5f66:	70 e0       	ldi	r23, 0x00	; 0
    5f68:	8e 85       	ldd	r24, Y+14	; 0x0e
    5f6a:	88 2f       	mov	r24, r24
    5f6c:	90 e0       	ldi	r25, 0x00	; 0
    5f6e:	2a 81       	ldd	r18, Y+2	; 0x02
    5f70:	3b 81       	ldd	r19, Y+3	; 0x03
    5f72:	88 0f       	add	r24, r24
    5f74:	99 1f       	adc	r25, r25
    5f76:	88 0f       	add	r24, r24
    5f78:	99 1f       	adc	r25, r25
    5f7a:	82 0f       	add	r24, r18
    5f7c:	93 1f       	adc	r25, r19
    5f7e:	8f 96       	adiw	r24, 0x2f	; 47
    5f80:	fc 01       	movw	r30, r24
    5f82:	20 81       	ld	r18, Z
    5f84:	31 81       	ldd	r19, Z+1	; 0x01
    5f86:	42 81       	ldd	r20, Z+2	; 0x02
    5f88:	53 81       	ldd	r21, Z+3	; 0x03
    5f8a:	8f 85       	ldd	r24, Y+15	; 0x0f
    5f8c:	98 89       	ldd	r25, Y+16	; 0x10
    5f8e:	a9 89       	ldd	r26, Y+17	; 0x11
    5f90:	ba 89       	ldd	r27, Y+18	; 0x12
    5f92:	82 2b       	or	r24, r18
    5f94:	93 2b       	or	r25, r19
    5f96:	a4 2b       	or	r26, r20
    5f98:	b5 2b       	or	r27, r21
    5f9a:	4a 81       	ldd	r20, Y+2	; 0x02
    5f9c:	5b 81       	ldd	r21, Y+3	; 0x03
    5f9e:	9b 01       	movw	r18, r22
    5fa0:	22 0f       	add	r18, r18
    5fa2:	33 1f       	adc	r19, r19
    5fa4:	22 0f       	add	r18, r18
    5fa6:	33 1f       	adc	r19, r19
    5fa8:	24 0f       	add	r18, r20
    5faa:	35 1f       	adc	r19, r21
    5fac:	21 5d       	subi	r18, 0xD1	; 209
    5fae:	3f 4f       	sbci	r19, 0xFF	; 255
    5fb0:	f9 01       	movw	r30, r18
    5fb2:	80 83       	st	Z, r24
    5fb4:	91 83       	std	Z+1, r25	; 0x01
    5fb6:	a2 83       	std	Z+2, r26	; 0x02
    5fb8:	b3 83       	std	Z+3, r27	; 0x03
    5fba:	5b c0       	rjmp	.+182    	; 0x6072 <xTaskGenericNotifyFromISR+0x1e8>
    5fbc:	8e 85       	ldd	r24, Y+14	; 0x0e
    5fbe:	28 2f       	mov	r18, r24
    5fc0:	30 e0       	ldi	r19, 0x00	; 0
    5fc2:	4a 81       	ldd	r20, Y+2	; 0x02
    5fc4:	5b 81       	ldd	r21, Y+3	; 0x03
    5fc6:	c9 01       	movw	r24, r18
    5fc8:	88 0f       	add	r24, r24
    5fca:	99 1f       	adc	r25, r25
    5fcc:	88 0f       	add	r24, r24
    5fce:	99 1f       	adc	r25, r25
    5fd0:	84 0f       	add	r24, r20
    5fd2:	95 1f       	adc	r25, r21
    5fd4:	8f 96       	adiw	r24, 0x2f	; 47
    5fd6:	fc 01       	movw	r30, r24
    5fd8:	80 81       	ld	r24, Z
    5fda:	91 81       	ldd	r25, Z+1	; 0x01
    5fdc:	a2 81       	ldd	r26, Z+2	; 0x02
    5fde:	b3 81       	ldd	r27, Z+3	; 0x03
    5fe0:	01 96       	adiw	r24, 0x01	; 1
    5fe2:	a1 1d       	adc	r26, r1
    5fe4:	b1 1d       	adc	r27, r1
    5fe6:	4a 81       	ldd	r20, Y+2	; 0x02
    5fe8:	5b 81       	ldd	r21, Y+3	; 0x03
    5fea:	22 0f       	add	r18, r18
    5fec:	33 1f       	adc	r19, r19
    5fee:	22 0f       	add	r18, r18
    5ff0:	33 1f       	adc	r19, r19
    5ff2:	24 0f       	add	r18, r20
    5ff4:	35 1f       	adc	r19, r21
    5ff6:	21 5d       	subi	r18, 0xD1	; 209
    5ff8:	3f 4f       	sbci	r19, 0xFF	; 255
    5ffa:	f9 01       	movw	r30, r18
    5ffc:	80 83       	st	Z, r24
    5ffe:	91 83       	std	Z+1, r25	; 0x01
    6000:	a2 83       	std	Z+2, r26	; 0x02
    6002:	b3 83       	std	Z+3, r27	; 0x03
    6004:	36 c0       	rjmp	.+108    	; 0x6072 <xTaskGenericNotifyFromISR+0x1e8>
    6006:	8e 85       	ldd	r24, Y+14	; 0x0e
    6008:	88 2f       	mov	r24, r24
    600a:	90 e0       	ldi	r25, 0x00	; 0
    600c:	2a 81       	ldd	r18, Y+2	; 0x02
    600e:	3b 81       	ldd	r19, Y+3	; 0x03
    6010:	88 0f       	add	r24, r24
    6012:	99 1f       	adc	r25, r25
    6014:	88 0f       	add	r24, r24
    6016:	99 1f       	adc	r25, r25
    6018:	82 0f       	add	r24, r18
    601a:	93 1f       	adc	r25, r19
    601c:	9c 01       	movw	r18, r24
    601e:	21 5d       	subi	r18, 0xD1	; 209
    6020:	3f 4f       	sbci	r19, 0xFF	; 255
    6022:	8f 85       	ldd	r24, Y+15	; 0x0f
    6024:	98 89       	ldd	r25, Y+16	; 0x10
    6026:	a9 89       	ldd	r26, Y+17	; 0x11
    6028:	ba 89       	ldd	r27, Y+18	; 0x12
    602a:	f9 01       	movw	r30, r18
    602c:	80 83       	st	Z, r24
    602e:	91 83       	std	Z+1, r25	; 0x01
    6030:	a2 83       	std	Z+2, r26	; 0x02
    6032:	b3 83       	std	Z+3, r27	; 0x03
    6034:	1e c0       	rjmp	.+60     	; 0x6072 <xTaskGenericNotifyFromISR+0x1e8>
    6036:	8d 81       	ldd	r24, Y+5	; 0x05
    6038:	82 30       	cpi	r24, 0x02	; 2
    603a:	c1 f0       	breq	.+48     	; 0x606c <xTaskGenericNotifyFromISR+0x1e2>
    603c:	8e 85       	ldd	r24, Y+14	; 0x0e
    603e:	88 2f       	mov	r24, r24
    6040:	90 e0       	ldi	r25, 0x00	; 0
    6042:	2a 81       	ldd	r18, Y+2	; 0x02
    6044:	3b 81       	ldd	r19, Y+3	; 0x03
    6046:	88 0f       	add	r24, r24
    6048:	99 1f       	adc	r25, r25
    604a:	88 0f       	add	r24, r24
    604c:	99 1f       	adc	r25, r25
    604e:	82 0f       	add	r24, r18
    6050:	93 1f       	adc	r25, r19
    6052:	9c 01       	movw	r18, r24
    6054:	21 5d       	subi	r18, 0xD1	; 209
    6056:	3f 4f       	sbci	r19, 0xFF	; 255
    6058:	8f 85       	ldd	r24, Y+15	; 0x0f
    605a:	98 89       	ldd	r25, Y+16	; 0x10
    605c:	a9 89       	ldd	r26, Y+17	; 0x11
    605e:	ba 89       	ldd	r27, Y+18	; 0x12
    6060:	f9 01       	movw	r30, r18
    6062:	80 83       	st	Z, r24
    6064:	91 83       	std	Z+1, r25	; 0x01
    6066:	a2 83       	std	Z+2, r26	; 0x02
    6068:	b3 83       	std	Z+3, r27	; 0x03
    606a:	03 c0       	rjmp	.+6      	; 0x6072 <xTaskGenericNotifyFromISR+0x1e8>
    606c:	19 82       	std	Y+1, r1	; 0x01
    606e:	01 c0       	rjmp	.+2      	; 0x6072 <xTaskGenericNotifyFromISR+0x1e8>
    6070:	00 00       	nop
    6072:	8d 81       	ldd	r24, Y+5	; 0x05
    6074:	81 30       	cpi	r24, 0x01	; 1
    6076:	09 f0       	breq	.+2      	; 0x607a <xTaskGenericNotifyFromISR+0x1f0>
    6078:	15 c1       	rjmp	.+554    	; 0x62a4 <xTaskGenericNotifyFromISR+0x41a>
    607a:	80 91 d1 17 	lds	r24, 0x17D1	; 0x8017d1 <uxSchedulerSuspended>
    607e:	88 23       	and	r24, r24
    6080:	09 f0       	breq	.+2      	; 0x6084 <xTaskGenericNotifyFromISR+0x1fa>
    6082:	bf c0       	rjmp	.+382    	; 0x6202 <xTaskGenericNotifyFromISR+0x378>
    6084:	8a 81       	ldd	r24, Y+2	; 0x02
    6086:	9b 81       	ldd	r25, Y+3	; 0x03
    6088:	fc 01       	movw	r30, r24
    608a:	84 85       	ldd	r24, Z+12	; 0x0c
    608c:	95 85       	ldd	r25, Z+13	; 0x0d
    608e:	9f 83       	std	Y+7, r25	; 0x07
    6090:	8e 83       	std	Y+6, r24	; 0x06
    6092:	8a 81       	ldd	r24, Y+2	; 0x02
    6094:	9b 81       	ldd	r25, Y+3	; 0x03
    6096:	fc 01       	movw	r30, r24
    6098:	86 81       	ldd	r24, Z+6	; 0x06
    609a:	97 81       	ldd	r25, Z+7	; 0x07
    609c:	2a 81       	ldd	r18, Y+2	; 0x02
    609e:	3b 81       	ldd	r19, Y+3	; 0x03
    60a0:	f9 01       	movw	r30, r18
    60a2:	20 85       	ldd	r18, Z+8	; 0x08
    60a4:	31 85       	ldd	r19, Z+9	; 0x09
    60a6:	fc 01       	movw	r30, r24
    60a8:	37 83       	std	Z+7, r19	; 0x07
    60aa:	26 83       	std	Z+6, r18	; 0x06
    60ac:	8a 81       	ldd	r24, Y+2	; 0x02
    60ae:	9b 81       	ldd	r25, Y+3	; 0x03
    60b0:	fc 01       	movw	r30, r24
    60b2:	80 85       	ldd	r24, Z+8	; 0x08
    60b4:	91 85       	ldd	r25, Z+9	; 0x09
    60b6:	2a 81       	ldd	r18, Y+2	; 0x02
    60b8:	3b 81       	ldd	r19, Y+3	; 0x03
    60ba:	f9 01       	movw	r30, r18
    60bc:	26 81       	ldd	r18, Z+6	; 0x06
    60be:	37 81       	ldd	r19, Z+7	; 0x07
    60c0:	fc 01       	movw	r30, r24
    60c2:	35 83       	std	Z+5, r19	; 0x05
    60c4:	24 83       	std	Z+4, r18	; 0x04
    60c6:	8e 81       	ldd	r24, Y+6	; 0x06
    60c8:	9f 81       	ldd	r25, Y+7	; 0x07
    60ca:	fc 01       	movw	r30, r24
    60cc:	21 81       	ldd	r18, Z+1	; 0x01
    60ce:	32 81       	ldd	r19, Z+2	; 0x02
    60d0:	8a 81       	ldd	r24, Y+2	; 0x02
    60d2:	9b 81       	ldd	r25, Y+3	; 0x03
    60d4:	02 96       	adiw	r24, 0x02	; 2
    60d6:	28 17       	cp	r18, r24
    60d8:	39 07       	cpc	r19, r25
    60da:	51 f4       	brne	.+20     	; 0x60f0 <xTaskGenericNotifyFromISR+0x266>
    60dc:	8a 81       	ldd	r24, Y+2	; 0x02
    60de:	9b 81       	ldd	r25, Y+3	; 0x03
    60e0:	fc 01       	movw	r30, r24
    60e2:	20 85       	ldd	r18, Z+8	; 0x08
    60e4:	31 85       	ldd	r19, Z+9	; 0x09
    60e6:	8e 81       	ldd	r24, Y+6	; 0x06
    60e8:	9f 81       	ldd	r25, Y+7	; 0x07
    60ea:	fc 01       	movw	r30, r24
    60ec:	32 83       	std	Z+2, r19	; 0x02
    60ee:	21 83       	std	Z+1, r18	; 0x01
    60f0:	8a 81       	ldd	r24, Y+2	; 0x02
    60f2:	9b 81       	ldd	r25, Y+3	; 0x03
    60f4:	fc 01       	movw	r30, r24
    60f6:	15 86       	std	Z+13, r1	; 0x0d
    60f8:	14 86       	std	Z+12, r1	; 0x0c
    60fa:	8e 81       	ldd	r24, Y+6	; 0x06
    60fc:	9f 81       	ldd	r25, Y+7	; 0x07
    60fe:	fc 01       	movw	r30, r24
    6100:	80 81       	ld	r24, Z
    6102:	2f ef       	ldi	r18, 0xFF	; 255
    6104:	28 0f       	add	r18, r24
    6106:	8e 81       	ldd	r24, Y+6	; 0x06
    6108:	9f 81       	ldd	r25, Y+7	; 0x07
    610a:	fc 01       	movw	r30, r24
    610c:	20 83       	st	Z, r18
    610e:	8a 81       	ldd	r24, Y+2	; 0x02
    6110:	9b 81       	ldd	r25, Y+3	; 0x03
    6112:	fc 01       	movw	r30, r24
    6114:	92 8d       	ldd	r25, Z+26	; 0x1a
    6116:	80 91 c2 17 	lds	r24, 0x17C2	; 0x8017c2 <uxTopReadyPriority>
    611a:	89 17       	cp	r24, r25
    611c:	30 f4       	brcc	.+12     	; 0x612a <xTaskGenericNotifyFromISR+0x2a0>
    611e:	8a 81       	ldd	r24, Y+2	; 0x02
    6120:	9b 81       	ldd	r25, Y+3	; 0x03
    6122:	fc 01       	movw	r30, r24
    6124:	82 8d       	ldd	r24, Z+26	; 0x1a
    6126:	80 93 c2 17 	sts	0x17C2, r24	; 0x8017c2 <uxTopReadyPriority>
    612a:	8a 81       	ldd	r24, Y+2	; 0x02
    612c:	9b 81       	ldd	r25, Y+3	; 0x03
    612e:	fc 01       	movw	r30, r24
    6130:	82 8d       	ldd	r24, Z+26	; 0x1a
    6132:	28 2f       	mov	r18, r24
    6134:	30 e0       	ldi	r19, 0x00	; 0
    6136:	4b e0       	ldi	r20, 0x0B	; 11
    6138:	42 9f       	mul	r20, r18
    613a:	c0 01       	movw	r24, r0
    613c:	43 9f       	mul	r20, r19
    613e:	90 0d       	add	r25, r0
    6140:	11 24       	eor	r1, r1
    6142:	81 5e       	subi	r24, 0xE1	; 225
    6144:	98 4e       	sbci	r25, 0xE8	; 232
    6146:	fc 01       	movw	r30, r24
    6148:	80 81       	ld	r24, Z
    614a:	91 81       	ldd	r25, Z+1	; 0x01
    614c:	99 87       	std	Y+9, r25	; 0x09
    614e:	88 87       	std	Y+8, r24	; 0x08
    6150:	8a 81       	ldd	r24, Y+2	; 0x02
    6152:	9b 81       	ldd	r25, Y+3	; 0x03
    6154:	28 85       	ldd	r18, Y+8	; 0x08
    6156:	39 85       	ldd	r19, Y+9	; 0x09
    6158:	fc 01       	movw	r30, r24
    615a:	37 83       	std	Z+7, r19	; 0x07
    615c:	26 83       	std	Z+6, r18	; 0x06
    615e:	88 85       	ldd	r24, Y+8	; 0x08
    6160:	99 85       	ldd	r25, Y+9	; 0x09
    6162:	fc 01       	movw	r30, r24
    6164:	26 81       	ldd	r18, Z+6	; 0x06
    6166:	37 81       	ldd	r19, Z+7	; 0x07
    6168:	8a 81       	ldd	r24, Y+2	; 0x02
    616a:	9b 81       	ldd	r25, Y+3	; 0x03
    616c:	fc 01       	movw	r30, r24
    616e:	31 87       	std	Z+9, r19	; 0x09
    6170:	20 87       	std	Z+8, r18	; 0x08
    6172:	88 85       	ldd	r24, Y+8	; 0x08
    6174:	99 85       	ldd	r25, Y+9	; 0x09
    6176:	fc 01       	movw	r30, r24
    6178:	86 81       	ldd	r24, Z+6	; 0x06
    617a:	97 81       	ldd	r25, Z+7	; 0x07
    617c:	2a 81       	ldd	r18, Y+2	; 0x02
    617e:	3b 81       	ldd	r19, Y+3	; 0x03
    6180:	2e 5f       	subi	r18, 0xFE	; 254
    6182:	3f 4f       	sbci	r19, 0xFF	; 255
    6184:	fc 01       	movw	r30, r24
    6186:	35 83       	std	Z+5, r19	; 0x05
    6188:	24 83       	std	Z+4, r18	; 0x04
    618a:	8a 81       	ldd	r24, Y+2	; 0x02
    618c:	9b 81       	ldd	r25, Y+3	; 0x03
    618e:	9c 01       	movw	r18, r24
    6190:	2e 5f       	subi	r18, 0xFE	; 254
    6192:	3f 4f       	sbci	r19, 0xFF	; 255
    6194:	88 85       	ldd	r24, Y+8	; 0x08
    6196:	99 85       	ldd	r25, Y+9	; 0x09
    6198:	fc 01       	movw	r30, r24
    619a:	37 83       	std	Z+7, r19	; 0x07
    619c:	26 83       	std	Z+6, r18	; 0x06
    619e:	8a 81       	ldd	r24, Y+2	; 0x02
    61a0:	9b 81       	ldd	r25, Y+3	; 0x03
    61a2:	fc 01       	movw	r30, r24
    61a4:	82 8d       	ldd	r24, Z+26	; 0x1a
    61a6:	28 2f       	mov	r18, r24
    61a8:	30 e0       	ldi	r19, 0x00	; 0
    61aa:	4b e0       	ldi	r20, 0x0B	; 11
    61ac:	42 9f       	mul	r20, r18
    61ae:	c0 01       	movw	r24, r0
    61b0:	43 9f       	mul	r20, r19
    61b2:	90 0d       	add	r25, r0
    61b4:	11 24       	eor	r1, r1
    61b6:	9c 01       	movw	r18, r24
    61b8:	22 5e       	subi	r18, 0xE2	; 226
    61ba:	38 4e       	sbci	r19, 0xE8	; 232
    61bc:	8a 81       	ldd	r24, Y+2	; 0x02
    61be:	9b 81       	ldd	r25, Y+3	; 0x03
    61c0:	fc 01       	movw	r30, r24
    61c2:	35 87       	std	Z+13, r19	; 0x0d
    61c4:	24 87       	std	Z+12, r18	; 0x0c
    61c6:	8a 81       	ldd	r24, Y+2	; 0x02
    61c8:	9b 81       	ldd	r25, Y+3	; 0x03
    61ca:	fc 01       	movw	r30, r24
    61cc:	82 8d       	ldd	r24, Z+26	; 0x1a
    61ce:	88 2f       	mov	r24, r24
    61d0:	90 e0       	ldi	r25, 0x00	; 0
    61d2:	4b e0       	ldi	r20, 0x0B	; 11
    61d4:	48 9f       	mul	r20, r24
    61d6:	90 01       	movw	r18, r0
    61d8:	49 9f       	mul	r20, r25
    61da:	30 0d       	add	r19, r0
    61dc:	11 24       	eor	r1, r1
    61de:	22 5e       	subi	r18, 0xE2	; 226
    61e0:	38 4e       	sbci	r19, 0xE8	; 232
    61e2:	f9 01       	movw	r30, r18
    61e4:	20 81       	ld	r18, Z
    61e6:	41 e0       	ldi	r20, 0x01	; 1
    61e8:	42 0f       	add	r20, r18
    61ea:	5b e0       	ldi	r21, 0x0B	; 11
    61ec:	58 9f       	mul	r21, r24
    61ee:	90 01       	movw	r18, r0
    61f0:	59 9f       	mul	r21, r25
    61f2:	30 0d       	add	r19, r0
    61f4:	11 24       	eor	r1, r1
    61f6:	c9 01       	movw	r24, r18
    61f8:	82 5e       	subi	r24, 0xE2	; 226
    61fa:	98 4e       	sbci	r25, 0xE8	; 232
    61fc:	fc 01       	movw	r30, r24
    61fe:	40 83       	st	Z, r20
    6200:	39 c0       	rjmp	.+114    	; 0x6274 <xTaskGenericNotifyFromISR+0x3ea>
    6202:	80 91 a7 17 	lds	r24, 0x17A7	; 0x8017a7 <xPendingReadyList+0x1>
    6206:	90 91 a8 17 	lds	r25, 0x17A8	; 0x8017a8 <xPendingReadyList+0x2>
    620a:	9b 87       	std	Y+11, r25	; 0x0b
    620c:	8a 87       	std	Y+10, r24	; 0x0a
    620e:	8a 81       	ldd	r24, Y+2	; 0x02
    6210:	9b 81       	ldd	r25, Y+3	; 0x03
    6212:	2a 85       	ldd	r18, Y+10	; 0x0a
    6214:	3b 85       	ldd	r19, Y+11	; 0x0b
    6216:	fc 01       	movw	r30, r24
    6218:	33 8b       	std	Z+19, r19	; 0x13
    621a:	22 8b       	std	Z+18, r18	; 0x12
    621c:	8a 85       	ldd	r24, Y+10	; 0x0a
    621e:	9b 85       	ldd	r25, Y+11	; 0x0b
    6220:	fc 01       	movw	r30, r24
    6222:	26 81       	ldd	r18, Z+6	; 0x06
    6224:	37 81       	ldd	r19, Z+7	; 0x07
    6226:	8a 81       	ldd	r24, Y+2	; 0x02
    6228:	9b 81       	ldd	r25, Y+3	; 0x03
    622a:	fc 01       	movw	r30, r24
    622c:	35 8b       	std	Z+21, r19	; 0x15
    622e:	24 8b       	std	Z+20, r18	; 0x14
    6230:	8a 85       	ldd	r24, Y+10	; 0x0a
    6232:	9b 85       	ldd	r25, Y+11	; 0x0b
    6234:	fc 01       	movw	r30, r24
    6236:	86 81       	ldd	r24, Z+6	; 0x06
    6238:	97 81       	ldd	r25, Z+7	; 0x07
    623a:	2a 81       	ldd	r18, Y+2	; 0x02
    623c:	3b 81       	ldd	r19, Y+3	; 0x03
    623e:	22 5f       	subi	r18, 0xF2	; 242
    6240:	3f 4f       	sbci	r19, 0xFF	; 255
    6242:	fc 01       	movw	r30, r24
    6244:	35 83       	std	Z+5, r19	; 0x05
    6246:	24 83       	std	Z+4, r18	; 0x04
    6248:	8a 81       	ldd	r24, Y+2	; 0x02
    624a:	9b 81       	ldd	r25, Y+3	; 0x03
    624c:	9c 01       	movw	r18, r24
    624e:	22 5f       	subi	r18, 0xF2	; 242
    6250:	3f 4f       	sbci	r19, 0xFF	; 255
    6252:	8a 85       	ldd	r24, Y+10	; 0x0a
    6254:	9b 85       	ldd	r25, Y+11	; 0x0b
    6256:	fc 01       	movw	r30, r24
    6258:	37 83       	std	Z+7, r19	; 0x07
    625a:	26 83       	std	Z+6, r18	; 0x06
    625c:	8a 81       	ldd	r24, Y+2	; 0x02
    625e:	9b 81       	ldd	r25, Y+3	; 0x03
    6260:	26 ea       	ldi	r18, 0xA6	; 166
    6262:	37 e1       	ldi	r19, 0x17	; 23
    6264:	fc 01       	movw	r30, r24
    6266:	31 8f       	std	Z+25, r19	; 0x19
    6268:	20 8f       	std	Z+24, r18	; 0x18
    626a:	80 91 a6 17 	lds	r24, 0x17A6	; 0x8017a6 <xPendingReadyList>
    626e:	8f 5f       	subi	r24, 0xFF	; 255
    6270:	80 93 a6 17 	sts	0x17A6, r24	; 0x8017a6 <xPendingReadyList>
    6274:	8a 81       	ldd	r24, Y+2	; 0x02
    6276:	9b 81       	ldd	r25, Y+3	; 0x03
    6278:	fc 01       	movw	r30, r24
    627a:	22 8d       	ldd	r18, Z+26	; 0x1a
    627c:	80 91 1c 17 	lds	r24, 0x171C	; 0x80171c <pxCurrentTCB>
    6280:	90 91 1d 17 	lds	r25, 0x171D	; 0x80171d <pxCurrentTCB+0x1>
    6284:	fc 01       	movw	r30, r24
    6286:	82 8d       	ldd	r24, Z+26	; 0x1a
    6288:	82 17       	cp	r24, r18
    628a:	60 f4       	brcc	.+24     	; 0x62a4 <xTaskGenericNotifyFromISR+0x41a>
    628c:	8e 89       	ldd	r24, Y+22	; 0x16
    628e:	9f 89       	ldd	r25, Y+23	; 0x17
    6290:	89 2b       	or	r24, r25
    6292:	29 f0       	breq	.+10     	; 0x629e <xTaskGenericNotifyFromISR+0x414>
    6294:	8e 89       	ldd	r24, Y+22	; 0x16
    6296:	9f 89       	ldd	r25, Y+23	; 0x17
    6298:	21 e0       	ldi	r18, 0x01	; 1
    629a:	fc 01       	movw	r30, r24
    629c:	20 83       	st	Z, r18
    629e:	81 e0       	ldi	r24, 0x01	; 1
    62a0:	80 93 c8 17 	sts	0x17C8, r24	; 0x8017c8 <xYieldPending>
    62a4:	89 81       	ldd	r24, Y+1	; 0x01
    62a6:	67 96       	adiw	r28, 0x17	; 23
    62a8:	0f b6       	in	r0, 0x3f	; 63
    62aa:	f8 94       	cli
    62ac:	de bf       	out	0x3e, r29	; 62
    62ae:	0f be       	out	0x3f, r0	; 63
    62b0:	cd bf       	out	0x3d, r28	; 61
    62b2:	df 91       	pop	r29
    62b4:	cf 91       	pop	r28
    62b6:	0f 91       	pop	r16
    62b8:	ff 90       	pop	r15
    62ba:	ef 90       	pop	r14
    62bc:	df 90       	pop	r13
    62be:	cf 90       	pop	r12
    62c0:	08 95       	ret

000062c2 <xTaskGenericNotifyStateClear>:
    62c2:	cf 93       	push	r28
    62c4:	df 93       	push	r29
    62c6:	00 d0       	rcall	.+0      	; 0x62c8 <xTaskGenericNotifyStateClear+0x6>
    62c8:	00 d0       	rcall	.+0      	; 0x62ca <xTaskGenericNotifyStateClear+0x8>
    62ca:	cd b7       	in	r28, 0x3d	; 61
    62cc:	de b7       	in	r29, 0x3e	; 62
    62ce:	9d 83       	std	Y+5, r25	; 0x05
    62d0:	8c 83       	std	Y+4, r24	; 0x04
    62d2:	6e 83       	std	Y+6, r22	; 0x06
    62d4:	8c 81       	ldd	r24, Y+4	; 0x04
    62d6:	9d 81       	ldd	r25, Y+5	; 0x05
    62d8:	89 2b       	or	r24, r25
    62da:	29 f4       	brne	.+10     	; 0x62e6 <xTaskGenericNotifyStateClear+0x24>
    62dc:	80 91 1c 17 	lds	r24, 0x171C	; 0x80171c <pxCurrentTCB>
    62e0:	90 91 1d 17 	lds	r25, 0x171D	; 0x80171d <pxCurrentTCB+0x1>
    62e4:	02 c0       	rjmp	.+4      	; 0x62ea <xTaskGenericNotifyStateClear+0x28>
    62e6:	8c 81       	ldd	r24, Y+4	; 0x04
    62e8:	9d 81       	ldd	r25, Y+5	; 0x05
    62ea:	9b 83       	std	Y+3, r25	; 0x03
    62ec:	8a 83       	std	Y+2, r24	; 0x02
    62ee:	0f b6       	in	r0, 0x3f	; 63
    62f0:	f8 94       	cli
    62f2:	0f 92       	push	r0
    62f4:	8e 81       	ldd	r24, Y+6	; 0x06
    62f6:	88 2f       	mov	r24, r24
    62f8:	90 e0       	ldi	r25, 0x00	; 0
    62fa:	2a 81       	ldd	r18, Y+2	; 0x02
    62fc:	3b 81       	ldd	r19, Y+3	; 0x03
    62fe:	82 0f       	add	r24, r18
    6300:	93 1f       	adc	r25, r19
    6302:	c3 96       	adiw	r24, 0x33	; 51
    6304:	fc 01       	movw	r30, r24
    6306:	80 81       	ld	r24, Z
    6308:	82 30       	cpi	r24, 0x02	; 2
    630a:	69 f4       	brne	.+26     	; 0x6326 <xTaskGenericNotifyStateClear+0x64>
    630c:	8e 81       	ldd	r24, Y+6	; 0x06
    630e:	88 2f       	mov	r24, r24
    6310:	90 e0       	ldi	r25, 0x00	; 0
    6312:	2a 81       	ldd	r18, Y+2	; 0x02
    6314:	3b 81       	ldd	r19, Y+3	; 0x03
    6316:	82 0f       	add	r24, r18
    6318:	93 1f       	adc	r25, r19
    631a:	c3 96       	adiw	r24, 0x33	; 51
    631c:	fc 01       	movw	r30, r24
    631e:	10 82       	st	Z, r1
    6320:	81 e0       	ldi	r24, 0x01	; 1
    6322:	89 83       	std	Y+1, r24	; 0x01
    6324:	01 c0       	rjmp	.+2      	; 0x6328 <xTaskGenericNotifyStateClear+0x66>
    6326:	19 82       	std	Y+1, r1	; 0x01
    6328:	0f 90       	pop	r0
    632a:	0f be       	out	0x3f, r0	; 63
    632c:	89 81       	ldd	r24, Y+1	; 0x01
    632e:	26 96       	adiw	r28, 0x06	; 6
    6330:	0f b6       	in	r0, 0x3f	; 63
    6332:	f8 94       	cli
    6334:	de bf       	out	0x3e, r29	; 62
    6336:	0f be       	out	0x3f, r0	; 63
    6338:	cd bf       	out	0x3d, r28	; 61
    633a:	df 91       	pop	r29
    633c:	cf 91       	pop	r28
    633e:	08 95       	ret

00006340 <prvAddCurrentTaskToDelayedList>:
    6340:	cf 93       	push	r28
    6342:	df 93       	push	r29
    6344:	cd b7       	in	r28, 0x3d	; 61
    6346:	de b7       	in	r29, 0x3e	; 62
    6348:	2d 97       	sbiw	r28, 0x0d	; 13
    634a:	0f b6       	in	r0, 0x3f	; 63
    634c:	f8 94       	cli
    634e:	de bf       	out	0x3e, r29	; 62
    6350:	0f be       	out	0x3f, r0	; 63
    6352:	cd bf       	out	0x3d, r28	; 61
    6354:	69 87       	std	Y+9, r22	; 0x09
    6356:	7a 87       	std	Y+10, r23	; 0x0a
    6358:	8b 87       	std	Y+11, r24	; 0x0b
    635a:	9c 87       	std	Y+12, r25	; 0x0c
    635c:	4d 87       	std	Y+13, r20	; 0x0d
    635e:	80 91 be 17 	lds	r24, 0x17BE	; 0x8017be <xTickCount>
    6362:	90 91 bf 17 	lds	r25, 0x17BF	; 0x8017bf <xTickCount+0x1>
    6366:	a0 91 c0 17 	lds	r26, 0x17C0	; 0x8017c0 <xTickCount+0x2>
    636a:	b0 91 c1 17 	lds	r27, 0x17C1	; 0x8017c1 <xTickCount+0x3>
    636e:	89 83       	std	Y+1, r24	; 0x01
    6370:	9a 83       	std	Y+2, r25	; 0x02
    6372:	ab 83       	std	Y+3, r26	; 0x03
    6374:	bc 83       	std	Y+4, r27	; 0x04
    6376:	80 91 1c 17 	lds	r24, 0x171C	; 0x80171c <pxCurrentTCB>
    637a:	90 91 1d 17 	lds	r25, 0x171D	; 0x80171d <pxCurrentTCB+0x1>
    637e:	02 96       	adiw	r24, 0x02	; 2
    6380:	0e 94 a6 0d 	call	0x1b4c	; 0x1b4c <uxListRemove>
    6384:	29 81       	ldd	r18, Y+1	; 0x01
    6386:	3a 81       	ldd	r19, Y+2	; 0x02
    6388:	4b 81       	ldd	r20, Y+3	; 0x03
    638a:	5c 81       	ldd	r21, Y+4	; 0x04
    638c:	89 85       	ldd	r24, Y+9	; 0x09
    638e:	9a 85       	ldd	r25, Y+10	; 0x0a
    6390:	ab 85       	ldd	r26, Y+11	; 0x0b
    6392:	bc 85       	ldd	r27, Y+12	; 0x0c
    6394:	82 0f       	add	r24, r18
    6396:	93 1f       	adc	r25, r19
    6398:	a4 1f       	adc	r26, r20
    639a:	b5 1f       	adc	r27, r21
    639c:	8d 83       	std	Y+5, r24	; 0x05
    639e:	9e 83       	std	Y+6, r25	; 0x06
    63a0:	af 83       	std	Y+7, r26	; 0x07
    63a2:	b8 87       	std	Y+8, r27	; 0x08
    63a4:	20 91 1c 17 	lds	r18, 0x171C	; 0x80171c <pxCurrentTCB>
    63a8:	30 91 1d 17 	lds	r19, 0x171D	; 0x80171d <pxCurrentTCB+0x1>
    63ac:	8d 81       	ldd	r24, Y+5	; 0x05
    63ae:	9e 81       	ldd	r25, Y+6	; 0x06
    63b0:	af 81       	ldd	r26, Y+7	; 0x07
    63b2:	b8 85       	ldd	r27, Y+8	; 0x08
    63b4:	f9 01       	movw	r30, r18
    63b6:	82 83       	std	Z+2, r24	; 0x02
    63b8:	93 83       	std	Z+3, r25	; 0x03
    63ba:	a4 83       	std	Z+4, r26	; 0x04
    63bc:	b5 83       	std	Z+5, r27	; 0x05
    63be:	2d 81       	ldd	r18, Y+5	; 0x05
    63c0:	3e 81       	ldd	r19, Y+6	; 0x06
    63c2:	4f 81       	ldd	r20, Y+7	; 0x07
    63c4:	58 85       	ldd	r21, Y+8	; 0x08
    63c6:	89 81       	ldd	r24, Y+1	; 0x01
    63c8:	9a 81       	ldd	r25, Y+2	; 0x02
    63ca:	ab 81       	ldd	r26, Y+3	; 0x03
    63cc:	bc 81       	ldd	r27, Y+4	; 0x04
    63ce:	28 17       	cp	r18, r24
    63d0:	39 07       	cpc	r19, r25
    63d2:	4a 07       	cpc	r20, r26
    63d4:	5b 07       	cpc	r21, r27
    63d6:	78 f4       	brcc	.+30     	; 0x63f6 <prvAddCurrentTaskToDelayedList+0xb6>
    63d8:	80 91 1c 17 	lds	r24, 0x171C	; 0x80171c <pxCurrentTCB>
    63dc:	90 91 1d 17 	lds	r25, 0x171D	; 0x80171d <pxCurrentTCB+0x1>
    63e0:	9c 01       	movw	r18, r24
    63e2:	2e 5f       	subi	r18, 0xFE	; 254
    63e4:	3f 4f       	sbci	r19, 0xFF	; 255
    63e6:	80 91 a4 17 	lds	r24, 0x17A4	; 0x8017a4 <pxOverflowDelayedTaskList>
    63ea:	90 91 a5 17 	lds	r25, 0x17A5	; 0x8017a5 <pxOverflowDelayedTaskList+0x1>
    63ee:	b9 01       	movw	r22, r18
    63f0:	0e 94 1f 0d 	call	0x1a3e	; 0x1a3e <vListInsert>
    63f4:	2b c0       	rjmp	.+86     	; 0x644c <prvAddCurrentTaskToDelayedList+0x10c>
    63f6:	80 91 1c 17 	lds	r24, 0x171C	; 0x80171c <pxCurrentTCB>
    63fa:	90 91 1d 17 	lds	r25, 0x171D	; 0x80171d <pxCurrentTCB+0x1>
    63fe:	9c 01       	movw	r18, r24
    6400:	2e 5f       	subi	r18, 0xFE	; 254
    6402:	3f 4f       	sbci	r19, 0xFF	; 255
    6404:	80 91 a2 17 	lds	r24, 0x17A2	; 0x8017a2 <pxDelayedTaskList>
    6408:	90 91 a3 17 	lds	r25, 0x17A3	; 0x8017a3 <pxDelayedTaskList+0x1>
    640c:	b9 01       	movw	r22, r18
    640e:	0e 94 1f 0d 	call	0x1a3e	; 0x1a3e <vListInsert>
    6412:	80 91 cb 17 	lds	r24, 0x17CB	; 0x8017cb <xNextTaskUnblockTime>
    6416:	90 91 cc 17 	lds	r25, 0x17CC	; 0x8017cc <xNextTaskUnblockTime+0x1>
    641a:	a0 91 cd 17 	lds	r26, 0x17CD	; 0x8017cd <xNextTaskUnblockTime+0x2>
    641e:	b0 91 ce 17 	lds	r27, 0x17CE	; 0x8017ce <xNextTaskUnblockTime+0x3>
    6422:	2d 81       	ldd	r18, Y+5	; 0x05
    6424:	3e 81       	ldd	r19, Y+6	; 0x06
    6426:	4f 81       	ldd	r20, Y+7	; 0x07
    6428:	58 85       	ldd	r21, Y+8	; 0x08
    642a:	28 17       	cp	r18, r24
    642c:	39 07       	cpc	r19, r25
    642e:	4a 07       	cpc	r20, r26
    6430:	5b 07       	cpc	r21, r27
    6432:	60 f4       	brcc	.+24     	; 0x644c <prvAddCurrentTaskToDelayedList+0x10c>
    6434:	8d 81       	ldd	r24, Y+5	; 0x05
    6436:	9e 81       	ldd	r25, Y+6	; 0x06
    6438:	af 81       	ldd	r26, Y+7	; 0x07
    643a:	b8 85       	ldd	r27, Y+8	; 0x08
    643c:	80 93 cb 17 	sts	0x17CB, r24	; 0x8017cb <xNextTaskUnblockTime>
    6440:	90 93 cc 17 	sts	0x17CC, r25	; 0x8017cc <xNextTaskUnblockTime+0x1>
    6444:	a0 93 cd 17 	sts	0x17CD, r26	; 0x8017cd <xNextTaskUnblockTime+0x2>
    6448:	b0 93 ce 17 	sts	0x17CE, r27	; 0x8017ce <xNextTaskUnblockTime+0x3>
    644c:	00 00       	nop
    644e:	2d 96       	adiw	r28, 0x0d	; 13
    6450:	0f b6       	in	r0, 0x3f	; 63
    6452:	f8 94       	cli
    6454:	de bf       	out	0x3e, r29	; 62
    6456:	0f be       	out	0x3f, r0	; 63
    6458:	cd bf       	out	0x3d, r28	; 61
    645a:	df 91       	pop	r29
    645c:	cf 91       	pop	r28
    645e:	08 95       	ret

00006460 <xTimerCreateTimerTask>:
    6460:	ef 92       	push	r14
    6462:	ff 92       	push	r15
    6464:	0f 93       	push	r16
    6466:	cf 93       	push	r28
    6468:	df 93       	push	r29
    646a:	1f 92       	push	r1
    646c:	cd b7       	in	r28, 0x3d	; 61
    646e:	de b7       	in	r29, 0x3e	; 62
    6470:	19 82       	std	Y+1, r1	; 0x01
    6472:	af d4       	rcall	.+2398   	; 0x6dd2 <prvCheckForValidListAndQueue>
    6474:	80 91 ec 17 	lds	r24, 0x17EC	; 0x8017ec <xTimerQueue>
    6478:	90 91 ed 17 	lds	r25, 0x17ED	; 0x8017ed <xTimerQueue+0x1>
    647c:	89 2b       	or	r24, r25
    647e:	91 f0       	breq	.+36     	; 0x64a4 <xTimerCreateTimerTask+0x44>
    6480:	0f 2e       	mov	r0, r31
    6482:	fe ee       	ldi	r31, 0xEE	; 238
    6484:	ef 2e       	mov	r14, r31
    6486:	f7 e1       	ldi	r31, 0x17	; 23
    6488:	ff 2e       	mov	r15, r31
    648a:	f0 2d       	mov	r31, r0
    648c:	03 e0       	ldi	r16, 0x03	; 3
    648e:	20 e0       	ldi	r18, 0x00	; 0
    6490:	30 e0       	ldi	r19, 0x00	; 0
    6492:	40 ec       	ldi	r20, 0xC0	; 192
    6494:	50 e0       	ldi	r21, 0x00	; 0
    6496:	6e e1       	ldi	r22, 0x1E	; 30
    6498:	76 e0       	ldi	r23, 0x06	; 6
    649a:	80 ee       	ldi	r24, 0xE0	; 224
    649c:	90 e0       	ldi	r25, 0x00	; 0
    649e:	0e 94 b5 1b 	call	0x376a	; 0x376a <xTaskCreate>
    64a2:	89 83       	std	Y+1, r24	; 0x01
    64a4:	89 81       	ldd	r24, Y+1	; 0x01
    64a6:	0f 90       	pop	r0
    64a8:	df 91       	pop	r29
    64aa:	cf 91       	pop	r28
    64ac:	0f 91       	pop	r16
    64ae:	ff 90       	pop	r15
    64b0:	ef 90       	pop	r14
    64b2:	08 95       	ret

000064b4 <xTimerGenericCommand>:
    64b4:	cf 92       	push	r12
    64b6:	df 92       	push	r13
    64b8:	ef 92       	push	r14
    64ba:	ff 92       	push	r15
    64bc:	0f 93       	push	r16
    64be:	1f 93       	push	r17
    64c0:	cf 93       	push	r28
    64c2:	df 93       	push	r29
    64c4:	cd b7       	in	r28, 0x3d	; 61
    64c6:	de b7       	in	r29, 0x3e	; 62
    64c8:	65 97       	sbiw	r28, 0x15	; 21
    64ca:	0f b6       	in	r0, 0x3f	; 63
    64cc:	f8 94       	cli
    64ce:	de bf       	out	0x3e, r29	; 62
    64d0:	0f be       	out	0x3f, r0	; 63
    64d2:	cd bf       	out	0x3d, r28	; 61
    64d4:	9a 87       	std	Y+10, r25	; 0x0a
    64d6:	89 87       	std	Y+9, r24	; 0x09
    64d8:	6b 87       	std	Y+11, r22	; 0x0b
    64da:	2c 87       	std	Y+12, r18	; 0x0c
    64dc:	3d 87       	std	Y+13, r19	; 0x0d
    64de:	4e 87       	std	Y+14, r20	; 0x0e
    64e0:	5f 87       	std	Y+15, r21	; 0x0f
    64e2:	19 8b       	std	Y+17, r17	; 0x11
    64e4:	08 8b       	std	Y+16, r16	; 0x10
    64e6:	ca 8a       	std	Y+18, r12	; 0x12
    64e8:	db 8a       	std	Y+19, r13	; 0x13
    64ea:	ec 8a       	std	Y+20, r14	; 0x14
    64ec:	fd 8a       	std	Y+21, r15	; 0x15
    64ee:	19 82       	std	Y+1, r1	; 0x01
    64f0:	80 91 ec 17 	lds	r24, 0x17EC	; 0x8017ec <xTimerQueue>
    64f4:	90 91 ed 17 	lds	r25, 0x17ED	; 0x8017ed <xTimerQueue+0x1>
    64f8:	89 2b       	or	r24, r25
    64fa:	09 f4       	brne	.+2      	; 0x64fe <xTimerGenericCommand+0x4a>
    64fc:	44 c0       	rjmp	.+136    	; 0x6586 <xTimerGenericCommand+0xd2>
    64fe:	8b 85       	ldd	r24, Y+11	; 0x0b
    6500:	8a 83       	std	Y+2, r24	; 0x02
    6502:	8c 85       	ldd	r24, Y+12	; 0x0c
    6504:	9d 85       	ldd	r25, Y+13	; 0x0d
    6506:	ae 85       	ldd	r26, Y+14	; 0x0e
    6508:	bf 85       	ldd	r27, Y+15	; 0x0f
    650a:	8b 83       	std	Y+3, r24	; 0x03
    650c:	9c 83       	std	Y+4, r25	; 0x04
    650e:	ad 83       	std	Y+5, r26	; 0x05
    6510:	be 83       	std	Y+6, r27	; 0x06
    6512:	89 85       	ldd	r24, Y+9	; 0x09
    6514:	9a 85       	ldd	r25, Y+10	; 0x0a
    6516:	98 87       	std	Y+8, r25	; 0x08
    6518:	8f 83       	std	Y+7, r24	; 0x07
    651a:	8b 85       	ldd	r24, Y+11	; 0x0b
    651c:	86 30       	cpi	r24, 0x06	; 6
    651e:	34 f5       	brge	.+76     	; 0x656c <xTimerGenericCommand+0xb8>
    6520:	0e 94 f0 28 	call	0x51e0	; 0x51e0 <xTaskGetSchedulerState>
    6524:	82 30       	cpi	r24, 0x02	; 2
    6526:	99 f4       	brne	.+38     	; 0x654e <xTimerGenericCommand+0x9a>
    6528:	e0 91 ec 17 	lds	r30, 0x17EC	; 0x8017ec <xTimerQueue>
    652c:	f0 91 ed 17 	lds	r31, 0x17ED	; 0x8017ed <xTimerQueue+0x1>
    6530:	8a 89       	ldd	r24, Y+18	; 0x12
    6532:	9b 89       	ldd	r25, Y+19	; 0x13
    6534:	ac 89       	ldd	r26, Y+20	; 0x14
    6536:	bd 89       	ldd	r27, Y+21	; 0x15
    6538:	be 01       	movw	r22, r28
    653a:	6e 5f       	subi	r22, 0xFE	; 254
    653c:	7f 4f       	sbci	r23, 0xFF	; 255
    653e:	00 e0       	ldi	r16, 0x00	; 0
    6540:	9c 01       	movw	r18, r24
    6542:	ad 01       	movw	r20, r26
    6544:	cf 01       	movw	r24, r30
    6546:	0e 94 11 11 	call	0x2222	; 0x2222 <xQueueGenericSend>
    654a:	89 83       	std	Y+1, r24	; 0x01
    654c:	1c c0       	rjmp	.+56     	; 0x6586 <xTimerGenericCommand+0xd2>
    654e:	80 91 ec 17 	lds	r24, 0x17EC	; 0x8017ec <xTimerQueue>
    6552:	90 91 ed 17 	lds	r25, 0x17ED	; 0x8017ed <xTimerQueue+0x1>
    6556:	be 01       	movw	r22, r28
    6558:	6e 5f       	subi	r22, 0xFE	; 254
    655a:	7f 4f       	sbci	r23, 0xFF	; 255
    655c:	00 e0       	ldi	r16, 0x00	; 0
    655e:	20 e0       	ldi	r18, 0x00	; 0
    6560:	30 e0       	ldi	r19, 0x00	; 0
    6562:	a9 01       	movw	r20, r18
    6564:	0e 94 11 11 	call	0x2222	; 0x2222 <xQueueGenericSend>
    6568:	89 83       	std	Y+1, r24	; 0x01
    656a:	0d c0       	rjmp	.+26     	; 0x6586 <xTimerGenericCommand+0xd2>
    656c:	80 91 ec 17 	lds	r24, 0x17EC	; 0x8017ec <xTimerQueue>
    6570:	90 91 ed 17 	lds	r25, 0x17ED	; 0x8017ed <xTimerQueue+0x1>
    6574:	48 89       	ldd	r20, Y+16	; 0x10
    6576:	59 89       	ldd	r21, Y+17	; 0x11
    6578:	be 01       	movw	r22, r28
    657a:	6e 5f       	subi	r22, 0xFE	; 254
    657c:	7f 4f       	sbci	r23, 0xFF	; 255
    657e:	20 e0       	ldi	r18, 0x00	; 0
    6580:	0e 94 c7 11 	call	0x238e	; 0x238e <xQueueGenericSendFromISR>
    6584:	89 83       	std	Y+1, r24	; 0x01
    6586:	89 81       	ldd	r24, Y+1	; 0x01
    6588:	65 96       	adiw	r28, 0x15	; 21
    658a:	0f b6       	in	r0, 0x3f	; 63
    658c:	f8 94       	cli
    658e:	de bf       	out	0x3e, r29	; 62
    6590:	0f be       	out	0x3f, r0	; 63
    6592:	cd bf       	out	0x3d, r28	; 61
    6594:	df 91       	pop	r29
    6596:	cf 91       	pop	r28
    6598:	1f 91       	pop	r17
    659a:	0f 91       	pop	r16
    659c:	ff 90       	pop	r15
    659e:	ef 90       	pop	r14
    65a0:	df 90       	pop	r13
    65a2:	cf 90       	pop	r12
    65a4:	08 95       	ret

000065a6 <prvProcessExpiredTimer>:
    65a6:	cf 92       	push	r12
    65a8:	df 92       	push	r13
    65aa:	ef 92       	push	r14
    65ac:	ff 92       	push	r15
    65ae:	0f 93       	push	r16
    65b0:	1f 93       	push	r17
    65b2:	cf 93       	push	r28
    65b4:	df 93       	push	r29
    65b6:	cd b7       	in	r28, 0x3d	; 61
    65b8:	de b7       	in	r29, 0x3e	; 62
    65ba:	2b 97       	sbiw	r28, 0x0b	; 11
    65bc:	0f b6       	in	r0, 0x3f	; 63
    65be:	f8 94       	cli
    65c0:	de bf       	out	0x3e, r29	; 62
    65c2:	0f be       	out	0x3f, r0	; 63
    65c4:	cd bf       	out	0x3d, r28	; 61
    65c6:	6c 83       	std	Y+4, r22	; 0x04
    65c8:	7d 83       	std	Y+5, r23	; 0x05
    65ca:	8e 83       	std	Y+6, r24	; 0x06
    65cc:	9f 83       	std	Y+7, r25	; 0x07
    65ce:	28 87       	std	Y+8, r18	; 0x08
    65d0:	39 87       	std	Y+9, r19	; 0x09
    65d2:	4a 87       	std	Y+10, r20	; 0x0a
    65d4:	5b 87       	std	Y+11, r21	; 0x0b
    65d6:	80 91 e8 17 	lds	r24, 0x17E8	; 0x8017e8 <pxCurrentTimerList>
    65da:	90 91 e9 17 	lds	r25, 0x17E9	; 0x8017e9 <pxCurrentTimerList+0x1>
    65de:	fc 01       	movw	r30, r24
    65e0:	87 81       	ldd	r24, Z+7	; 0x07
    65e2:	90 85       	ldd	r25, Z+8	; 0x08
    65e4:	fc 01       	movw	r30, r24
    65e6:	80 85       	ldd	r24, Z+8	; 0x08
    65e8:	91 85       	ldd	r25, Z+9	; 0x09
    65ea:	9a 83       	std	Y+2, r25	; 0x02
    65ec:	89 83       	std	Y+1, r24	; 0x01
    65ee:	89 81       	ldd	r24, Y+1	; 0x01
    65f0:	9a 81       	ldd	r25, Y+2	; 0x02
    65f2:	02 96       	adiw	r24, 0x02	; 2
    65f4:	0e 94 a6 0d 	call	0x1b4c	; 0x1b4c <uxListRemove>
    65f8:	89 81       	ldd	r24, Y+1	; 0x01
    65fa:	9a 81       	ldd	r25, Y+2	; 0x02
    65fc:	fc 01       	movw	r30, r24
    65fe:	86 89       	ldd	r24, Z+22	; 0x16
    6600:	88 2f       	mov	r24, r24
    6602:	90 e0       	ldi	r25, 0x00	; 0
    6604:	84 70       	andi	r24, 0x04	; 4
    6606:	99 27       	eor	r25, r25
    6608:	89 2b       	or	r24, r25
    660a:	a9 f1       	breq	.+106    	; 0x6676 <prvProcessExpiredTimer+0xd0>
    660c:	89 81       	ldd	r24, Y+1	; 0x01
    660e:	9a 81       	ldd	r25, Y+2	; 0x02
    6610:	fc 01       	movw	r30, r24
    6612:	26 85       	ldd	r18, Z+14	; 0x0e
    6614:	37 85       	ldd	r19, Z+15	; 0x0f
    6616:	40 89       	ldd	r20, Z+16	; 0x10
    6618:	51 89       	ldd	r21, Z+17	; 0x11
    661a:	8c 81       	ldd	r24, Y+4	; 0x04
    661c:	9d 81       	ldd	r25, Y+5	; 0x05
    661e:	ae 81       	ldd	r26, Y+6	; 0x06
    6620:	bf 81       	ldd	r27, Y+7	; 0x07
    6622:	82 0f       	add	r24, r18
    6624:	93 1f       	adc	r25, r19
    6626:	a4 1f       	adc	r26, r20
    6628:	b5 1f       	adc	r27, r21
    662a:	ec 80       	ldd	r14, Y+4	; 0x04
    662c:	fd 80       	ldd	r15, Y+5	; 0x05
    662e:	0e 81       	ldd	r16, Y+6	; 0x06
    6630:	1f 81       	ldd	r17, Y+7	; 0x07
    6632:	28 85       	ldd	r18, Y+8	; 0x08
    6634:	39 85       	ldd	r19, Y+9	; 0x09
    6636:	4a 85       	ldd	r20, Y+10	; 0x0a
    6638:	5b 85       	ldd	r21, Y+11	; 0x0b
    663a:	e9 81       	ldd	r30, Y+1	; 0x01
    663c:	fa 81       	ldd	r31, Y+2	; 0x02
    663e:	67 01       	movw	r12, r14
    6640:	78 01       	movw	r14, r16
    6642:	89 01       	movw	r16, r18
    6644:	9a 01       	movw	r18, r20
    6646:	ac 01       	movw	r20, r24
    6648:	bd 01       	movw	r22, r26
    664a:	cf 01       	movw	r24, r30
    664c:	3e d1       	rcall	.+636    	; 0x68ca <prvInsertTimerInActiveList>
    664e:	88 23       	and	r24, r24
    6650:	e1 f0       	breq	.+56     	; 0x668a <prvProcessExpiredTimer+0xe4>
    6652:	8c 81       	ldd	r24, Y+4	; 0x04
    6654:	9d 81       	ldd	r25, Y+5	; 0x05
    6656:	ae 81       	ldd	r26, Y+6	; 0x06
    6658:	bf 81       	ldd	r27, Y+7	; 0x07
    665a:	e9 81       	ldd	r30, Y+1	; 0x01
    665c:	fa 81       	ldd	r31, Y+2	; 0x02
    665e:	c1 2c       	mov	r12, r1
    6660:	d1 2c       	mov	r13, r1
    6662:	76 01       	movw	r14, r12
    6664:	00 e0       	ldi	r16, 0x00	; 0
    6666:	10 e0       	ldi	r17, 0x00	; 0
    6668:	9c 01       	movw	r18, r24
    666a:	ad 01       	movw	r20, r26
    666c:	60 e0       	ldi	r22, 0x00	; 0
    666e:	cf 01       	movw	r24, r30
    6670:	21 df       	rcall	.-446    	; 0x64b4 <xTimerGenericCommand>
    6672:	8b 83       	std	Y+3, r24	; 0x03
    6674:	0a c0       	rjmp	.+20     	; 0x668a <prvProcessExpiredTimer+0xe4>
    6676:	89 81       	ldd	r24, Y+1	; 0x01
    6678:	9a 81       	ldd	r25, Y+2	; 0x02
    667a:	fc 01       	movw	r30, r24
    667c:	86 89       	ldd	r24, Z+22	; 0x16
    667e:	28 2f       	mov	r18, r24
    6680:	2e 7f       	andi	r18, 0xFE	; 254
    6682:	89 81       	ldd	r24, Y+1	; 0x01
    6684:	9a 81       	ldd	r25, Y+2	; 0x02
    6686:	fc 01       	movw	r30, r24
    6688:	26 8b       	std	Z+22, r18	; 0x16
    668a:	89 81       	ldd	r24, Y+1	; 0x01
    668c:	9a 81       	ldd	r25, Y+2	; 0x02
    668e:	fc 01       	movw	r30, r24
    6690:	24 89       	ldd	r18, Z+20	; 0x14
    6692:	35 89       	ldd	r19, Z+21	; 0x15
    6694:	89 81       	ldd	r24, Y+1	; 0x01
    6696:	9a 81       	ldd	r25, Y+2	; 0x02
    6698:	f9 01       	movw	r30, r18
    669a:	19 95       	eicall
    669c:	00 00       	nop
    669e:	2b 96       	adiw	r28, 0x0b	; 11
    66a0:	0f b6       	in	r0, 0x3f	; 63
    66a2:	f8 94       	cli
    66a4:	de bf       	out	0x3e, r29	; 62
    66a6:	0f be       	out	0x3f, r0	; 63
    66a8:	cd bf       	out	0x3d, r28	; 61
    66aa:	df 91       	pop	r29
    66ac:	cf 91       	pop	r28
    66ae:	1f 91       	pop	r17
    66b0:	0f 91       	pop	r16
    66b2:	ff 90       	pop	r15
    66b4:	ef 90       	pop	r14
    66b6:	df 90       	pop	r13
    66b8:	cf 90       	pop	r12
    66ba:	08 95       	ret

000066bc <prvProcessTimerOrBlockTask>:
    66bc:	ef 92       	push	r14
    66be:	ff 92       	push	r15
    66c0:	0f 93       	push	r16
    66c2:	1f 93       	push	r17
    66c4:	cf 93       	push	r28
    66c6:	df 93       	push	r29
    66c8:	cd b7       	in	r28, 0x3d	; 61
    66ca:	de b7       	in	r29, 0x3e	; 62
    66cc:	2a 97       	sbiw	r28, 0x0a	; 10
    66ce:	0f b6       	in	r0, 0x3f	; 63
    66d0:	f8 94       	cli
    66d2:	de bf       	out	0x3e, r29	; 62
    66d4:	0f be       	out	0x3f, r0	; 63
    66d6:	cd bf       	out	0x3d, r28	; 61
    66d8:	6e 83       	std	Y+6, r22	; 0x06
    66da:	7f 83       	std	Y+7, r23	; 0x07
    66dc:	88 87       	std	Y+8, r24	; 0x08
    66de:	99 87       	std	Y+9, r25	; 0x09
    66e0:	4a 87       	std	Y+10, r20	; 0x0a
    66e2:	0e 94 14 1f 	call	0x3e28	; 0x3e28 <vTaskSuspendAll>
    66e6:	ce 01       	movw	r24, r28
    66e8:	05 96       	adiw	r24, 0x05	; 5
    66ea:	a8 d0       	rcall	.+336    	; 0x683c <prvSampleTimeNow>
    66ec:	dc 01       	movw	r26, r24
    66ee:	cb 01       	movw	r24, r22
    66f0:	89 83       	std	Y+1, r24	; 0x01
    66f2:	9a 83       	std	Y+2, r25	; 0x02
    66f4:	ab 83       	std	Y+3, r26	; 0x03
    66f6:	bc 83       	std	Y+4, r27	; 0x04
    66f8:	8d 81       	ldd	r24, Y+5	; 0x05
    66fa:	88 23       	and	r24, r24
    66fc:	09 f0       	breq	.+2      	; 0x6700 <prvProcessTimerOrBlockTask+0x44>
    66fe:	4d c0       	rjmp	.+154    	; 0x679a <prvProcessTimerOrBlockTask+0xde>
    6700:	8a 85       	ldd	r24, Y+10	; 0x0a
    6702:	88 23       	and	r24, r24
    6704:	d9 f4       	brne	.+54     	; 0x673c <prvProcessTimerOrBlockTask+0x80>
    6706:	2e 81       	ldd	r18, Y+6	; 0x06
    6708:	3f 81       	ldd	r19, Y+7	; 0x07
    670a:	48 85       	ldd	r20, Y+8	; 0x08
    670c:	59 85       	ldd	r21, Y+9	; 0x09
    670e:	89 81       	ldd	r24, Y+1	; 0x01
    6710:	9a 81       	ldd	r25, Y+2	; 0x02
    6712:	ab 81       	ldd	r26, Y+3	; 0x03
    6714:	bc 81       	ldd	r27, Y+4	; 0x04
    6716:	82 17       	cp	r24, r18
    6718:	93 07       	cpc	r25, r19
    671a:	a4 07       	cpc	r26, r20
    671c:	b5 07       	cpc	r27, r21
    671e:	70 f0       	brcs	.+28     	; 0x673c <prvProcessTimerOrBlockTask+0x80>
    6720:	0e 94 21 1f 	call	0x3e42	; 0x3e42 <xTaskResumeAll>
    6724:	29 81       	ldd	r18, Y+1	; 0x01
    6726:	3a 81       	ldd	r19, Y+2	; 0x02
    6728:	4b 81       	ldd	r20, Y+3	; 0x03
    672a:	5c 81       	ldd	r21, Y+4	; 0x04
    672c:	8e 81       	ldd	r24, Y+6	; 0x06
    672e:	9f 81       	ldd	r25, Y+7	; 0x07
    6730:	a8 85       	ldd	r26, Y+8	; 0x08
    6732:	b9 85       	ldd	r27, Y+9	; 0x09
    6734:	bc 01       	movw	r22, r24
    6736:	cd 01       	movw	r24, r26
    6738:	36 df       	rcall	.-404    	; 0x65a6 <prvProcessExpiredTimer>
    673a:	31 c0       	rjmp	.+98     	; 0x679e <prvProcessTimerOrBlockTask+0xe2>
    673c:	8a 85       	ldd	r24, Y+10	; 0x0a
    673e:	88 23       	and	r24, r24
    6740:	59 f0       	breq	.+22     	; 0x6758 <prvProcessTimerOrBlockTask+0x9c>
    6742:	80 91 ea 17 	lds	r24, 0x17EA	; 0x8017ea <pxOverflowTimerList>
    6746:	90 91 eb 17 	lds	r25, 0x17EB	; 0x8017eb <pxOverflowTimerList+0x1>
    674a:	fc 01       	movw	r30, r24
    674c:	90 81       	ld	r25, Z
    674e:	81 e0       	ldi	r24, 0x01	; 1
    6750:	99 23       	and	r25, r25
    6752:	09 f0       	breq	.+2      	; 0x6756 <prvProcessTimerOrBlockTask+0x9a>
    6754:	80 e0       	ldi	r24, 0x00	; 0
    6756:	8a 87       	std	Y+10, r24	; 0x0a
    6758:	2e 81       	ldd	r18, Y+6	; 0x06
    675a:	3f 81       	ldd	r19, Y+7	; 0x07
    675c:	48 85       	ldd	r20, Y+8	; 0x08
    675e:	59 85       	ldd	r21, Y+9	; 0x09
    6760:	89 81       	ldd	r24, Y+1	; 0x01
    6762:	9a 81       	ldd	r25, Y+2	; 0x02
    6764:	ab 81       	ldd	r26, Y+3	; 0x03
    6766:	bc 81       	ldd	r27, Y+4	; 0x04
    6768:	79 01       	movw	r14, r18
    676a:	8a 01       	movw	r16, r20
    676c:	e8 1a       	sub	r14, r24
    676e:	f9 0a       	sbc	r15, r25
    6770:	0a 0b       	sbc	r16, r26
    6772:	1b 0b       	sbc	r17, r27
    6774:	d8 01       	movw	r26, r16
    6776:	c7 01       	movw	r24, r14
    6778:	e0 91 ec 17 	lds	r30, 0x17EC	; 0x8017ec <xTimerQueue>
    677c:	f0 91 ed 17 	lds	r31, 0x17ED	; 0x8017ed <xTimerQueue+0x1>
    6780:	2a 85       	ldd	r18, Y+10	; 0x0a
    6782:	ac 01       	movw	r20, r24
    6784:	bd 01       	movw	r22, r26
    6786:	cf 01       	movw	r24, r30
    6788:	0e 94 a4 15 	call	0x2b48	; 0x2b48 <vQueueWaitForMessageRestricted>
    678c:	0e 94 21 1f 	call	0x3e42	; 0x3e42 <xTaskResumeAll>
    6790:	88 23       	and	r24, r24
    6792:	29 f4       	brne	.+10     	; 0x679e <prvProcessTimerOrBlockTask+0xe2>
    6794:	0e 94 c3 0e 	call	0x1d86	; 0x1d86 <vPortYield>
    6798:	02 c0       	rjmp	.+4      	; 0x679e <prvProcessTimerOrBlockTask+0xe2>
    679a:	0e 94 21 1f 	call	0x3e42	; 0x3e42 <xTaskResumeAll>
    679e:	00 00       	nop
    67a0:	2a 96       	adiw	r28, 0x0a	; 10
    67a2:	0f b6       	in	r0, 0x3f	; 63
    67a4:	f8 94       	cli
    67a6:	de bf       	out	0x3e, r29	; 62
    67a8:	0f be       	out	0x3f, r0	; 63
    67aa:	cd bf       	out	0x3d, r28	; 61
    67ac:	df 91       	pop	r29
    67ae:	cf 91       	pop	r28
    67b0:	1f 91       	pop	r17
    67b2:	0f 91       	pop	r16
    67b4:	ff 90       	pop	r15
    67b6:	ef 90       	pop	r14
    67b8:	08 95       	ret

000067ba <prvGetNextExpireTime>:
    67ba:	cf 93       	push	r28
    67bc:	df 93       	push	r29
    67be:	00 d0       	rcall	.+0      	; 0x67c0 <prvGetNextExpireTime+0x6>
    67c0:	00 d0       	rcall	.+0      	; 0x67c2 <prvGetNextExpireTime+0x8>
    67c2:	cd b7       	in	r28, 0x3d	; 61
    67c4:	de b7       	in	r29, 0x3e	; 62
    67c6:	9e 83       	std	Y+6, r25	; 0x06
    67c8:	8d 83       	std	Y+5, r24	; 0x05
    67ca:	80 91 e8 17 	lds	r24, 0x17E8	; 0x8017e8 <pxCurrentTimerList>
    67ce:	90 91 e9 17 	lds	r25, 0x17E9	; 0x8017e9 <pxCurrentTimerList+0x1>
    67d2:	fc 01       	movw	r30, r24
    67d4:	90 81       	ld	r25, Z
    67d6:	81 e0       	ldi	r24, 0x01	; 1
    67d8:	99 23       	and	r25, r25
    67da:	09 f0       	breq	.+2      	; 0x67de <prvGetNextExpireTime+0x24>
    67dc:	80 e0       	ldi	r24, 0x00	; 0
    67de:	28 2f       	mov	r18, r24
    67e0:	8d 81       	ldd	r24, Y+5	; 0x05
    67e2:	9e 81       	ldd	r25, Y+6	; 0x06
    67e4:	fc 01       	movw	r30, r24
    67e6:	20 83       	st	Z, r18
    67e8:	8d 81       	ldd	r24, Y+5	; 0x05
    67ea:	9e 81       	ldd	r25, Y+6	; 0x06
    67ec:	fc 01       	movw	r30, r24
    67ee:	80 81       	ld	r24, Z
    67f0:	88 23       	and	r24, r24
    67f2:	89 f4       	brne	.+34     	; 0x6816 <prvGetNextExpireTime+0x5c>
    67f4:	80 91 e8 17 	lds	r24, 0x17E8	; 0x8017e8 <pxCurrentTimerList>
    67f8:	90 91 e9 17 	lds	r25, 0x17E9	; 0x8017e9 <pxCurrentTimerList+0x1>
    67fc:	fc 01       	movw	r30, r24
    67fe:	87 81       	ldd	r24, Z+7	; 0x07
    6800:	90 85       	ldd	r25, Z+8	; 0x08
    6802:	fc 01       	movw	r30, r24
    6804:	80 81       	ld	r24, Z
    6806:	91 81       	ldd	r25, Z+1	; 0x01
    6808:	a2 81       	ldd	r26, Z+2	; 0x02
    680a:	b3 81       	ldd	r27, Z+3	; 0x03
    680c:	89 83       	std	Y+1, r24	; 0x01
    680e:	9a 83       	std	Y+2, r25	; 0x02
    6810:	ab 83       	std	Y+3, r26	; 0x03
    6812:	bc 83       	std	Y+4, r27	; 0x04
    6814:	04 c0       	rjmp	.+8      	; 0x681e <prvGetNextExpireTime+0x64>
    6816:	19 82       	std	Y+1, r1	; 0x01
    6818:	1a 82       	std	Y+2, r1	; 0x02
    681a:	1b 82       	std	Y+3, r1	; 0x03
    681c:	1c 82       	std	Y+4, r1	; 0x04
    681e:	89 81       	ldd	r24, Y+1	; 0x01
    6820:	9a 81       	ldd	r25, Y+2	; 0x02
    6822:	ab 81       	ldd	r26, Y+3	; 0x03
    6824:	bc 81       	ldd	r27, Y+4	; 0x04
    6826:	bc 01       	movw	r22, r24
    6828:	cd 01       	movw	r24, r26
    682a:	26 96       	adiw	r28, 0x06	; 6
    682c:	0f b6       	in	r0, 0x3f	; 63
    682e:	f8 94       	cli
    6830:	de bf       	out	0x3e, r29	; 62
    6832:	0f be       	out	0x3f, r0	; 63
    6834:	cd bf       	out	0x3d, r28	; 61
    6836:	df 91       	pop	r29
    6838:	cf 91       	pop	r28
    683a:	08 95       	ret

0000683c <prvSampleTimeNow>:
    683c:	cf 93       	push	r28
    683e:	df 93       	push	r29
    6840:	00 d0       	rcall	.+0      	; 0x6842 <prvSampleTimeNow+0x6>
    6842:	00 d0       	rcall	.+0      	; 0x6844 <prvSampleTimeNow+0x8>
    6844:	cd b7       	in	r28, 0x3d	; 61
    6846:	de b7       	in	r29, 0x3e	; 62
    6848:	9e 83       	std	Y+6, r25	; 0x06
    684a:	8d 83       	std	Y+5, r24	; 0x05
    684c:	0e 94 b0 20 	call	0x4160	; 0x4160 <xTaskGetTickCount>
    6850:	dc 01       	movw	r26, r24
    6852:	cb 01       	movw	r24, r22
    6854:	89 83       	std	Y+1, r24	; 0x01
    6856:	9a 83       	std	Y+2, r25	; 0x02
    6858:	ab 83       	std	Y+3, r26	; 0x03
    685a:	bc 83       	std	Y+4, r27	; 0x04
    685c:	80 91 f0 17 	lds	r24, 0x17F0	; 0x8017f0 <xLastTime.2436>
    6860:	90 91 f1 17 	lds	r25, 0x17F1	; 0x8017f1 <xLastTime.2436+0x1>
    6864:	a0 91 f2 17 	lds	r26, 0x17F2	; 0x8017f2 <xLastTime.2436+0x2>
    6868:	b0 91 f3 17 	lds	r27, 0x17F3	; 0x8017f3 <xLastTime.2436+0x3>
    686c:	29 81       	ldd	r18, Y+1	; 0x01
    686e:	3a 81       	ldd	r19, Y+2	; 0x02
    6870:	4b 81       	ldd	r20, Y+3	; 0x03
    6872:	5c 81       	ldd	r21, Y+4	; 0x04
    6874:	28 17       	cp	r18, r24
    6876:	39 07       	cpc	r19, r25
    6878:	4a 07       	cpc	r20, r26
    687a:	5b 07       	cpc	r21, r27
    687c:	38 f4       	brcc	.+14     	; 0x688c <prvSampleTimeNow+0x50>
    687e:	e6 d1       	rcall	.+972    	; 0x6c4c <prvSwitchTimerLists>
    6880:	8d 81       	ldd	r24, Y+5	; 0x05
    6882:	9e 81       	ldd	r25, Y+6	; 0x06
    6884:	21 e0       	ldi	r18, 0x01	; 1
    6886:	fc 01       	movw	r30, r24
    6888:	20 83       	st	Z, r18
    688a:	04 c0       	rjmp	.+8      	; 0x6894 <prvSampleTimeNow+0x58>
    688c:	8d 81       	ldd	r24, Y+5	; 0x05
    688e:	9e 81       	ldd	r25, Y+6	; 0x06
    6890:	fc 01       	movw	r30, r24
    6892:	10 82       	st	Z, r1
    6894:	89 81       	ldd	r24, Y+1	; 0x01
    6896:	9a 81       	ldd	r25, Y+2	; 0x02
    6898:	ab 81       	ldd	r26, Y+3	; 0x03
    689a:	bc 81       	ldd	r27, Y+4	; 0x04
    689c:	80 93 f0 17 	sts	0x17F0, r24	; 0x8017f0 <xLastTime.2436>
    68a0:	90 93 f1 17 	sts	0x17F1, r25	; 0x8017f1 <xLastTime.2436+0x1>
    68a4:	a0 93 f2 17 	sts	0x17F2, r26	; 0x8017f2 <xLastTime.2436+0x2>
    68a8:	b0 93 f3 17 	sts	0x17F3, r27	; 0x8017f3 <xLastTime.2436+0x3>
    68ac:	89 81       	ldd	r24, Y+1	; 0x01
    68ae:	9a 81       	ldd	r25, Y+2	; 0x02
    68b0:	ab 81       	ldd	r26, Y+3	; 0x03
    68b2:	bc 81       	ldd	r27, Y+4	; 0x04
    68b4:	bc 01       	movw	r22, r24
    68b6:	cd 01       	movw	r24, r26
    68b8:	26 96       	adiw	r28, 0x06	; 6
    68ba:	0f b6       	in	r0, 0x3f	; 63
    68bc:	f8 94       	cli
    68be:	de bf       	out	0x3e, r29	; 62
    68c0:	0f be       	out	0x3f, r0	; 63
    68c2:	cd bf       	out	0x3d, r28	; 61
    68c4:	df 91       	pop	r29
    68c6:	cf 91       	pop	r28
    68c8:	08 95       	ret

000068ca <prvInsertTimerInActiveList>:
    68ca:	cf 92       	push	r12
    68cc:	df 92       	push	r13
    68ce:	ef 92       	push	r14
    68d0:	ff 92       	push	r15
    68d2:	0f 93       	push	r16
    68d4:	1f 93       	push	r17
    68d6:	cf 93       	push	r28
    68d8:	df 93       	push	r29
    68da:	cd b7       	in	r28, 0x3d	; 61
    68dc:	de b7       	in	r29, 0x3e	; 62
    68de:	2f 97       	sbiw	r28, 0x0f	; 15
    68e0:	0f b6       	in	r0, 0x3f	; 63
    68e2:	f8 94       	cli
    68e4:	de bf       	out	0x3e, r29	; 62
    68e6:	0f be       	out	0x3f, r0	; 63
    68e8:	cd bf       	out	0x3d, r28	; 61
    68ea:	9b 83       	std	Y+3, r25	; 0x03
    68ec:	8a 83       	std	Y+2, r24	; 0x02
    68ee:	4c 83       	std	Y+4, r20	; 0x04
    68f0:	5d 83       	std	Y+5, r21	; 0x05
    68f2:	6e 83       	std	Y+6, r22	; 0x06
    68f4:	7f 83       	std	Y+7, r23	; 0x07
    68f6:	08 87       	std	Y+8, r16	; 0x08
    68f8:	19 87       	std	Y+9, r17	; 0x09
    68fa:	2a 87       	std	Y+10, r18	; 0x0a
    68fc:	3b 87       	std	Y+11, r19	; 0x0b
    68fe:	cc 86       	std	Y+12, r12	; 0x0c
    6900:	dd 86       	std	Y+13, r13	; 0x0d
    6902:	ee 86       	std	Y+14, r14	; 0x0e
    6904:	ff 86       	std	Y+15, r15	; 0x0f
    6906:	19 82       	std	Y+1, r1	; 0x01
    6908:	2a 81       	ldd	r18, Y+2	; 0x02
    690a:	3b 81       	ldd	r19, Y+3	; 0x03
    690c:	8c 81       	ldd	r24, Y+4	; 0x04
    690e:	9d 81       	ldd	r25, Y+5	; 0x05
    6910:	ae 81       	ldd	r26, Y+6	; 0x06
    6912:	bf 81       	ldd	r27, Y+7	; 0x07
    6914:	f9 01       	movw	r30, r18
    6916:	82 83       	std	Z+2, r24	; 0x02
    6918:	93 83       	std	Z+3, r25	; 0x03
    691a:	a4 83       	std	Z+4, r26	; 0x04
    691c:	b5 83       	std	Z+5, r27	; 0x05
    691e:	8a 81       	ldd	r24, Y+2	; 0x02
    6920:	9b 81       	ldd	r25, Y+3	; 0x03
    6922:	2a 81       	ldd	r18, Y+2	; 0x02
    6924:	3b 81       	ldd	r19, Y+3	; 0x03
    6926:	fc 01       	movw	r30, r24
    6928:	33 87       	std	Z+11, r19	; 0x0b
    692a:	22 87       	std	Z+10, r18	; 0x0a
    692c:	2c 81       	ldd	r18, Y+4	; 0x04
    692e:	3d 81       	ldd	r19, Y+5	; 0x05
    6930:	4e 81       	ldd	r20, Y+6	; 0x06
    6932:	5f 81       	ldd	r21, Y+7	; 0x07
    6934:	88 85       	ldd	r24, Y+8	; 0x08
    6936:	99 85       	ldd	r25, Y+9	; 0x09
    6938:	aa 85       	ldd	r26, Y+10	; 0x0a
    693a:	bb 85       	ldd	r27, Y+11	; 0x0b
    693c:	82 17       	cp	r24, r18
    693e:	93 07       	cpc	r25, r19
    6940:	a4 07       	cpc	r26, r20
    6942:	b5 07       	cpc	r27, r21
    6944:	40 f1       	brcs	.+80     	; 0x6996 <prvInsertTimerInActiveList+0xcc>
    6946:	28 85       	ldd	r18, Y+8	; 0x08
    6948:	39 85       	ldd	r19, Y+9	; 0x09
    694a:	4a 85       	ldd	r20, Y+10	; 0x0a
    694c:	5b 85       	ldd	r21, Y+11	; 0x0b
    694e:	8c 85       	ldd	r24, Y+12	; 0x0c
    6950:	9d 85       	ldd	r25, Y+13	; 0x0d
    6952:	ae 85       	ldd	r26, Y+14	; 0x0e
    6954:	bf 85       	ldd	r27, Y+15	; 0x0f
    6956:	28 1b       	sub	r18, r24
    6958:	39 0b       	sbc	r19, r25
    695a:	4a 0b       	sbc	r20, r26
    695c:	5b 0b       	sbc	r21, r27
    695e:	8a 81       	ldd	r24, Y+2	; 0x02
    6960:	9b 81       	ldd	r25, Y+3	; 0x03
    6962:	fc 01       	movw	r30, r24
    6964:	86 85       	ldd	r24, Z+14	; 0x0e
    6966:	97 85       	ldd	r25, Z+15	; 0x0f
    6968:	a0 89       	ldd	r26, Z+16	; 0x10
    696a:	b1 89       	ldd	r27, Z+17	; 0x11
    696c:	28 17       	cp	r18, r24
    696e:	39 07       	cpc	r19, r25
    6970:	4a 07       	cpc	r20, r26
    6972:	5b 07       	cpc	r21, r27
    6974:	18 f0       	brcs	.+6      	; 0x697c <prvInsertTimerInActiveList+0xb2>
    6976:	81 e0       	ldi	r24, 0x01	; 1
    6978:	89 83       	std	Y+1, r24	; 0x01
    697a:	36 c0       	rjmp	.+108    	; 0x69e8 <prvInsertTimerInActiveList+0x11e>
    697c:	8a 81       	ldd	r24, Y+2	; 0x02
    697e:	9b 81       	ldd	r25, Y+3	; 0x03
    6980:	9c 01       	movw	r18, r24
    6982:	2e 5f       	subi	r18, 0xFE	; 254
    6984:	3f 4f       	sbci	r19, 0xFF	; 255
    6986:	80 91 ea 17 	lds	r24, 0x17EA	; 0x8017ea <pxOverflowTimerList>
    698a:	90 91 eb 17 	lds	r25, 0x17EB	; 0x8017eb <pxOverflowTimerList+0x1>
    698e:	b9 01       	movw	r22, r18
    6990:	0e 94 1f 0d 	call	0x1a3e	; 0x1a3e <vListInsert>
    6994:	29 c0       	rjmp	.+82     	; 0x69e8 <prvInsertTimerInActiveList+0x11e>
    6996:	28 85       	ldd	r18, Y+8	; 0x08
    6998:	39 85       	ldd	r19, Y+9	; 0x09
    699a:	4a 85       	ldd	r20, Y+10	; 0x0a
    699c:	5b 85       	ldd	r21, Y+11	; 0x0b
    699e:	8c 85       	ldd	r24, Y+12	; 0x0c
    69a0:	9d 85       	ldd	r25, Y+13	; 0x0d
    69a2:	ae 85       	ldd	r26, Y+14	; 0x0e
    69a4:	bf 85       	ldd	r27, Y+15	; 0x0f
    69a6:	28 17       	cp	r18, r24
    69a8:	39 07       	cpc	r19, r25
    69aa:	4a 07       	cpc	r20, r26
    69ac:	5b 07       	cpc	r21, r27
    69ae:	80 f4       	brcc	.+32     	; 0x69d0 <prvInsertTimerInActiveList+0x106>
    69b0:	2c 81       	ldd	r18, Y+4	; 0x04
    69b2:	3d 81       	ldd	r19, Y+5	; 0x05
    69b4:	4e 81       	ldd	r20, Y+6	; 0x06
    69b6:	5f 81       	ldd	r21, Y+7	; 0x07
    69b8:	8c 85       	ldd	r24, Y+12	; 0x0c
    69ba:	9d 85       	ldd	r25, Y+13	; 0x0d
    69bc:	ae 85       	ldd	r26, Y+14	; 0x0e
    69be:	bf 85       	ldd	r27, Y+15	; 0x0f
    69c0:	28 17       	cp	r18, r24
    69c2:	39 07       	cpc	r19, r25
    69c4:	4a 07       	cpc	r20, r26
    69c6:	5b 07       	cpc	r21, r27
    69c8:	18 f0       	brcs	.+6      	; 0x69d0 <prvInsertTimerInActiveList+0x106>
    69ca:	81 e0       	ldi	r24, 0x01	; 1
    69cc:	89 83       	std	Y+1, r24	; 0x01
    69ce:	0c c0       	rjmp	.+24     	; 0x69e8 <prvInsertTimerInActiveList+0x11e>
    69d0:	8a 81       	ldd	r24, Y+2	; 0x02
    69d2:	9b 81       	ldd	r25, Y+3	; 0x03
    69d4:	9c 01       	movw	r18, r24
    69d6:	2e 5f       	subi	r18, 0xFE	; 254
    69d8:	3f 4f       	sbci	r19, 0xFF	; 255
    69da:	80 91 e8 17 	lds	r24, 0x17E8	; 0x8017e8 <pxCurrentTimerList>
    69de:	90 91 e9 17 	lds	r25, 0x17E9	; 0x8017e9 <pxCurrentTimerList+0x1>
    69e2:	b9 01       	movw	r22, r18
    69e4:	0e 94 1f 0d 	call	0x1a3e	; 0x1a3e <vListInsert>
    69e8:	89 81       	ldd	r24, Y+1	; 0x01
    69ea:	2f 96       	adiw	r28, 0x0f	; 15
    69ec:	0f b6       	in	r0, 0x3f	; 63
    69ee:	f8 94       	cli
    69f0:	de bf       	out	0x3e, r29	; 62
    69f2:	0f be       	out	0x3f, r0	; 63
    69f4:	cd bf       	out	0x3d, r28	; 61
    69f6:	df 91       	pop	r29
    69f8:	cf 91       	pop	r28
    69fa:	1f 91       	pop	r17
    69fc:	0f 91       	pop	r16
    69fe:	ff 90       	pop	r15
    6a00:	ef 90       	pop	r14
    6a02:	df 90       	pop	r13
    6a04:	cf 90       	pop	r12
    6a06:	08 95       	ret

00006a08 <prvProcessReceivedCommands>:
    6a08:	cf 92       	push	r12
    6a0a:	df 92       	push	r13
    6a0c:	ef 92       	push	r14
    6a0e:	ff 92       	push	r15
    6a10:	0f 93       	push	r16
    6a12:	1f 93       	push	r17
    6a14:	cf 93       	push	r28
    6a16:	df 93       	push	r29
    6a18:	cd b7       	in	r28, 0x3d	; 61
    6a1a:	de b7       	in	r29, 0x3e	; 62
    6a1c:	2f 97       	sbiw	r28, 0x0f	; 15
    6a1e:	0f b6       	in	r0, 0x3f	; 63
    6a20:	f8 94       	cli
    6a22:	de bf       	out	0x3e, r29	; 62
    6a24:	0f be       	out	0x3f, r0	; 63
    6a26:	cd bf       	out	0x3d, r28	; 61
    6a28:	f2 c0       	rjmp	.+484    	; 0x6c0e <prvProcessReceivedCommands+0x206>
    6a2a:	88 85       	ldd	r24, Y+8	; 0x08
    6a2c:	88 23       	and	r24, r24
    6a2e:	0c f4       	brge	.+2      	; 0x6a32 <prvProcessReceivedCommands+0x2a>
    6a30:	ee c0       	rjmp	.+476    	; 0x6c0e <prvProcessReceivedCommands+0x206>
    6a32:	8d 85       	ldd	r24, Y+13	; 0x0d
    6a34:	9e 85       	ldd	r25, Y+14	; 0x0e
    6a36:	9a 83       	std	Y+2, r25	; 0x02
    6a38:	89 83       	std	Y+1, r24	; 0x01
    6a3a:	89 81       	ldd	r24, Y+1	; 0x01
    6a3c:	9a 81       	ldd	r25, Y+2	; 0x02
    6a3e:	fc 01       	movw	r30, r24
    6a40:	84 85       	ldd	r24, Z+12	; 0x0c
    6a42:	95 85       	ldd	r25, Z+13	; 0x0d
    6a44:	89 2b       	or	r24, r25
    6a46:	29 f0       	breq	.+10     	; 0x6a52 <prvProcessReceivedCommands+0x4a>
    6a48:	89 81       	ldd	r24, Y+1	; 0x01
    6a4a:	9a 81       	ldd	r25, Y+2	; 0x02
    6a4c:	02 96       	adiw	r24, 0x02	; 2
    6a4e:	0e 94 a6 0d 	call	0x1b4c	; 0x1b4c <uxListRemove>
    6a52:	ce 01       	movw	r24, r28
    6a54:	0f 96       	adiw	r24, 0x0f	; 15
    6a56:	f2 de       	rcall	.-540    	; 0x683c <prvSampleTimeNow>
    6a58:	dc 01       	movw	r26, r24
    6a5a:	cb 01       	movw	r24, r22
    6a5c:	8b 83       	std	Y+3, r24	; 0x03
    6a5e:	9c 83       	std	Y+4, r25	; 0x04
    6a60:	ad 83       	std	Y+5, r26	; 0x05
    6a62:	be 83       	std	Y+6, r27	; 0x06
    6a64:	88 85       	ldd	r24, Y+8	; 0x08
    6a66:	08 2e       	mov	r0, r24
    6a68:	00 0c       	add	r0, r0
    6a6a:	99 0b       	sbc	r25, r25
    6a6c:	09 2e       	mov	r0, r25
    6a6e:	00 0c       	add	r0, r0
    6a70:	aa 0b       	sbc	r26, r26
    6a72:	bb 0b       	sbc	r27, r27
    6a74:	40 e0       	ldi	r20, 0x00	; 0
    6a76:	50 e0       	ldi	r21, 0x00	; 0
    6a78:	29 e0       	ldi	r18, 0x09	; 9
    6a7a:	30 e0       	ldi	r19, 0x00	; 0
    6a7c:	84 1b       	sub	r24, r20
    6a7e:	95 0b       	sbc	r25, r21
    6a80:	28 17       	cp	r18, r24
    6a82:	39 07       	cpc	r19, r25
    6a84:	08 f4       	brcc	.+2      	; 0x6a88 <prvProcessReceivedCommands+0x80>
    6a86:	c2 c0       	rjmp	.+388    	; 0x6c0c <prvProcessReceivedCommands+0x204>
    6a88:	fc 01       	movw	r30, r24
    6a8a:	88 27       	eor	r24, r24
    6a8c:	ee 58       	subi	r30, 0x8E	; 142
    6a8e:	ff 4f       	sbci	r31, 0xFF	; 255
    6a90:	8f 4f       	sbci	r24, 0xFF	; 255
    6a92:	0c 94 fc 47 	jmp	0x8ff8	; 0x8ff8 <__tablejump2__>
    6a96:	89 81       	ldd	r24, Y+1	; 0x01
    6a98:	9a 81       	ldd	r25, Y+2	; 0x02
    6a9a:	fc 01       	movw	r30, r24
    6a9c:	86 89       	ldd	r24, Z+22	; 0x16
    6a9e:	28 2f       	mov	r18, r24
    6aa0:	21 60       	ori	r18, 0x01	; 1
    6aa2:	89 81       	ldd	r24, Y+1	; 0x01
    6aa4:	9a 81       	ldd	r25, Y+2	; 0x02
    6aa6:	fc 01       	movw	r30, r24
    6aa8:	26 8b       	std	Z+22, r18	; 0x16
    6aaa:	e9 84       	ldd	r14, Y+9	; 0x09
    6aac:	fa 84       	ldd	r15, Y+10	; 0x0a
    6aae:	0b 85       	ldd	r16, Y+11	; 0x0b
    6ab0:	1c 85       	ldd	r17, Y+12	; 0x0c
    6ab2:	29 85       	ldd	r18, Y+9	; 0x09
    6ab4:	3a 85       	ldd	r19, Y+10	; 0x0a
    6ab6:	4b 85       	ldd	r20, Y+11	; 0x0b
    6ab8:	5c 85       	ldd	r21, Y+12	; 0x0c
    6aba:	89 81       	ldd	r24, Y+1	; 0x01
    6abc:	9a 81       	ldd	r25, Y+2	; 0x02
    6abe:	fc 01       	movw	r30, r24
    6ac0:	86 85       	ldd	r24, Z+14	; 0x0e
    6ac2:	97 85       	ldd	r25, Z+15	; 0x0f
    6ac4:	a0 89       	ldd	r26, Z+16	; 0x10
    6ac6:	b1 89       	ldd	r27, Z+17	; 0x11
    6ac8:	82 0f       	add	r24, r18
    6aca:	93 1f       	adc	r25, r19
    6acc:	a4 1f       	adc	r26, r20
    6ace:	b5 1f       	adc	r27, r21
    6ad0:	2b 81       	ldd	r18, Y+3	; 0x03
    6ad2:	3c 81       	ldd	r19, Y+4	; 0x04
    6ad4:	4d 81       	ldd	r20, Y+5	; 0x05
    6ad6:	5e 81       	ldd	r21, Y+6	; 0x06
    6ad8:	e9 81       	ldd	r30, Y+1	; 0x01
    6ada:	fa 81       	ldd	r31, Y+2	; 0x02
    6adc:	67 01       	movw	r12, r14
    6ade:	78 01       	movw	r14, r16
    6ae0:	89 01       	movw	r16, r18
    6ae2:	9a 01       	movw	r18, r20
    6ae4:	ac 01       	movw	r20, r24
    6ae6:	bd 01       	movw	r22, r26
    6ae8:	cf 01       	movw	r24, r30
    6aea:	ef de       	rcall	.-546    	; 0x68ca <prvInsertTimerInActiveList>
    6aec:	88 23       	and	r24, r24
    6aee:	09 f4       	brne	.+2      	; 0x6af2 <prvProcessReceivedCommands+0xea>
    6af0:	8e c0       	rjmp	.+284    	; 0x6c0e <prvProcessReceivedCommands+0x206>
    6af2:	89 81       	ldd	r24, Y+1	; 0x01
    6af4:	9a 81       	ldd	r25, Y+2	; 0x02
    6af6:	fc 01       	movw	r30, r24
    6af8:	24 89       	ldd	r18, Z+20	; 0x14
    6afa:	35 89       	ldd	r19, Z+21	; 0x15
    6afc:	89 81       	ldd	r24, Y+1	; 0x01
    6afe:	9a 81       	ldd	r25, Y+2	; 0x02
    6b00:	f9 01       	movw	r30, r18
    6b02:	19 95       	eicall
    6b04:	89 81       	ldd	r24, Y+1	; 0x01
    6b06:	9a 81       	ldd	r25, Y+2	; 0x02
    6b08:	fc 01       	movw	r30, r24
    6b0a:	86 89       	ldd	r24, Z+22	; 0x16
    6b0c:	88 2f       	mov	r24, r24
    6b0e:	90 e0       	ldi	r25, 0x00	; 0
    6b10:	84 70       	andi	r24, 0x04	; 4
    6b12:	99 27       	eor	r25, r25
    6b14:	89 2b       	or	r24, r25
    6b16:	09 f4       	brne	.+2      	; 0x6b1a <prvProcessReceivedCommands+0x112>
    6b18:	7a c0       	rjmp	.+244    	; 0x6c0e <prvProcessReceivedCommands+0x206>
    6b1a:	29 85       	ldd	r18, Y+9	; 0x09
    6b1c:	3a 85       	ldd	r19, Y+10	; 0x0a
    6b1e:	4b 85       	ldd	r20, Y+11	; 0x0b
    6b20:	5c 85       	ldd	r21, Y+12	; 0x0c
    6b22:	89 81       	ldd	r24, Y+1	; 0x01
    6b24:	9a 81       	ldd	r25, Y+2	; 0x02
    6b26:	fc 01       	movw	r30, r24
    6b28:	86 85       	ldd	r24, Z+14	; 0x0e
    6b2a:	97 85       	ldd	r25, Z+15	; 0x0f
    6b2c:	a0 89       	ldd	r26, Z+16	; 0x10
    6b2e:	b1 89       	ldd	r27, Z+17	; 0x11
    6b30:	82 0f       	add	r24, r18
    6b32:	93 1f       	adc	r25, r19
    6b34:	a4 1f       	adc	r26, r20
    6b36:	b5 1f       	adc	r27, r21
    6b38:	e9 81       	ldd	r30, Y+1	; 0x01
    6b3a:	fa 81       	ldd	r31, Y+2	; 0x02
    6b3c:	c1 2c       	mov	r12, r1
    6b3e:	d1 2c       	mov	r13, r1
    6b40:	76 01       	movw	r14, r12
    6b42:	00 e0       	ldi	r16, 0x00	; 0
    6b44:	10 e0       	ldi	r17, 0x00	; 0
    6b46:	9c 01       	movw	r18, r24
    6b48:	ad 01       	movw	r20, r26
    6b4a:	60 e0       	ldi	r22, 0x00	; 0
    6b4c:	cf 01       	movw	r24, r30
    6b4e:	b2 dc       	rcall	.-1692   	; 0x64b4 <xTimerGenericCommand>
    6b50:	8f 83       	std	Y+7, r24	; 0x07
    6b52:	5d c0       	rjmp	.+186    	; 0x6c0e <prvProcessReceivedCommands+0x206>
    6b54:	89 81       	ldd	r24, Y+1	; 0x01
    6b56:	9a 81       	ldd	r25, Y+2	; 0x02
    6b58:	fc 01       	movw	r30, r24
    6b5a:	86 89       	ldd	r24, Z+22	; 0x16
    6b5c:	28 2f       	mov	r18, r24
    6b5e:	2e 7f       	andi	r18, 0xFE	; 254
    6b60:	89 81       	ldd	r24, Y+1	; 0x01
    6b62:	9a 81       	ldd	r25, Y+2	; 0x02
    6b64:	fc 01       	movw	r30, r24
    6b66:	26 8b       	std	Z+22, r18	; 0x16
    6b68:	52 c0       	rjmp	.+164    	; 0x6c0e <prvProcessReceivedCommands+0x206>
    6b6a:	89 81       	ldd	r24, Y+1	; 0x01
    6b6c:	9a 81       	ldd	r25, Y+2	; 0x02
    6b6e:	fc 01       	movw	r30, r24
    6b70:	86 89       	ldd	r24, Z+22	; 0x16
    6b72:	28 2f       	mov	r18, r24
    6b74:	21 60       	ori	r18, 0x01	; 1
    6b76:	89 81       	ldd	r24, Y+1	; 0x01
    6b78:	9a 81       	ldd	r25, Y+2	; 0x02
    6b7a:	fc 01       	movw	r30, r24
    6b7c:	26 8b       	std	Z+22, r18	; 0x16
    6b7e:	89 85       	ldd	r24, Y+9	; 0x09
    6b80:	9a 85       	ldd	r25, Y+10	; 0x0a
    6b82:	ab 85       	ldd	r26, Y+11	; 0x0b
    6b84:	bc 85       	ldd	r27, Y+12	; 0x0c
    6b86:	29 81       	ldd	r18, Y+1	; 0x01
    6b88:	3a 81       	ldd	r19, Y+2	; 0x02
    6b8a:	f9 01       	movw	r30, r18
    6b8c:	86 87       	std	Z+14, r24	; 0x0e
    6b8e:	97 87       	std	Z+15, r25	; 0x0f
    6b90:	a0 8b       	std	Z+16, r26	; 0x10
    6b92:	b1 8b       	std	Z+17, r27	; 0x11
    6b94:	89 81       	ldd	r24, Y+1	; 0x01
    6b96:	9a 81       	ldd	r25, Y+2	; 0x02
    6b98:	fc 01       	movw	r30, r24
    6b9a:	26 85       	ldd	r18, Z+14	; 0x0e
    6b9c:	37 85       	ldd	r19, Z+15	; 0x0f
    6b9e:	40 89       	ldd	r20, Z+16	; 0x10
    6ba0:	51 89       	ldd	r21, Z+17	; 0x11
    6ba2:	8b 81       	ldd	r24, Y+3	; 0x03
    6ba4:	9c 81       	ldd	r25, Y+4	; 0x04
    6ba6:	ad 81       	ldd	r26, Y+5	; 0x05
    6ba8:	be 81       	ldd	r27, Y+6	; 0x06
    6baa:	82 0f       	add	r24, r18
    6bac:	93 1f       	adc	r25, r19
    6bae:	a4 1f       	adc	r26, r20
    6bb0:	b5 1f       	adc	r27, r21
    6bb2:	eb 80       	ldd	r14, Y+3	; 0x03
    6bb4:	fc 80       	ldd	r15, Y+4	; 0x04
    6bb6:	0d 81       	ldd	r16, Y+5	; 0x05
    6bb8:	1e 81       	ldd	r17, Y+6	; 0x06
    6bba:	2b 81       	ldd	r18, Y+3	; 0x03
    6bbc:	3c 81       	ldd	r19, Y+4	; 0x04
    6bbe:	4d 81       	ldd	r20, Y+5	; 0x05
    6bc0:	5e 81       	ldd	r21, Y+6	; 0x06
    6bc2:	e9 81       	ldd	r30, Y+1	; 0x01
    6bc4:	fa 81       	ldd	r31, Y+2	; 0x02
    6bc6:	67 01       	movw	r12, r14
    6bc8:	78 01       	movw	r14, r16
    6bca:	89 01       	movw	r16, r18
    6bcc:	9a 01       	movw	r18, r20
    6bce:	ac 01       	movw	r20, r24
    6bd0:	bd 01       	movw	r22, r26
    6bd2:	cf 01       	movw	r24, r30
    6bd4:	7a de       	rcall	.-780    	; 0x68ca <prvInsertTimerInActiveList>
    6bd6:	1b c0       	rjmp	.+54     	; 0x6c0e <prvProcessReceivedCommands+0x206>
    6bd8:	89 81       	ldd	r24, Y+1	; 0x01
    6bda:	9a 81       	ldd	r25, Y+2	; 0x02
    6bdc:	fc 01       	movw	r30, r24
    6bde:	86 89       	ldd	r24, Z+22	; 0x16
    6be0:	88 2f       	mov	r24, r24
    6be2:	90 e0       	ldi	r25, 0x00	; 0
    6be4:	82 70       	andi	r24, 0x02	; 2
    6be6:	99 27       	eor	r25, r25
    6be8:	89 2b       	or	r24, r25
    6bea:	29 f4       	brne	.+10     	; 0x6bf6 <prvProcessReceivedCommands+0x1ee>
    6bec:	89 81       	ldd	r24, Y+1	; 0x01
    6bee:	9a 81       	ldd	r25, Y+2	; 0x02
    6bf0:	0e 94 2f 0b 	call	0x165e	; 0x165e <vPortFree>
    6bf4:	0c c0       	rjmp	.+24     	; 0x6c0e <prvProcessReceivedCommands+0x206>
    6bf6:	89 81       	ldd	r24, Y+1	; 0x01
    6bf8:	9a 81       	ldd	r25, Y+2	; 0x02
    6bfa:	fc 01       	movw	r30, r24
    6bfc:	86 89       	ldd	r24, Z+22	; 0x16
    6bfe:	28 2f       	mov	r18, r24
    6c00:	2e 7f       	andi	r18, 0xFE	; 254
    6c02:	89 81       	ldd	r24, Y+1	; 0x01
    6c04:	9a 81       	ldd	r25, Y+2	; 0x02
    6c06:	fc 01       	movw	r30, r24
    6c08:	26 8b       	std	Z+22, r18	; 0x16
    6c0a:	01 c0       	rjmp	.+2      	; 0x6c0e <prvProcessReceivedCommands+0x206>
    6c0c:	00 00       	nop
    6c0e:	80 91 ec 17 	lds	r24, 0x17EC	; 0x8017ec <xTimerQueue>
    6c12:	90 91 ed 17 	lds	r25, 0x17ED	; 0x8017ed <xTimerQueue+0x1>
    6c16:	be 01       	movw	r22, r28
    6c18:	68 5f       	subi	r22, 0xF8	; 248
    6c1a:	7f 4f       	sbci	r23, 0xFF	; 255
    6c1c:	20 e0       	ldi	r18, 0x00	; 0
    6c1e:	30 e0       	ldi	r19, 0x00	; 0
    6c20:	a9 01       	movw	r20, r18
    6c22:	0e 94 2a 12 	call	0x2454	; 0x2454 <xQueueReceive>
    6c26:	88 23       	and	r24, r24
    6c28:	09 f0       	breq	.+2      	; 0x6c2c <prvProcessReceivedCommands+0x224>
    6c2a:	ff ce       	rjmp	.-514    	; 0x6a2a <prvProcessReceivedCommands+0x22>
    6c2c:	00 00       	nop
    6c2e:	2f 96       	adiw	r28, 0x0f	; 15
    6c30:	0f b6       	in	r0, 0x3f	; 63
    6c32:	f8 94       	cli
    6c34:	de bf       	out	0x3e, r29	; 62
    6c36:	0f be       	out	0x3f, r0	; 63
    6c38:	cd bf       	out	0x3d, r28	; 61
    6c3a:	df 91       	pop	r29
    6c3c:	cf 91       	pop	r28
    6c3e:	1f 91       	pop	r17
    6c40:	0f 91       	pop	r16
    6c42:	ff 90       	pop	r15
    6c44:	ef 90       	pop	r14
    6c46:	df 90       	pop	r13
    6c48:	cf 90       	pop	r12
    6c4a:	08 95       	ret

00006c4c <prvSwitchTimerLists>:
    6c4c:	cf 92       	push	r12
    6c4e:	df 92       	push	r13
    6c50:	ef 92       	push	r14
    6c52:	ff 92       	push	r15
    6c54:	0f 93       	push	r16
    6c56:	1f 93       	push	r17
    6c58:	cf 93       	push	r28
    6c5a:	df 93       	push	r29
    6c5c:	cd b7       	in	r28, 0x3d	; 61
    6c5e:	de b7       	in	r29, 0x3e	; 62
    6c60:	2d 97       	sbiw	r28, 0x0d	; 13
    6c62:	0f b6       	in	r0, 0x3f	; 63
    6c64:	f8 94       	cli
    6c66:	de bf       	out	0x3e, r29	; 62
    6c68:	0f be       	out	0x3f, r0	; 63
    6c6a:	cd bf       	out	0x3d, r28	; 61
    6c6c:	85 c0       	rjmp	.+266    	; 0x6d78 <prvSwitchTimerLists+0x12c>
    6c6e:	80 91 e8 17 	lds	r24, 0x17E8	; 0x8017e8 <pxCurrentTimerList>
    6c72:	90 91 e9 17 	lds	r25, 0x17E9	; 0x8017e9 <pxCurrentTimerList+0x1>
    6c76:	fc 01       	movw	r30, r24
    6c78:	87 81       	ldd	r24, Z+7	; 0x07
    6c7a:	90 85       	ldd	r25, Z+8	; 0x08
    6c7c:	fc 01       	movw	r30, r24
    6c7e:	80 81       	ld	r24, Z
    6c80:	91 81       	ldd	r25, Z+1	; 0x01
    6c82:	a2 81       	ldd	r26, Z+2	; 0x02
    6c84:	b3 81       	ldd	r27, Z+3	; 0x03
    6c86:	89 83       	std	Y+1, r24	; 0x01
    6c88:	9a 83       	std	Y+2, r25	; 0x02
    6c8a:	ab 83       	std	Y+3, r26	; 0x03
    6c8c:	bc 83       	std	Y+4, r27	; 0x04
    6c8e:	80 91 e8 17 	lds	r24, 0x17E8	; 0x8017e8 <pxCurrentTimerList>
    6c92:	90 91 e9 17 	lds	r25, 0x17E9	; 0x8017e9 <pxCurrentTimerList+0x1>
    6c96:	fc 01       	movw	r30, r24
    6c98:	87 81       	ldd	r24, Z+7	; 0x07
    6c9a:	90 85       	ldd	r25, Z+8	; 0x08
    6c9c:	fc 01       	movw	r30, r24
    6c9e:	80 85       	ldd	r24, Z+8	; 0x08
    6ca0:	91 85       	ldd	r25, Z+9	; 0x09
    6ca2:	9e 83       	std	Y+6, r25	; 0x06
    6ca4:	8d 83       	std	Y+5, r24	; 0x05
    6ca6:	8d 81       	ldd	r24, Y+5	; 0x05
    6ca8:	9e 81       	ldd	r25, Y+6	; 0x06
    6caa:	02 96       	adiw	r24, 0x02	; 2
    6cac:	0e 94 a6 0d 	call	0x1b4c	; 0x1b4c <uxListRemove>
    6cb0:	8d 81       	ldd	r24, Y+5	; 0x05
    6cb2:	9e 81       	ldd	r25, Y+6	; 0x06
    6cb4:	fc 01       	movw	r30, r24
    6cb6:	24 89       	ldd	r18, Z+20	; 0x14
    6cb8:	35 89       	ldd	r19, Z+21	; 0x15
    6cba:	8d 81       	ldd	r24, Y+5	; 0x05
    6cbc:	9e 81       	ldd	r25, Y+6	; 0x06
    6cbe:	f9 01       	movw	r30, r18
    6cc0:	19 95       	eicall
    6cc2:	8d 81       	ldd	r24, Y+5	; 0x05
    6cc4:	9e 81       	ldd	r25, Y+6	; 0x06
    6cc6:	fc 01       	movw	r30, r24
    6cc8:	86 89       	ldd	r24, Z+22	; 0x16
    6cca:	88 2f       	mov	r24, r24
    6ccc:	90 e0       	ldi	r25, 0x00	; 0
    6cce:	84 70       	andi	r24, 0x04	; 4
    6cd0:	99 27       	eor	r25, r25
    6cd2:	89 2b       	or	r24, r25
    6cd4:	09 f4       	brne	.+2      	; 0x6cd8 <prvSwitchTimerLists+0x8c>
    6cd6:	50 c0       	rjmp	.+160    	; 0x6d78 <prvSwitchTimerLists+0x12c>
    6cd8:	8d 81       	ldd	r24, Y+5	; 0x05
    6cda:	9e 81       	ldd	r25, Y+6	; 0x06
    6cdc:	fc 01       	movw	r30, r24
    6cde:	26 85       	ldd	r18, Z+14	; 0x0e
    6ce0:	37 85       	ldd	r19, Z+15	; 0x0f
    6ce2:	40 89       	ldd	r20, Z+16	; 0x10
    6ce4:	51 89       	ldd	r21, Z+17	; 0x11
    6ce6:	89 81       	ldd	r24, Y+1	; 0x01
    6ce8:	9a 81       	ldd	r25, Y+2	; 0x02
    6cea:	ab 81       	ldd	r26, Y+3	; 0x03
    6cec:	bc 81       	ldd	r27, Y+4	; 0x04
    6cee:	82 0f       	add	r24, r18
    6cf0:	93 1f       	adc	r25, r19
    6cf2:	a4 1f       	adc	r26, r20
    6cf4:	b5 1f       	adc	r27, r21
    6cf6:	8f 83       	std	Y+7, r24	; 0x07
    6cf8:	98 87       	std	Y+8, r25	; 0x08
    6cfa:	a9 87       	std	Y+9, r26	; 0x09
    6cfc:	ba 87       	std	Y+10, r27	; 0x0a
    6cfe:	2f 81       	ldd	r18, Y+7	; 0x07
    6d00:	38 85       	ldd	r19, Y+8	; 0x08
    6d02:	49 85       	ldd	r20, Y+9	; 0x09
    6d04:	5a 85       	ldd	r21, Y+10	; 0x0a
    6d06:	89 81       	ldd	r24, Y+1	; 0x01
    6d08:	9a 81       	ldd	r25, Y+2	; 0x02
    6d0a:	ab 81       	ldd	r26, Y+3	; 0x03
    6d0c:	bc 81       	ldd	r27, Y+4	; 0x04
    6d0e:	82 17       	cp	r24, r18
    6d10:	93 07       	cpc	r25, r19
    6d12:	a4 07       	cpc	r26, r20
    6d14:	b5 07       	cpc	r27, r21
    6d16:	f8 f4       	brcc	.+62     	; 0x6d56 <prvSwitchTimerLists+0x10a>
    6d18:	2d 81       	ldd	r18, Y+5	; 0x05
    6d1a:	3e 81       	ldd	r19, Y+6	; 0x06
    6d1c:	8f 81       	ldd	r24, Y+7	; 0x07
    6d1e:	98 85       	ldd	r25, Y+8	; 0x08
    6d20:	a9 85       	ldd	r26, Y+9	; 0x09
    6d22:	ba 85       	ldd	r27, Y+10	; 0x0a
    6d24:	f9 01       	movw	r30, r18
    6d26:	82 83       	std	Z+2, r24	; 0x02
    6d28:	93 83       	std	Z+3, r25	; 0x03
    6d2a:	a4 83       	std	Z+4, r26	; 0x04
    6d2c:	b5 83       	std	Z+5, r27	; 0x05
    6d2e:	8d 81       	ldd	r24, Y+5	; 0x05
    6d30:	9e 81       	ldd	r25, Y+6	; 0x06
    6d32:	2d 81       	ldd	r18, Y+5	; 0x05
    6d34:	3e 81       	ldd	r19, Y+6	; 0x06
    6d36:	fc 01       	movw	r30, r24
    6d38:	33 87       	std	Z+11, r19	; 0x0b
    6d3a:	22 87       	std	Z+10, r18	; 0x0a
    6d3c:	8d 81       	ldd	r24, Y+5	; 0x05
    6d3e:	9e 81       	ldd	r25, Y+6	; 0x06
    6d40:	9c 01       	movw	r18, r24
    6d42:	2e 5f       	subi	r18, 0xFE	; 254
    6d44:	3f 4f       	sbci	r19, 0xFF	; 255
    6d46:	80 91 e8 17 	lds	r24, 0x17E8	; 0x8017e8 <pxCurrentTimerList>
    6d4a:	90 91 e9 17 	lds	r25, 0x17E9	; 0x8017e9 <pxCurrentTimerList+0x1>
    6d4e:	b9 01       	movw	r22, r18
    6d50:	0e 94 1f 0d 	call	0x1a3e	; 0x1a3e <vListInsert>
    6d54:	11 c0       	rjmp	.+34     	; 0x6d78 <prvSwitchTimerLists+0x12c>
    6d56:	89 81       	ldd	r24, Y+1	; 0x01
    6d58:	9a 81       	ldd	r25, Y+2	; 0x02
    6d5a:	ab 81       	ldd	r26, Y+3	; 0x03
    6d5c:	bc 81       	ldd	r27, Y+4	; 0x04
    6d5e:	ed 81       	ldd	r30, Y+5	; 0x05
    6d60:	fe 81       	ldd	r31, Y+6	; 0x06
    6d62:	c1 2c       	mov	r12, r1
    6d64:	d1 2c       	mov	r13, r1
    6d66:	76 01       	movw	r14, r12
    6d68:	00 e0       	ldi	r16, 0x00	; 0
    6d6a:	10 e0       	ldi	r17, 0x00	; 0
    6d6c:	9c 01       	movw	r18, r24
    6d6e:	ad 01       	movw	r20, r26
    6d70:	60 e0       	ldi	r22, 0x00	; 0
    6d72:	cf 01       	movw	r24, r30
    6d74:	9f db       	rcall	.-2242   	; 0x64b4 <xTimerGenericCommand>
    6d76:	8b 87       	std	Y+11, r24	; 0x0b
    6d78:	80 91 e8 17 	lds	r24, 0x17E8	; 0x8017e8 <pxCurrentTimerList>
    6d7c:	90 91 e9 17 	lds	r25, 0x17E9	; 0x8017e9 <pxCurrentTimerList+0x1>
    6d80:	fc 01       	movw	r30, r24
    6d82:	80 81       	ld	r24, Z
    6d84:	88 23       	and	r24, r24
    6d86:	09 f0       	breq	.+2      	; 0x6d8a <prvSwitchTimerLists+0x13e>
    6d88:	72 cf       	rjmp	.-284    	; 0x6c6e <prvSwitchTimerLists+0x22>
    6d8a:	80 91 e8 17 	lds	r24, 0x17E8	; 0x8017e8 <pxCurrentTimerList>
    6d8e:	90 91 e9 17 	lds	r25, 0x17E9	; 0x8017e9 <pxCurrentTimerList+0x1>
    6d92:	9d 87       	std	Y+13, r25	; 0x0d
    6d94:	8c 87       	std	Y+12, r24	; 0x0c
    6d96:	80 91 ea 17 	lds	r24, 0x17EA	; 0x8017ea <pxOverflowTimerList>
    6d9a:	90 91 eb 17 	lds	r25, 0x17EB	; 0x8017eb <pxOverflowTimerList+0x1>
    6d9e:	90 93 e9 17 	sts	0x17E9, r25	; 0x8017e9 <pxCurrentTimerList+0x1>
    6da2:	80 93 e8 17 	sts	0x17E8, r24	; 0x8017e8 <pxCurrentTimerList>
    6da6:	8c 85       	ldd	r24, Y+12	; 0x0c
    6da8:	9d 85       	ldd	r25, Y+13	; 0x0d
    6daa:	90 93 eb 17 	sts	0x17EB, r25	; 0x8017eb <pxOverflowTimerList+0x1>
    6dae:	80 93 ea 17 	sts	0x17EA, r24	; 0x8017ea <pxOverflowTimerList>
    6db2:	00 00       	nop
    6db4:	2d 96       	adiw	r28, 0x0d	; 13
    6db6:	0f b6       	in	r0, 0x3f	; 63
    6db8:	f8 94       	cli
    6dba:	de bf       	out	0x3e, r29	; 62
    6dbc:	0f be       	out	0x3f, r0	; 63
    6dbe:	cd bf       	out	0x3d, r28	; 61
    6dc0:	df 91       	pop	r29
    6dc2:	cf 91       	pop	r28
    6dc4:	1f 91       	pop	r17
    6dc6:	0f 91       	pop	r16
    6dc8:	ff 90       	pop	r15
    6dca:	ef 90       	pop	r14
    6dcc:	df 90       	pop	r13
    6dce:	cf 90       	pop	r12
    6dd0:	08 95       	ret

00006dd2 <prvCheckForValidListAndQueue>:
    6dd2:	cf 93       	push	r28
    6dd4:	df 93       	push	r29
    6dd6:	cd b7       	in	r28, 0x3d	; 61
    6dd8:	de b7       	in	r29, 0x3e	; 62
    6dda:	0f b6       	in	r0, 0x3f	; 63
    6ddc:	f8 94       	cli
    6dde:	0f 92       	push	r0
    6de0:	80 91 ec 17 	lds	r24, 0x17EC	; 0x8017ec <xTimerQueue>
    6de4:	90 91 ed 17 	lds	r25, 0x17ED	; 0x8017ed <xTimerQueue+0x1>
    6de8:	89 2b       	or	r24, r25
    6dea:	e9 f4       	brne	.+58     	; 0x6e26 <prvCheckForValidListAndQueue+0x54>
    6dec:	82 ed       	ldi	r24, 0xD2	; 210
    6dee:	97 e1       	ldi	r25, 0x17	; 23
    6df0:	0e 94 d2 0c 	call	0x19a4	; 0x19a4 <vListInitialise>
    6df4:	8d ed       	ldi	r24, 0xDD	; 221
    6df6:	97 e1       	ldi	r25, 0x17	; 23
    6df8:	0e 94 d2 0c 	call	0x19a4	; 0x19a4 <vListInitialise>
    6dfc:	82 ed       	ldi	r24, 0xD2	; 210
    6dfe:	97 e1       	ldi	r25, 0x17	; 23
    6e00:	90 93 e9 17 	sts	0x17E9, r25	; 0x8017e9 <pxCurrentTimerList+0x1>
    6e04:	80 93 e8 17 	sts	0x17E8, r24	; 0x8017e8 <pxCurrentTimerList>
    6e08:	8d ed       	ldi	r24, 0xDD	; 221
    6e0a:	97 e1       	ldi	r25, 0x17	; 23
    6e0c:	90 93 eb 17 	sts	0x17EB, r25	; 0x8017eb <pxOverflowTimerList+0x1>
    6e10:	80 93 ea 17 	sts	0x17EA, r24	; 0x8017ea <pxOverflowTimerList>
    6e14:	40 e0       	ldi	r20, 0x00	; 0
    6e16:	67 e0       	ldi	r22, 0x07	; 7
    6e18:	8a e0       	ldi	r24, 0x0A	; 10
    6e1a:	0e 94 41 10 	call	0x2082	; 0x2082 <xQueueGenericCreate>
    6e1e:	90 93 ed 17 	sts	0x17ED, r25	; 0x8017ed <xTimerQueue+0x1>
    6e22:	80 93 ec 17 	sts	0x17EC, r24	; 0x8017ec <xTimerQueue>
    6e26:	0f 90       	pop	r0
    6e28:	0f be       	out	0x3f, r0	; 63
    6e2a:	00 00       	nop
    6e2c:	df 91       	pop	r29
    6e2e:	cf 91       	pop	r28
    6e30:	08 95       	ret

00006e32 <vApplicationIdleHook>:
    6e32:	cf 93       	push	r28
    6e34:	df 93       	push	r29
    6e36:	cd b7       	in	r28, 0x3d	; 61
    6e38:	de b7       	in	r29, 0x3e	; 62
    6e3a:	00 00       	nop
    6e3c:	df 91       	pop	r29
    6e3e:	cf 91       	pop	r28
    6e40:	08 95       	ret

00006e42 <prvSetMainLedOn>:
    6e42:	cf 93       	push	r28
    6e44:	df 93       	push	r29
    6e46:	cd b7       	in	r28, 0x3d	; 61
    6e48:	de b7       	in	r29, 0x3e	; 62
    6e4a:	84 e2       	ldi	r24, 0x24	; 36
    6e4c:	90 e0       	ldi	r25, 0x00	; 0
    6e4e:	24 e2       	ldi	r18, 0x24	; 36
    6e50:	30 e0       	ldi	r19, 0x00	; 0
    6e52:	f9 01       	movw	r30, r18
    6e54:	20 81       	ld	r18, Z
    6e56:	20 68       	ori	r18, 0x80	; 128
    6e58:	fc 01       	movw	r30, r24
    6e5a:	20 83       	st	Z, r18
    6e5c:	85 e2       	ldi	r24, 0x25	; 37
    6e5e:	90 e0       	ldi	r25, 0x00	; 0
    6e60:	25 e2       	ldi	r18, 0x25	; 37
    6e62:	30 e0       	ldi	r19, 0x00	; 0
    6e64:	f9 01       	movw	r30, r18
    6e66:	20 81       	ld	r18, Z
    6e68:	20 68       	ori	r18, 0x80	; 128
    6e6a:	fc 01       	movw	r30, r24
    6e6c:	20 83       	st	Z, r18
    6e6e:	00 00       	nop
    6e70:	df 91       	pop	r29
    6e72:	cf 91       	pop	r28
    6e74:	08 95       	ret

00006e76 <prvBlinkMainLed>:
    6e76:	cf 93       	push	r28
    6e78:	df 93       	push	r29
    6e7a:	cd b7       	in	r28, 0x3d	; 61
    6e7c:	de b7       	in	r29, 0x3e	; 62
    6e7e:	83 e2       	ldi	r24, 0x23	; 35
    6e80:	90 e0       	ldi	r25, 0x00	; 0
    6e82:	23 e2       	ldi	r18, 0x23	; 35
    6e84:	30 e0       	ldi	r19, 0x00	; 0
    6e86:	f9 01       	movw	r30, r18
    6e88:	20 81       	ld	r18, Z
    6e8a:	20 68       	ori	r18, 0x80	; 128
    6e8c:	fc 01       	movw	r30, r24
    6e8e:	20 83       	st	Z, r18
    6e90:	00 00       	nop
    6e92:	df 91       	pop	r29
    6e94:	cf 91       	pop	r28
    6e96:	08 95       	ret

00006e98 <vApplicationMallocFailedHook>:
    6e98:	cf 93       	push	r28
    6e9a:	df 93       	push	r29
    6e9c:	cd b7       	in	r28, 0x3d	; 61
    6e9e:	de b7       	in	r29, 0x3e	; 62
    6ea0:	2e 97       	sbiw	r28, 0x0e	; 14
    6ea2:	0f b6       	in	r0, 0x3f	; 63
    6ea4:	f8 94       	cli
    6ea6:	de bf       	out	0x3e, r29	; 62
    6ea8:	0f be       	out	0x3f, r0	; 63
    6eaa:	cd bf       	out	0x3d, r28	; 61
    6eac:	ca df       	rcall	.-108    	; 0x6e42 <prvSetMainLedOn>
    6eae:	80 e0       	ldi	r24, 0x00	; 0
    6eb0:	90 e0       	ldi	r25, 0x00	; 0
    6eb2:	a8 e4       	ldi	r26, 0x48	; 72
    6eb4:	b2 e4       	ldi	r27, 0x42	; 66
    6eb6:	89 83       	std	Y+1, r24	; 0x01
    6eb8:	9a 83       	std	Y+2, r25	; 0x02
    6eba:	ab 83       	std	Y+3, r26	; 0x03
    6ebc:	bc 83       	std	Y+4, r27	; 0x04

	__builtin_avr_delay_cycles(__ticks_dc);

#else
	uint16_t __ticks;
	__tmp = ((F_CPU) / 4e3) * __ms;
    6ebe:	20 e0       	ldi	r18, 0x00	; 0
    6ec0:	30 e0       	ldi	r19, 0x00	; 0
    6ec2:	4a e7       	ldi	r20, 0x7A	; 122
    6ec4:	55 e4       	ldi	r21, 0x45	; 69
    6ec6:	69 81       	ldd	r22, Y+1	; 0x01
    6ec8:	7a 81       	ldd	r23, Y+2	; 0x02
    6eca:	8b 81       	ldd	r24, Y+3	; 0x03
    6ecc:	9c 81       	ldd	r25, Y+4	; 0x04
    6ece:	ae d1       	rcall	.+860    	; 0x722c <__mulsf3>
    6ed0:	dc 01       	movw	r26, r24
    6ed2:	cb 01       	movw	r24, r22
    6ed4:	8d 83       	std	Y+5, r24	; 0x05
    6ed6:	9e 83       	std	Y+6, r25	; 0x06
    6ed8:	af 83       	std	Y+7, r26	; 0x07
    6eda:	b8 87       	std	Y+8, r27	; 0x08
	if (__tmp < 1.0)
    6edc:	20 e0       	ldi	r18, 0x00	; 0
    6ede:	30 e0       	ldi	r19, 0x00	; 0
    6ee0:	40 e8       	ldi	r20, 0x80	; 128
    6ee2:	5f e3       	ldi	r21, 0x3F	; 63
    6ee4:	6d 81       	ldd	r22, Y+5	; 0x05
    6ee6:	7e 81       	ldd	r23, Y+6	; 0x06
    6ee8:	8f 81       	ldd	r24, Y+7	; 0x07
    6eea:	98 85       	ldd	r25, Y+8	; 0x08
    6eec:	1e d1       	rcall	.+572    	; 0x712a <__cmpsf2>
    6eee:	88 23       	and	r24, r24
    6ef0:	2c f4       	brge	.+10     	; 0x6efc <vApplicationMallocFailedHook+0x64>
		__ticks = 1;
    6ef2:	81 e0       	ldi	r24, 0x01	; 1
    6ef4:	90 e0       	ldi	r25, 0x00	; 0
    6ef6:	9a 87       	std	Y+10, r25	; 0x0a
    6ef8:	89 87       	std	Y+9, r24	; 0x09
    6efa:	3b c0       	rjmp	.+118    	; 0x6f72 <vApplicationMallocFailedHook+0xda>
	else if (__tmp > 65535)
    6efc:	20 e0       	ldi	r18, 0x00	; 0
    6efe:	3f ef       	ldi	r19, 0xFF	; 255
    6f00:	4f e7       	ldi	r20, 0x7F	; 127
    6f02:	57 e4       	ldi	r21, 0x47	; 71
    6f04:	6d 81       	ldd	r22, Y+5	; 0x05
    6f06:	7e 81       	ldd	r23, Y+6	; 0x06
    6f08:	8f 81       	ldd	r24, Y+7	; 0x07
    6f0a:	98 85       	ldd	r25, Y+8	; 0x08
    6f0c:	8b d1       	rcall	.+790    	; 0x7224 <__gesf2>
    6f0e:	18 16       	cp	r1, r24
    6f10:	3c f5       	brge	.+78     	; 0x6f60 <vApplicationMallocFailedHook+0xc8>
	{
		//	__ticks = requested delay in 1/10 ms
		__ticks = (uint16_t) (__ms * 10.0);
    6f12:	20 e0       	ldi	r18, 0x00	; 0
    6f14:	30 e0       	ldi	r19, 0x00	; 0
    6f16:	40 e2       	ldi	r20, 0x20	; 32
    6f18:	51 e4       	ldi	r21, 0x41	; 65
    6f1a:	69 81       	ldd	r22, Y+1	; 0x01
    6f1c:	7a 81       	ldd	r23, Y+2	; 0x02
    6f1e:	8b 81       	ldd	r24, Y+3	; 0x03
    6f20:	9c 81       	ldd	r25, Y+4	; 0x04
    6f22:	84 d1       	rcall	.+776    	; 0x722c <__mulsf3>
    6f24:	dc 01       	movw	r26, r24
    6f26:	cb 01       	movw	r24, r22
    6f28:	bc 01       	movw	r22, r24
    6f2a:	cd 01       	movw	r24, r26
    6f2c:	02 d1       	rcall	.+516    	; 0x7132 <__fixunssfsi>
    6f2e:	dc 01       	movw	r26, r24
    6f30:	cb 01       	movw	r24, r22
    6f32:	9a 87       	std	Y+10, r25	; 0x0a
    6f34:	89 87       	std	Y+9, r24	; 0x09
    6f36:	0f c0       	rjmp	.+30     	; 0x6f56 <vApplicationMallocFailedHook+0xbe>
    6f38:	80 e9       	ldi	r24, 0x90	; 144
    6f3a:	91 e0       	ldi	r25, 0x01	; 1
    6f3c:	9c 87       	std	Y+12, r25	; 0x0c
    6f3e:	8b 87       	std	Y+11, r24	; 0x0b
    milliseconds can be achieved.
 */
void
_delay_loop_2(uint16_t __count)
{
	__asm__ volatile (
    6f40:	8b 85       	ldd	r24, Y+11	; 0x0b
    6f42:	9c 85       	ldd	r25, Y+12	; 0x0c
    6f44:	01 97       	sbiw	r24, 0x01	; 1
    6f46:	f1 f7       	brne	.-4      	; 0x6f44 <vApplicationMallocFailedHook+0xac>
    6f48:	9c 87       	std	Y+12, r25	; 0x0c
    6f4a:	8b 87       	std	Y+11, r24	; 0x0b
		while(__ticks)
		{
			// wait 1/10 ms
			_delay_loop_2(((F_CPU) / 4e3) / 10);
			__ticks --;
    6f4c:	89 85       	ldd	r24, Y+9	; 0x09
    6f4e:	9a 85       	ldd	r25, Y+10	; 0x0a
    6f50:	01 97       	sbiw	r24, 0x01	; 1
    6f52:	9a 87       	std	Y+10, r25	; 0x0a
    6f54:	89 87       	std	Y+9, r24	; 0x09
		__ticks = 1;
	else if (__tmp > 65535)
	{
		//	__ticks = requested delay in 1/10 ms
		__ticks = (uint16_t) (__ms * 10.0);
		while(__ticks)
    6f56:	89 85       	ldd	r24, Y+9	; 0x09
    6f58:	9a 85       	ldd	r25, Y+10	; 0x0a
    6f5a:	89 2b       	or	r24, r25
    6f5c:	69 f7       	brne	.-38     	; 0x6f38 <vApplicationMallocFailedHook+0xa0>
			__ticks --;
		}
		return;
	}
	else
		__ticks = (uint16_t)__tmp;
    6f5e:	13 c0       	rjmp	.+38     	; 0x6f86 <vApplicationMallocFailedHook+0xee>
    6f60:	6d 81       	ldd	r22, Y+5	; 0x05
    6f62:	7e 81       	ldd	r23, Y+6	; 0x06
    6f64:	8f 81       	ldd	r24, Y+7	; 0x07
    6f66:	98 85       	ldd	r25, Y+8	; 0x08
    6f68:	e4 d0       	rcall	.+456    	; 0x7132 <__fixunssfsi>
    6f6a:	dc 01       	movw	r26, r24
    6f6c:	cb 01       	movw	r24, r22
    6f6e:	9a 87       	std	Y+10, r25	; 0x0a
    6f70:	89 87       	std	Y+9, r24	; 0x09
    6f72:	89 85       	ldd	r24, Y+9	; 0x09
    6f74:	9a 85       	ldd	r25, Y+10	; 0x0a
    6f76:	9e 87       	std	Y+14, r25	; 0x0e
    6f78:	8d 87       	std	Y+13, r24	; 0x0d
    6f7a:	8d 85       	ldd	r24, Y+13	; 0x0d
    6f7c:	9e 85       	ldd	r25, Y+14	; 0x0e
    6f7e:	01 97       	sbiw	r24, 0x01	; 1
    6f80:	f1 f7       	brne	.-4      	; 0x6f7e <vApplicationMallocFailedHook+0xe6>
    6f82:	9e 87       	std	Y+14, r25	; 0x0e
    6f84:	8d 87       	std	Y+13, r24	; 0x0d
    6f86:	77 df       	rcall	.-274    	; 0x6e76 <prvBlinkMainLed>
    6f88:	92 cf       	rjmp	.-220    	; 0x6eae <vApplicationMallocFailedHook+0x16>

00006f8a <vApplicationStackOverflowHook>:
    6f8a:	cf 93       	push	r28
    6f8c:	df 93       	push	r29
    6f8e:	cd b7       	in	r28, 0x3d	; 61
    6f90:	de b7       	in	r29, 0x3e	; 62
    6f92:	62 97       	sbiw	r28, 0x12	; 18
    6f94:	0f b6       	in	r0, 0x3f	; 63
    6f96:	f8 94       	cli
    6f98:	de bf       	out	0x3e, r29	; 62
    6f9a:	0f be       	out	0x3f, r0	; 63
    6f9c:	cd bf       	out	0x3d, r28	; 61
    6f9e:	98 8b       	std	Y+16, r25	; 0x10
    6fa0:	8f 87       	std	Y+15, r24	; 0x0f
    6fa2:	7a 8b       	std	Y+18, r23	; 0x12
    6fa4:	69 8b       	std	Y+17, r22	; 0x11
    6fa6:	4d df       	rcall	.-358    	; 0x6e42 <prvSetMainLedOn>
    6fa8:	80 e0       	ldi	r24, 0x00	; 0
    6faa:	90 e0       	ldi	r25, 0x00	; 0
    6fac:	aa ef       	ldi	r26, 0xFA	; 250
    6fae:	b4 e4       	ldi	r27, 0x44	; 68
    6fb0:	89 83       	std	Y+1, r24	; 0x01
    6fb2:	9a 83       	std	Y+2, r25	; 0x02
    6fb4:	ab 83       	std	Y+3, r26	; 0x03
    6fb6:	bc 83       	std	Y+4, r27	; 0x04

	__builtin_avr_delay_cycles(__ticks_dc);

#else
	uint16_t __ticks;
	__tmp = ((F_CPU) / 4e3) * __ms;
    6fb8:	20 e0       	ldi	r18, 0x00	; 0
    6fba:	30 e0       	ldi	r19, 0x00	; 0
    6fbc:	4a e7       	ldi	r20, 0x7A	; 122
    6fbe:	55 e4       	ldi	r21, 0x45	; 69
    6fc0:	69 81       	ldd	r22, Y+1	; 0x01
    6fc2:	7a 81       	ldd	r23, Y+2	; 0x02
    6fc4:	8b 81       	ldd	r24, Y+3	; 0x03
    6fc6:	9c 81       	ldd	r25, Y+4	; 0x04
    6fc8:	31 d1       	rcall	.+610    	; 0x722c <__mulsf3>
    6fca:	dc 01       	movw	r26, r24
    6fcc:	cb 01       	movw	r24, r22
    6fce:	8d 83       	std	Y+5, r24	; 0x05
    6fd0:	9e 83       	std	Y+6, r25	; 0x06
    6fd2:	af 83       	std	Y+7, r26	; 0x07
    6fd4:	b8 87       	std	Y+8, r27	; 0x08
	if (__tmp < 1.0)
    6fd6:	20 e0       	ldi	r18, 0x00	; 0
    6fd8:	30 e0       	ldi	r19, 0x00	; 0
    6fda:	40 e8       	ldi	r20, 0x80	; 128
    6fdc:	5f e3       	ldi	r21, 0x3F	; 63
    6fde:	6d 81       	ldd	r22, Y+5	; 0x05
    6fe0:	7e 81       	ldd	r23, Y+6	; 0x06
    6fe2:	8f 81       	ldd	r24, Y+7	; 0x07
    6fe4:	98 85       	ldd	r25, Y+8	; 0x08
    6fe6:	a1 d0       	rcall	.+322    	; 0x712a <__cmpsf2>
    6fe8:	88 23       	and	r24, r24
    6fea:	2c f4       	brge	.+10     	; 0x6ff6 <vApplicationStackOverflowHook+0x6c>
		__ticks = 1;
    6fec:	81 e0       	ldi	r24, 0x01	; 1
    6fee:	90 e0       	ldi	r25, 0x00	; 0
    6ff0:	9a 87       	std	Y+10, r25	; 0x0a
    6ff2:	89 87       	std	Y+9, r24	; 0x09
    6ff4:	3b c0       	rjmp	.+118    	; 0x706c <vApplicationStackOverflowHook+0xe2>
	else if (__tmp > 65535)
    6ff6:	20 e0       	ldi	r18, 0x00	; 0
    6ff8:	3f ef       	ldi	r19, 0xFF	; 255
    6ffa:	4f e7       	ldi	r20, 0x7F	; 127
    6ffc:	57 e4       	ldi	r21, 0x47	; 71
    6ffe:	6d 81       	ldd	r22, Y+5	; 0x05
    7000:	7e 81       	ldd	r23, Y+6	; 0x06
    7002:	8f 81       	ldd	r24, Y+7	; 0x07
    7004:	98 85       	ldd	r25, Y+8	; 0x08
    7006:	0e d1       	rcall	.+540    	; 0x7224 <__gesf2>
    7008:	18 16       	cp	r1, r24
    700a:	3c f5       	brge	.+78     	; 0x705a <vApplicationStackOverflowHook+0xd0>
	{
		//	__ticks = requested delay in 1/10 ms
		__ticks = (uint16_t) (__ms * 10.0);
    700c:	20 e0       	ldi	r18, 0x00	; 0
    700e:	30 e0       	ldi	r19, 0x00	; 0
    7010:	40 e2       	ldi	r20, 0x20	; 32
    7012:	51 e4       	ldi	r21, 0x41	; 65
    7014:	69 81       	ldd	r22, Y+1	; 0x01
    7016:	7a 81       	ldd	r23, Y+2	; 0x02
    7018:	8b 81       	ldd	r24, Y+3	; 0x03
    701a:	9c 81       	ldd	r25, Y+4	; 0x04
    701c:	07 d1       	rcall	.+526    	; 0x722c <__mulsf3>
    701e:	dc 01       	movw	r26, r24
    7020:	cb 01       	movw	r24, r22
    7022:	bc 01       	movw	r22, r24
    7024:	cd 01       	movw	r24, r26
    7026:	85 d0       	rcall	.+266    	; 0x7132 <__fixunssfsi>
    7028:	dc 01       	movw	r26, r24
    702a:	cb 01       	movw	r24, r22
    702c:	9a 87       	std	Y+10, r25	; 0x0a
    702e:	89 87       	std	Y+9, r24	; 0x09
    7030:	0f c0       	rjmp	.+30     	; 0x7050 <vApplicationStackOverflowHook+0xc6>
    7032:	80 e9       	ldi	r24, 0x90	; 144
    7034:	91 e0       	ldi	r25, 0x01	; 1
    7036:	9c 87       	std	Y+12, r25	; 0x0c
    7038:	8b 87       	std	Y+11, r24	; 0x0b
    703a:	8b 85       	ldd	r24, Y+11	; 0x0b
    703c:	9c 85       	ldd	r25, Y+12	; 0x0c
    703e:	01 97       	sbiw	r24, 0x01	; 1
    7040:	f1 f7       	brne	.-4      	; 0x703e <vApplicationStackOverflowHook+0xb4>
    7042:	9c 87       	std	Y+12, r25	; 0x0c
    7044:	8b 87       	std	Y+11, r24	; 0x0b
		while(__ticks)
		{
			// wait 1/10 ms
			_delay_loop_2(((F_CPU) / 4e3) / 10);
			__ticks --;
    7046:	89 85       	ldd	r24, Y+9	; 0x09
    7048:	9a 85       	ldd	r25, Y+10	; 0x0a
    704a:	01 97       	sbiw	r24, 0x01	; 1
    704c:	9a 87       	std	Y+10, r25	; 0x0a
    704e:	89 87       	std	Y+9, r24	; 0x09
		__ticks = 1;
	else if (__tmp > 65535)
	{
		//	__ticks = requested delay in 1/10 ms
		__ticks = (uint16_t) (__ms * 10.0);
		while(__ticks)
    7050:	89 85       	ldd	r24, Y+9	; 0x09
    7052:	9a 85       	ldd	r25, Y+10	; 0x0a
    7054:	89 2b       	or	r24, r25
    7056:	69 f7       	brne	.-38     	; 0x7032 <vApplicationStackOverflowHook+0xa8>
			__ticks --;
		}
		return;
	}
	else
		__ticks = (uint16_t)__tmp;
    7058:	13 c0       	rjmp	.+38     	; 0x7080 <vApplicationStackOverflowHook+0xf6>
    705a:	6d 81       	ldd	r22, Y+5	; 0x05
    705c:	7e 81       	ldd	r23, Y+6	; 0x06
    705e:	8f 81       	ldd	r24, Y+7	; 0x07
    7060:	98 85       	ldd	r25, Y+8	; 0x08
    7062:	67 d0       	rcall	.+206    	; 0x7132 <__fixunssfsi>
    7064:	dc 01       	movw	r26, r24
    7066:	cb 01       	movw	r24, r22
    7068:	9a 87       	std	Y+10, r25	; 0x0a
    706a:	89 87       	std	Y+9, r24	; 0x09
    706c:	89 85       	ldd	r24, Y+9	; 0x09
    706e:	9a 85       	ldd	r25, Y+10	; 0x0a
    7070:	9e 87       	std	Y+14, r25	; 0x0e
    7072:	8d 87       	std	Y+13, r24	; 0x0d
    7074:	8d 85       	ldd	r24, Y+13	; 0x0d
    7076:	9e 85       	ldd	r25, Y+14	; 0x0e
    7078:	01 97       	sbiw	r24, 0x01	; 1
    707a:	f1 f7       	brne	.-4      	; 0x7078 <vApplicationStackOverflowHook+0xee>
    707c:	9e 87       	std	Y+14, r25	; 0x0e
    707e:	8d 87       	std	Y+13, r24	; 0x0d
    7080:	fa de       	rcall	.-524    	; 0x6e76 <prvBlinkMainLed>
    7082:	92 cf       	rjmp	.-220    	; 0x6fa8 <vApplicationStackOverflowHook+0x1e>

00007084 <initializeUsedData>:
#include "UpLinkHandler.h"
#include "DownLinkHandler.h"
#include "Configuration.h"

void initializeUsedData()
{
    7084:	cf 93       	push	r28
    7086:	df 93       	push	r29
    7088:	cd b7       	in	r28, 0x3d	; 61
    708a:	de b7       	in	r29, 0x3e	; 62
	initializeEventGroup();
    708c:	0e 94 34 06 	call	0xc68	; 0xc68 <initializeEventGroup>
	
	createUpLinkMessageBuffer();
    7090:	0e 94 46 06 	call	0xc8c	; 0xc8c <createUpLinkMessageBuffer>
	createConfiguration();
    7094:	0e 94 74 02 	call	0x4e8	; 0x4e8 <createConfiguration>
	createDownLinkMessageBuffer();
    7098:	0e 94 76 06 	call	0xcec	; 0xcec <createDownLinkMessageBuffer>
	lora_driver_initialise(ser_USART1, downLinkMessageBuffer);
    709c:	80 91 48 19 	lds	r24, 0x1948	; 0x801948 <downLinkMessageBuffer>
    70a0:	90 91 49 19 	lds	r25, 0x1949	; 0x801949 <downLinkMessageBuffer+0x1>
    70a4:	bc 01       	movw	r22, r24
    70a6:	81 e0       	ldi	r24, 0x01	; 1
    70a8:	17 d3       	rcall	.+1582   	; 0x76d8 <lora_driver_initialise>
}
    70aa:	00 00       	nop
    70ac:	df 91       	pop	r29
    70ae:	cf 91       	pop	r28
    70b0:	08 95       	ret

000070b2 <create_tasks>:

void create_tasks(void)
{
    70b2:	cf 93       	push	r28
    70b4:	df 93       	push	r29
    70b6:	cd b7       	in	r28, 0x3d	; 61
    70b8:	de b7       	in	r29, 0x3e	; 62
	createTempAndHumTask(1);
    70ba:	81 e0       	ldi	r24, 0x01	; 1
    70bc:	0e 94 47 07 	call	0xe8e	; 0xe8e <createTempAndHumTask>
	createCo2Task(1);
    70c0:	81 e0       	ldi	r24, 0x01	; 1
    70c2:	0e 94 55 02 	call	0x4aa	; 0x4aa <createCo2Task>
	createApplicationTask(2);
    70c6:	82 e0       	ldi	r24, 0x02	; 2
    70c8:	0e 94 ac 01 	call	0x358	; 0x358 <createApplicationTask>
    lora_handler_uplink_payload(3);
    70cc:	83 e0       	ldi	r24, 0x03	; 3
    70ce:	0e 94 76 04 	call	0x8ec	; 0x8ec <lora_handler_uplink_payload>
	lora_downlink_handler_create(4);
    70d2:	84 e0       	ldi	r24, 0x04	; 4
    70d4:	0e 94 ad 03 	call	0x75a	; 0x75a <lora_downlink_handler_create>
}
    70d8:	00 00       	nop
    70da:	df 91       	pop	r29
    70dc:	cf 91       	pop	r28
    70de:	08 95       	ret

000070e0 <initialiseSystem>:

void initialiseSystem()
{
    70e0:	cf 93       	push	r28
    70e2:	df 93       	push	r29
    70e4:	cd b7       	in	r28, 0x3d	; 61
    70e6:	de b7       	in	r29, 0x3e	; 62
	// Set output ports for leds used in the example
	DDRA |= _BV(DDA0) | _BV(DDA7);
    70e8:	81 e2       	ldi	r24, 0x21	; 33
    70ea:	90 e0       	ldi	r25, 0x00	; 0
    70ec:	21 e2       	ldi	r18, 0x21	; 33
    70ee:	30 e0       	ldi	r19, 0x00	; 0
    70f0:	f9 01       	movw	r30, r18
    70f2:	20 81       	ld	r18, Z
    70f4:	21 68       	ori	r18, 0x81	; 129
    70f6:	fc 01       	movw	r30, r24
    70f8:	20 83       	st	Z, r18

	// Make it possible to use stdio on COM port 0 (USB) on Arduino board - Setting 57600,8,N,1
	initializeUsedData();
    70fa:	c4 df       	rcall	.-120    	; 0x7084 <initializeUsedData>
	stdio_initialise(ser_USART0);
    70fc:	80 e0       	ldi	r24, 0x00	; 0
    70fe:	0e 94 23 43 	call	0x8646	; 0x8646 <stdio_initialise>
	// Let's create some tasks
	create_tasks();
    7102:	d7 df       	rcall	.-82     	; 0x70b2 <create_tasks>

	// vvvvvvvvvvvvvvvvv BELOW IS LoRaWAN initialisation vvvvvvvvvvvvvvvvvvvvvvvvvvvvvv
	// Status Leds driver
	status_leds_initialise(5); // Priority 5 for internal task
    7104:	85 e0       	ldi	r24, 0x05	; 5
    7106:	0e 94 2a 44 	call	0x8854	; 0x8854 <status_leds_initialise>
	// Initialise the LoRaWAN driver without down-link buffer
	//lora_driver_initialise(1, NULL);
	// Create LoRaWAN task and start it up with priority 3
	//lora_handler_initialise(3); 
	
}
    710a:	00 00       	nop
    710c:	df 91       	pop	r29
    710e:	cf 91       	pop	r28
    7110:	08 95       	ret

00007112 <main>:

/*-----------------------------------------------------------*/
int main(void)
{
    7112:	cf 93       	push	r28
    7114:	df 93       	push	r29
    7116:	cd b7       	in	r28, 0x3d	; 61
    7118:	de b7       	in	r29, 0x3e	; 62
	initialiseSystem(); // Must be done as the very first thing!!
    711a:	e2 df       	rcall	.-60     	; 0x70e0 <initialiseSystem>
	printf("Program Started!!\n");
    711c:	86 e2       	ldi	r24, 0x26	; 38
    711e:	96 e0       	ldi	r25, 0x06	; 6
    7120:	0e 94 9b 49 	call	0x9336	; 0x9336 <puts>
	vTaskStartScheduler(); // Initialise and run the freeRTOS scheduler. Execution should never return from here.
    7124:	0e 94 cf 1e 	call	0x3d9e	; 0x3d9e <vTaskStartScheduler>

	/* Replace with your application code */
	while (1)
	{
	}
    7128:	ff cf       	rjmp	.-2      	; 0x7128 <main+0x16>

0000712a <__cmpsf2>:
    712a:	2f d0       	rcall	.+94     	; 0x718a <__fp_cmp>
    712c:	08 f4       	brcc	.+2      	; 0x7130 <__cmpsf2+0x6>
    712e:	81 e0       	ldi	r24, 0x01	; 1
    7130:	08 95       	ret

00007132 <__fixunssfsi>:
    7132:	57 d0       	rcall	.+174    	; 0x71e2 <__fp_splitA>
    7134:	88 f0       	brcs	.+34     	; 0x7158 <__fixunssfsi+0x26>
    7136:	9f 57       	subi	r25, 0x7F	; 127
    7138:	90 f0       	brcs	.+36     	; 0x715e <__fixunssfsi+0x2c>
    713a:	b9 2f       	mov	r27, r25
    713c:	99 27       	eor	r25, r25
    713e:	b7 51       	subi	r27, 0x17	; 23
    7140:	a0 f0       	brcs	.+40     	; 0x716a <__fixunssfsi+0x38>
    7142:	d1 f0       	breq	.+52     	; 0x7178 <__fixunssfsi+0x46>
    7144:	66 0f       	add	r22, r22
    7146:	77 1f       	adc	r23, r23
    7148:	88 1f       	adc	r24, r24
    714a:	99 1f       	adc	r25, r25
    714c:	1a f0       	brmi	.+6      	; 0x7154 <__fixunssfsi+0x22>
    714e:	ba 95       	dec	r27
    7150:	c9 f7       	brne	.-14     	; 0x7144 <__fixunssfsi+0x12>
    7152:	12 c0       	rjmp	.+36     	; 0x7178 <__fixunssfsi+0x46>
    7154:	b1 30       	cpi	r27, 0x01	; 1
    7156:	81 f0       	breq	.+32     	; 0x7178 <__fixunssfsi+0x46>
    7158:	5e d0       	rcall	.+188    	; 0x7216 <__fp_zero>
    715a:	b1 e0       	ldi	r27, 0x01	; 1
    715c:	08 95       	ret
    715e:	5b c0       	rjmp	.+182    	; 0x7216 <__fp_zero>
    7160:	67 2f       	mov	r22, r23
    7162:	78 2f       	mov	r23, r24
    7164:	88 27       	eor	r24, r24
    7166:	b8 5f       	subi	r27, 0xF8	; 248
    7168:	39 f0       	breq	.+14     	; 0x7178 <__fixunssfsi+0x46>
    716a:	b9 3f       	cpi	r27, 0xF9	; 249
    716c:	cc f3       	brlt	.-14     	; 0x7160 <__fixunssfsi+0x2e>
    716e:	86 95       	lsr	r24
    7170:	77 95       	ror	r23
    7172:	67 95       	ror	r22
    7174:	b3 95       	inc	r27
    7176:	d9 f7       	brne	.-10     	; 0x716e <__fixunssfsi+0x3c>
    7178:	3e f4       	brtc	.+14     	; 0x7188 <__fixunssfsi+0x56>
    717a:	90 95       	com	r25
    717c:	80 95       	com	r24
    717e:	70 95       	com	r23
    7180:	61 95       	neg	r22
    7182:	7f 4f       	sbci	r23, 0xFF	; 255
    7184:	8f 4f       	sbci	r24, 0xFF	; 255
    7186:	9f 4f       	sbci	r25, 0xFF	; 255
    7188:	08 95       	ret

0000718a <__fp_cmp>:
    718a:	99 0f       	add	r25, r25
    718c:	00 08       	sbc	r0, r0
    718e:	55 0f       	add	r21, r21
    7190:	aa 0b       	sbc	r26, r26
    7192:	e0 e8       	ldi	r30, 0x80	; 128
    7194:	fe ef       	ldi	r31, 0xFE	; 254
    7196:	16 16       	cp	r1, r22
    7198:	17 06       	cpc	r1, r23
    719a:	e8 07       	cpc	r30, r24
    719c:	f9 07       	cpc	r31, r25
    719e:	c0 f0       	brcs	.+48     	; 0x71d0 <__fp_cmp+0x46>
    71a0:	12 16       	cp	r1, r18
    71a2:	13 06       	cpc	r1, r19
    71a4:	e4 07       	cpc	r30, r20
    71a6:	f5 07       	cpc	r31, r21
    71a8:	98 f0       	brcs	.+38     	; 0x71d0 <__fp_cmp+0x46>
    71aa:	62 1b       	sub	r22, r18
    71ac:	73 0b       	sbc	r23, r19
    71ae:	84 0b       	sbc	r24, r20
    71b0:	95 0b       	sbc	r25, r21
    71b2:	39 f4       	brne	.+14     	; 0x71c2 <__fp_cmp+0x38>
    71b4:	0a 26       	eor	r0, r26
    71b6:	61 f0       	breq	.+24     	; 0x71d0 <__fp_cmp+0x46>
    71b8:	23 2b       	or	r18, r19
    71ba:	24 2b       	or	r18, r20
    71bc:	25 2b       	or	r18, r21
    71be:	21 f4       	brne	.+8      	; 0x71c8 <__fp_cmp+0x3e>
    71c0:	08 95       	ret
    71c2:	0a 26       	eor	r0, r26
    71c4:	09 f4       	brne	.+2      	; 0x71c8 <__fp_cmp+0x3e>
    71c6:	a1 40       	sbci	r26, 0x01	; 1
    71c8:	a6 95       	lsr	r26
    71ca:	8f ef       	ldi	r24, 0xFF	; 255
    71cc:	81 1d       	adc	r24, r1
    71ce:	81 1d       	adc	r24, r1
    71d0:	08 95       	ret

000071d2 <__fp_split3>:
    71d2:	57 fd       	sbrc	r21, 7
    71d4:	90 58       	subi	r25, 0x80	; 128
    71d6:	44 0f       	add	r20, r20
    71d8:	55 1f       	adc	r21, r21
    71da:	59 f0       	breq	.+22     	; 0x71f2 <__fp_splitA+0x10>
    71dc:	5f 3f       	cpi	r21, 0xFF	; 255
    71de:	71 f0       	breq	.+28     	; 0x71fc <__fp_splitA+0x1a>
    71e0:	47 95       	ror	r20

000071e2 <__fp_splitA>:
    71e2:	88 0f       	add	r24, r24
    71e4:	97 fb       	bst	r25, 7
    71e6:	99 1f       	adc	r25, r25
    71e8:	61 f0       	breq	.+24     	; 0x7202 <__fp_splitA+0x20>
    71ea:	9f 3f       	cpi	r25, 0xFF	; 255
    71ec:	79 f0       	breq	.+30     	; 0x720c <__fp_splitA+0x2a>
    71ee:	87 95       	ror	r24
    71f0:	08 95       	ret
    71f2:	12 16       	cp	r1, r18
    71f4:	13 06       	cpc	r1, r19
    71f6:	14 06       	cpc	r1, r20
    71f8:	55 1f       	adc	r21, r21
    71fa:	f2 cf       	rjmp	.-28     	; 0x71e0 <__fp_split3+0xe>
    71fc:	46 95       	lsr	r20
    71fe:	f1 df       	rcall	.-30     	; 0x71e2 <__fp_splitA>
    7200:	08 c0       	rjmp	.+16     	; 0x7212 <__fp_splitA+0x30>
    7202:	16 16       	cp	r1, r22
    7204:	17 06       	cpc	r1, r23
    7206:	18 06       	cpc	r1, r24
    7208:	99 1f       	adc	r25, r25
    720a:	f1 cf       	rjmp	.-30     	; 0x71ee <__fp_splitA+0xc>
    720c:	86 95       	lsr	r24
    720e:	71 05       	cpc	r23, r1
    7210:	61 05       	cpc	r22, r1
    7212:	08 94       	sec
    7214:	08 95       	ret

00007216 <__fp_zero>:
    7216:	e8 94       	clt

00007218 <__fp_szero>:
    7218:	bb 27       	eor	r27, r27
    721a:	66 27       	eor	r22, r22
    721c:	77 27       	eor	r23, r23
    721e:	cb 01       	movw	r24, r22
    7220:	97 f9       	bld	r25, 7
    7222:	08 95       	ret

00007224 <__gesf2>:
    7224:	b2 df       	rcall	.-156    	; 0x718a <__fp_cmp>
    7226:	08 f4       	brcc	.+2      	; 0x722a <__gesf2+0x6>
    7228:	8f ef       	ldi	r24, 0xFF	; 255
    722a:	08 95       	ret

0000722c <__mulsf3>:
    722c:	0b d0       	rcall	.+22     	; 0x7244 <__mulsf3x>
    722e:	78 c0       	rjmp	.+240    	; 0x7320 <__fp_round>
    7230:	69 d0       	rcall	.+210    	; 0x7304 <__fp_pscA>
    7232:	28 f0       	brcs	.+10     	; 0x723e <__mulsf3+0x12>
    7234:	6e d0       	rcall	.+220    	; 0x7312 <__fp_pscB>
    7236:	18 f0       	brcs	.+6      	; 0x723e <__mulsf3+0x12>
    7238:	95 23       	and	r25, r21
    723a:	09 f0       	breq	.+2      	; 0x723e <__mulsf3+0x12>
    723c:	5a c0       	rjmp	.+180    	; 0x72f2 <__fp_inf>
    723e:	5f c0       	rjmp	.+190    	; 0x72fe <__fp_nan>
    7240:	11 24       	eor	r1, r1
    7242:	ea cf       	rjmp	.-44     	; 0x7218 <__fp_szero>

00007244 <__mulsf3x>:
    7244:	c6 df       	rcall	.-116    	; 0x71d2 <__fp_split3>
    7246:	a0 f3       	brcs	.-24     	; 0x7230 <__mulsf3+0x4>

00007248 <__mulsf3_pse>:
    7248:	95 9f       	mul	r25, r21
    724a:	d1 f3       	breq	.-12     	; 0x7240 <__mulsf3+0x14>
    724c:	95 0f       	add	r25, r21
    724e:	50 e0       	ldi	r21, 0x00	; 0
    7250:	55 1f       	adc	r21, r21
    7252:	62 9f       	mul	r22, r18
    7254:	f0 01       	movw	r30, r0
    7256:	72 9f       	mul	r23, r18
    7258:	bb 27       	eor	r27, r27
    725a:	f0 0d       	add	r31, r0
    725c:	b1 1d       	adc	r27, r1
    725e:	63 9f       	mul	r22, r19
    7260:	aa 27       	eor	r26, r26
    7262:	f0 0d       	add	r31, r0
    7264:	b1 1d       	adc	r27, r1
    7266:	aa 1f       	adc	r26, r26
    7268:	64 9f       	mul	r22, r20
    726a:	66 27       	eor	r22, r22
    726c:	b0 0d       	add	r27, r0
    726e:	a1 1d       	adc	r26, r1
    7270:	66 1f       	adc	r22, r22
    7272:	82 9f       	mul	r24, r18
    7274:	22 27       	eor	r18, r18
    7276:	b0 0d       	add	r27, r0
    7278:	a1 1d       	adc	r26, r1
    727a:	62 1f       	adc	r22, r18
    727c:	73 9f       	mul	r23, r19
    727e:	b0 0d       	add	r27, r0
    7280:	a1 1d       	adc	r26, r1
    7282:	62 1f       	adc	r22, r18
    7284:	83 9f       	mul	r24, r19
    7286:	a0 0d       	add	r26, r0
    7288:	61 1d       	adc	r22, r1
    728a:	22 1f       	adc	r18, r18
    728c:	74 9f       	mul	r23, r20
    728e:	33 27       	eor	r19, r19
    7290:	a0 0d       	add	r26, r0
    7292:	61 1d       	adc	r22, r1
    7294:	23 1f       	adc	r18, r19
    7296:	84 9f       	mul	r24, r20
    7298:	60 0d       	add	r22, r0
    729a:	21 1d       	adc	r18, r1
    729c:	82 2f       	mov	r24, r18
    729e:	76 2f       	mov	r23, r22
    72a0:	6a 2f       	mov	r22, r26
    72a2:	11 24       	eor	r1, r1
    72a4:	9f 57       	subi	r25, 0x7F	; 127
    72a6:	50 40       	sbci	r21, 0x00	; 0
    72a8:	8a f0       	brmi	.+34     	; 0x72cc <__mulsf3_pse+0x84>
    72aa:	e1 f0       	breq	.+56     	; 0x72e4 <__mulsf3_pse+0x9c>
    72ac:	88 23       	and	r24, r24
    72ae:	4a f0       	brmi	.+18     	; 0x72c2 <__mulsf3_pse+0x7a>
    72b0:	ee 0f       	add	r30, r30
    72b2:	ff 1f       	adc	r31, r31
    72b4:	bb 1f       	adc	r27, r27
    72b6:	66 1f       	adc	r22, r22
    72b8:	77 1f       	adc	r23, r23
    72ba:	88 1f       	adc	r24, r24
    72bc:	91 50       	subi	r25, 0x01	; 1
    72be:	50 40       	sbci	r21, 0x00	; 0
    72c0:	a9 f7       	brne	.-22     	; 0x72ac <__mulsf3_pse+0x64>
    72c2:	9e 3f       	cpi	r25, 0xFE	; 254
    72c4:	51 05       	cpc	r21, r1
    72c6:	70 f0       	brcs	.+28     	; 0x72e4 <__mulsf3_pse+0x9c>
    72c8:	14 c0       	rjmp	.+40     	; 0x72f2 <__fp_inf>
    72ca:	a6 cf       	rjmp	.-180    	; 0x7218 <__fp_szero>
    72cc:	5f 3f       	cpi	r21, 0xFF	; 255
    72ce:	ec f3       	brlt	.-6      	; 0x72ca <__mulsf3_pse+0x82>
    72d0:	98 3e       	cpi	r25, 0xE8	; 232
    72d2:	dc f3       	brlt	.-10     	; 0x72ca <__mulsf3_pse+0x82>
    72d4:	86 95       	lsr	r24
    72d6:	77 95       	ror	r23
    72d8:	67 95       	ror	r22
    72da:	b7 95       	ror	r27
    72dc:	f7 95       	ror	r31
    72de:	e7 95       	ror	r30
    72e0:	9f 5f       	subi	r25, 0xFF	; 255
    72e2:	c1 f7       	brne	.-16     	; 0x72d4 <__mulsf3_pse+0x8c>
    72e4:	fe 2b       	or	r31, r30
    72e6:	88 0f       	add	r24, r24
    72e8:	91 1d       	adc	r25, r1
    72ea:	96 95       	lsr	r25
    72ec:	87 95       	ror	r24
    72ee:	97 f9       	bld	r25, 7
    72f0:	08 95       	ret

000072f2 <__fp_inf>:
    72f2:	97 f9       	bld	r25, 7
    72f4:	9f 67       	ori	r25, 0x7F	; 127
    72f6:	80 e8       	ldi	r24, 0x80	; 128
    72f8:	70 e0       	ldi	r23, 0x00	; 0
    72fa:	60 e0       	ldi	r22, 0x00	; 0
    72fc:	08 95       	ret

000072fe <__fp_nan>:
    72fe:	9f ef       	ldi	r25, 0xFF	; 255
    7300:	80 ec       	ldi	r24, 0xC0	; 192
    7302:	08 95       	ret

00007304 <__fp_pscA>:
    7304:	00 24       	eor	r0, r0
    7306:	0a 94       	dec	r0
    7308:	16 16       	cp	r1, r22
    730a:	17 06       	cpc	r1, r23
    730c:	18 06       	cpc	r1, r24
    730e:	09 06       	cpc	r0, r25
    7310:	08 95       	ret

00007312 <__fp_pscB>:
    7312:	00 24       	eor	r0, r0
    7314:	0a 94       	dec	r0
    7316:	12 16       	cp	r1, r18
    7318:	13 06       	cpc	r1, r19
    731a:	14 06       	cpc	r1, r20
    731c:	05 06       	cpc	r0, r21
    731e:	08 95       	ret

00007320 <__fp_round>:
    7320:	09 2e       	mov	r0, r25
    7322:	03 94       	inc	r0
    7324:	00 0c       	add	r0, r0
    7326:	11 f4       	brne	.+4      	; 0x732c <__fp_round+0xc>
    7328:	88 23       	and	r24, r24
    732a:	52 f0       	brmi	.+20     	; 0x7340 <__fp_round+0x20>
    732c:	bb 0f       	add	r27, r27
    732e:	40 f4       	brcc	.+16     	; 0x7340 <__fp_round+0x20>
    7330:	bf 2b       	or	r27, r31
    7332:	11 f4       	brne	.+4      	; 0x7338 <__fp_round+0x18>
    7334:	60 ff       	sbrs	r22, 0
    7336:	04 c0       	rjmp	.+8      	; 0x7340 <__fp_round+0x20>
    7338:	6f 5f       	subi	r22, 0xFF	; 255
    733a:	7f 4f       	sbci	r23, 0xFF	; 255
    733c:	8f 4f       	sbci	r24, 0xFF	; 255
    733e:	9f 4f       	sbci	r25, 0xFF	; 255
    7340:	08 95       	ret

00007342 <_hihTwiCallback>:
    7342:	65 30       	cpi	r22, 0x05	; 5
    7344:	f1 f4       	brne	.+60     	; 0x7382 <_hihTwiCallback+0x40>
    7346:	fa 01       	movw	r30, r20
    7348:	80 81       	ld	r24, Z
    734a:	8f 73       	andi	r24, 0x3F	; 63
    734c:	90 e0       	ldi	r25, 0x00	; 0
    734e:	98 2f       	mov	r25, r24
    7350:	88 27       	eor	r24, r24
    7352:	21 81       	ldd	r18, Z+1	; 0x01
    7354:	82 2b       	or	r24, r18
    7356:	90 93 0a 02 	sts	0x020A, r25	; 0x80020a <_hum+0x1>
    735a:	80 93 09 02 	sts	0x0209, r24	; 0x800209 <_hum>
    735e:	82 81       	ldd	r24, Z+2	; 0x02
    7360:	f0 e4       	ldi	r31, 0x40	; 64
    7362:	8f 9f       	mul	r24, r31
    7364:	c0 01       	movw	r24, r0
    7366:	11 24       	eor	r1, r1
    7368:	fa 01       	movw	r30, r20
    736a:	23 81       	ldd	r18, Z+3	; 0x03
    736c:	26 95       	lsr	r18
    736e:	26 95       	lsr	r18
    7370:	82 2b       	or	r24, r18
    7372:	90 93 08 02 	sts	0x0208, r25	; 0x800208 <_temp+0x1>
    7376:	80 93 07 02 	sts	0x0207, r24	; 0x800207 <_temp>
    737a:	81 e0       	ldi	r24, 0x01	; 1
    737c:	80 93 f4 17 	sts	0x17F4, r24	; 0x8017f4 <_measuringIsReady>
    7380:	08 95       	ret
    7382:	64 30       	cpi	r22, 0x04	; 4
    7384:	51 f0       	breq	.+20     	; 0x739a <_hihTwiCallback+0x58>
    7386:	80 e0       	ldi	r24, 0x00	; 0
    7388:	90 e4       	ldi	r25, 0x40	; 64
    738a:	90 93 08 02 	sts	0x0208, r25	; 0x800208 <_temp+0x1>
    738e:	80 93 07 02 	sts	0x0207, r24	; 0x800207 <_temp>
    7392:	90 93 0a 02 	sts	0x020A, r25	; 0x80020a <_hum+0x1>
    7396:	80 93 09 02 	sts	0x0209, r24	; 0x800209 <_hum>
    739a:	08 95       	ret

0000739c <hih8120_initialise>:
    739c:	0f 93       	push	r16
    739e:	1f 93       	push	r17
    73a0:	01 ea       	ldi	r16, 0xA1	; 161
    73a2:	19 e3       	ldi	r17, 0x39	; 57
    73a4:	20 e0       	ldi	r18, 0x00	; 0
    73a6:	34 e2       	ldi	r19, 0x24	; 36
    73a8:	44 ef       	ldi	r20, 0xF4	; 244
    73aa:	50 e0       	ldi	r21, 0x00	; 0
    73ac:	60 e0       	ldi	r22, 0x00	; 0
    73ae:	87 e2       	ldi	r24, 0x27	; 39
    73b0:	0e 94 10 45 	call	0x8a20	; 0x8a20 <twiCreate>
    73b4:	90 93 f6 17 	sts	0x17F6, r25	; 0x8017f6 <_hih8120Handler+0x1>
    73b8:	80 93 f5 17 	sts	0x17F5, r24	; 0x8017f5 <_hih8120Handler>
    73bc:	21 e0       	ldi	r18, 0x01	; 1
    73be:	89 2b       	or	r24, r25
    73c0:	09 f0       	breq	.+2      	; 0x73c4 <hih8120_initialise+0x28>
    73c2:	20 e0       	ldi	r18, 0x00	; 0
    73c4:	82 2f       	mov	r24, r18
    73c6:	1f 91       	pop	r17
    73c8:	0f 91       	pop	r16
    73ca:	08 95       	ret

000073cc <hih8120_wakeup>:
    73cc:	80 91 f5 17 	lds	r24, 0x17F5	; 0x8017f5 <_hih8120Handler>
    73d0:	90 91 f6 17 	lds	r25, 0x17F6	; 0x8017f6 <_hih8120Handler+0x1>
    73d4:	00 97       	sbiw	r24, 0x00	; 0
    73d6:	59 f0       	breq	.+22     	; 0x73ee <hih8120_wakeup+0x22>
    73d8:	40 e0       	ldi	r20, 0x00	; 0
    73da:	60 e0       	ldi	r22, 0x00	; 0
    73dc:	70 e0       	ldi	r23, 0x00	; 0
    73de:	0e 94 61 45 	call	0x8ac2	; 0x8ac2 <twiTransmit>
    73e2:	84 30       	cpi	r24, 0x04	; 4
    73e4:	31 f4       	brne	.+12     	; 0x73f2 <hih8120_wakeup+0x26>
    73e6:	10 92 f4 17 	sts	0x17F4, r1	; 0x8017f4 <_measuringIsReady>
    73ea:	80 e0       	ldi	r24, 0x00	; 0
    73ec:	08 95       	ret
    73ee:	82 e0       	ldi	r24, 0x02	; 2
    73f0:	08 95       	ret
    73f2:	83 e0       	ldi	r24, 0x03	; 3
    73f4:	08 95       	ret

000073f6 <hih8120_measure>:
    73f6:	80 91 f5 17 	lds	r24, 0x17F5	; 0x8017f5 <_hih8120Handler>
    73fa:	90 91 f6 17 	lds	r25, 0x17F6	; 0x8017f6 <_hih8120Handler+0x1>
    73fe:	00 97       	sbiw	r24, 0x00	; 0
    7400:	39 f0       	breq	.+14     	; 0x7410 <hih8120_measure+0x1a>
    7402:	64 e0       	ldi	r22, 0x04	; 4
    7404:	0e 94 ad 45 	call	0x8b5a	; 0x8b5a <twiReceive>
    7408:	85 30       	cpi	r24, 0x05	; 5
    740a:	21 f0       	breq	.+8      	; 0x7414 <hih8120_measure+0x1e>
    740c:	83 e0       	ldi	r24, 0x03	; 3
    740e:	08 95       	ret
    7410:	82 e0       	ldi	r24, 0x02	; 2
    7412:	08 95       	ret
    7414:	80 e0       	ldi	r24, 0x00	; 0
    7416:	08 95       	ret

00007418 <hih8120_getHumidity>:
    7418:	60 91 09 02 	lds	r22, 0x0209	; 0x800209 <_hum>
    741c:	70 91 0a 02 	lds	r23, 0x020A	; 0x80020a <_hum+0x1>
    7420:	80 e0       	ldi	r24, 0x00	; 0
    7422:	90 e0       	ldi	r25, 0x00	; 0
    7424:	0e 94 9d 47 	call	0x8f3a	; 0x8f3a <__floatunsisf>
    7428:	20 e0       	ldi	r18, 0x00	; 0
    742a:	30 e0       	ldi	r19, 0x00	; 0
    742c:	48 ec       	ldi	r20, 0xC8	; 200
    742e:	52 e4       	ldi	r21, 0x42	; 66
    7430:	fd de       	rcall	.-518    	; 0x722c <__mulsf3>
    7432:	20 e0       	ldi	r18, 0x00	; 0
    7434:	38 ef       	ldi	r19, 0xF8	; 248
    7436:	4f e7       	ldi	r20, 0x7F	; 127
    7438:	56 e4       	ldi	r21, 0x46	; 70
    743a:	0c 94 25 47 	jmp	0x8e4a	; 0x8e4a <__divsf3>
    743e:	08 95       	ret

00007440 <hih8120_getHumidityPercent_x10>:
    7440:	eb df       	rcall	.-42     	; 0x7418 <hih8120_getHumidity>
    7442:	20 e0       	ldi	r18, 0x00	; 0
    7444:	30 e0       	ldi	r19, 0x00	; 0
    7446:	40 e2       	ldi	r20, 0x20	; 32
    7448:	51 e4       	ldi	r21, 0x41	; 65
    744a:	f0 de       	rcall	.-544    	; 0x722c <__mulsf3>
    744c:	72 de       	rcall	.-796    	; 0x7132 <__fixunssfsi>
    744e:	cb 01       	movw	r24, r22
    7450:	08 95       	ret

00007452 <hih8120_getTemperature>:
    7452:	60 91 07 02 	lds	r22, 0x0207	; 0x800207 <_temp>
    7456:	70 91 08 02 	lds	r23, 0x0208	; 0x800208 <_temp+0x1>
    745a:	80 e0       	ldi	r24, 0x00	; 0
    745c:	90 e0       	ldi	r25, 0x00	; 0
    745e:	0e 94 9d 47 	call	0x8f3a	; 0x8f3a <__floatunsisf>
    7462:	20 e0       	ldi	r18, 0x00	; 0
    7464:	30 e0       	ldi	r19, 0x00	; 0
    7466:	45 e2       	ldi	r20, 0x25	; 37
    7468:	53 e4       	ldi	r21, 0x43	; 67
    746a:	e0 de       	rcall	.-576    	; 0x722c <__mulsf3>
    746c:	20 e0       	ldi	r18, 0x00	; 0
    746e:	38 ef       	ldi	r19, 0xF8	; 248
    7470:	4f e7       	ldi	r20, 0x7F	; 127
    7472:	56 e4       	ldi	r21, 0x46	; 70
    7474:	0e 94 25 47 	call	0x8e4a	; 0x8e4a <__divsf3>
    7478:	20 e0       	ldi	r18, 0x00	; 0
    747a:	30 e0       	ldi	r19, 0x00	; 0
    747c:	40 e2       	ldi	r20, 0x20	; 32
    747e:	52 e4       	ldi	r21, 0x42	; 66
    7480:	0c 94 b9 46 	jmp	0x8d72	; 0x8d72 <__subsf3>
    7484:	08 95       	ret

00007486 <hih8120_getTemperature_x10>:
    7486:	e5 df       	rcall	.-54     	; 0x7452 <hih8120_getTemperature>
    7488:	20 e0       	ldi	r18, 0x00	; 0
    748a:	30 e0       	ldi	r19, 0x00	; 0
    748c:	40 e2       	ldi	r20, 0x20	; 32
    748e:	51 e4       	ldi	r21, 0x41	; 65
    7490:	cd de       	rcall	.-614    	; 0x722c <__mulsf3>
    7492:	0e 94 96 47 	call	0x8f2c	; 0x8f2c <__fixsfsi>
    7496:	cb 01       	movw	r24, r22
    7498:	08 95       	ret

0000749a <_serialCallBack>:
    749a:	0f 93       	push	r16
    749c:	1f 93       	push	r17
    749e:	cf 93       	push	r28
    74a0:	df 93       	push	r29
    74a2:	1f 92       	push	r1
    74a4:	1f 92       	push	r1
    74a6:	cd b7       	in	r28, 0x3d	; 61
    74a8:	de b7       	in	r29, 0x3e	; 62
    74aa:	8c 01       	movw	r16, r24
    74ac:	19 82       	std	Y+1, r1	; 0x01
    74ae:	2d c0       	rjmp	.+90     	; 0x750a <_serialCallBack+0x70>
    74b0:	e0 91 2e 18 	lds	r30, 0x182E	; 0x80182e <rec_buf_inp.2878>
    74b4:	ec 32       	cpi	r30, 0x2C	; 44
    74b6:	50 f4       	brcc	.+20     	; 0x74cc <_serialCallBack+0x32>
    74b8:	81 e0       	ldi	r24, 0x01	; 1
    74ba:	8e 0f       	add	r24, r30
    74bc:	80 93 2e 18 	sts	0x182E, r24	; 0x80182e <rec_buf_inp.2878>
    74c0:	f0 e0       	ldi	r31, 0x00	; 0
    74c2:	e0 5a       	subi	r30, 0xA0	; 160
    74c4:	f7 4e       	sbci	r31, 0xE7	; 231
    74c6:	8a 81       	ldd	r24, Y+2	; 0x02
    74c8:	80 83       	st	Z, r24
    74ca:	02 c0       	rjmp	.+4      	; 0x74d0 <_serialCallBack+0x36>
    74cc:	10 92 2e 18 	sts	0x182E, r1	; 0x80182e <rec_buf_inp.2878>
    74d0:	8a 81       	ldd	r24, Y+2	; 0x02
    74d2:	8a 30       	cpi	r24, 0x0A	; 10
    74d4:	d1 f4       	brne	.+52     	; 0x750a <_serialCallBack+0x70>
    74d6:	40 91 2e 18 	lds	r20, 0x182E	; 0x80182e <rec_buf_inp.2878>
    74da:	50 e0       	ldi	r21, 0x00	; 0
    74dc:	fa 01       	movw	r30, r20
    74de:	e2 5a       	subi	r30, 0xA2	; 162
    74e0:	f7 4e       	sbci	r31, 0xE7	; 231
    74e2:	10 82       	st	Z, r1
    74e4:	41 50       	subi	r20, 0x01	; 1
    74e6:	51 09       	sbc	r21, r1
    74e8:	9e 01       	movw	r18, r28
    74ea:	2f 5f       	subi	r18, 0xFF	; 255
    74ec:	3f 4f       	sbci	r19, 0xFF	; 255
    74ee:	60 e6       	ldi	r22, 0x60	; 96
    74f0:	78 e1       	ldi	r23, 0x18	; 24
    74f2:	80 91 31 18 	lds	r24, 0x1831	; 0x801831 <_serialReplyBufferHandle>
    74f6:	90 91 32 18 	lds	r25, 0x1832	; 0x801832 <_serialReplyBufferHandle+0x1>
    74fa:	0e 94 de 17 	call	0x2fbc	; 0x2fbc <xStreamBufferSendFromISR>
    74fe:	89 81       	ldd	r24, Y+1	; 0x01
    7500:	81 11       	cpse	r24, r1
    7502:	0e 94 c3 0e 	call	0x1d86	; 0x1d86 <vPortYield>
    7506:	10 92 2e 18 	sts	0x182E, r1	; 0x80182e <rec_buf_inp.2878>
    750a:	be 01       	movw	r22, r28
    750c:	6e 5f       	subi	r22, 0xFE	; 254
    750e:	7f 4f       	sbci	r23, 0xFF	; 255
    7510:	c8 01       	movw	r24, r16
    7512:	03 d6       	rcall	.+3078   	; 0x811a <serial_getByte>
    7514:	88 23       	and	r24, r24
    7516:	61 f2       	breq	.-104    	; 0x74b0 <_serialCallBack+0x16>
    7518:	0f 90       	pop	r0
    751a:	0f 90       	pop	r0
    751c:	df 91       	pop	r29
    751e:	cf 91       	pop	r28
    7520:	1f 91       	pop	r17
    7522:	0f 91       	pop	r16
    7524:	08 95       	ret

00007526 <_uploadMessage>:
    7526:	0f 93       	push	r16
    7528:	1f 93       	push	r17
    752a:	cf 93       	push	r28
    752c:	df 93       	push	r29
    752e:	8c 01       	movw	r16, r24
    7530:	eb 01       	movw	r28, r22
    7532:	80 91 31 18 	lds	r24, 0x1831	; 0x801831 <_serialReplyBufferHandle>
    7536:	90 91 32 18 	lds	r25, 0x1832	; 0x801832 <_serialReplyBufferHandle+0x1>
    753a:	0e 94 48 16 	call	0x2c90	; 0x2c90 <xStreamBufferReset>
    753e:	b8 01       	movw	r22, r16
    7540:	87 ef       	ldi	r24, 0xF7	; 247
    7542:	97 e1       	ldi	r25, 0x17	; 23
    7544:	0e 94 69 49 	call	0x92d2	; 0x92d2 <strcpy>
    7548:	20 97       	sbiw	r28, 0x00	; 0
    754a:	79 f0       	breq	.+30     	; 0x756a <_uploadMessage+0x44>
    754c:	e7 ef       	ldi	r30, 0xF7	; 247
    754e:	f7 e1       	ldi	r31, 0x17	; 23
    7550:	01 90       	ld	r0, Z+
    7552:	00 20       	and	r0, r0
    7554:	e9 f7       	brne	.-6      	; 0x7550 <_uploadMessage+0x2a>
    7556:	31 97       	sbiw	r30, 0x01	; 1
    7558:	80 e2       	ldi	r24, 0x20	; 32
    755a:	90 e0       	ldi	r25, 0x00	; 0
    755c:	91 83       	std	Z+1, r25	; 0x01
    755e:	80 83       	st	Z, r24
    7560:	be 01       	movw	r22, r28
    7562:	87 ef       	ldi	r24, 0xF7	; 247
    7564:	97 e1       	ldi	r25, 0x17	; 23
    7566:	0e 94 5e 49 	call	0x92bc	; 0x92bc <strcat>
    756a:	e7 ef       	ldi	r30, 0xF7	; 247
    756c:	f7 e1       	ldi	r31, 0x17	; 23
    756e:	df 01       	movw	r26, r30
    7570:	0d 90       	ld	r0, X+
    7572:	00 20       	and	r0, r0
    7574:	e9 f7       	brne	.-6      	; 0x7570 <_uploadMessage+0x4a>
    7576:	11 97       	sbiw	r26, 0x01	; 1
    7578:	8d e0       	ldi	r24, 0x0D	; 13
    757a:	9a e0       	ldi	r25, 0x0A	; 10
    757c:	11 96       	adiw	r26, 0x01	; 1
    757e:	9c 93       	st	X, r25
    7580:	8e 93       	st	-X, r24
    7582:	12 96       	adiw	r26, 0x02	; 2
    7584:	1c 92       	st	X, r1
    7586:	01 90       	ld	r0, Z+
    7588:	00 20       	and	r0, r0
    758a:	e9 f7       	brne	.-6      	; 0x7586 <_uploadMessage+0x60>
    758c:	31 97       	sbiw	r30, 0x01	; 1
    758e:	e7 5f       	subi	r30, 0xF7	; 247
    7590:	f7 41       	sbci	r31, 0x17	; 23
    7592:	ae 2f       	mov	r26, r30
    7594:	87 ef       	ldi	r24, 0xF7	; 247
    7596:	97 e1       	ldi	r25, 0x17	; 23
    7598:	ac 01       	movw	r20, r24
    759a:	6a 2f       	mov	r22, r26
    759c:	80 91 33 18 	lds	r24, 0x1833	; 0x801833 <_rn2483_serial>
    75a0:	90 91 34 18 	lds	r25, 0x1834	; 0x801834 <_rn2483_serial+0x1>
    75a4:	65 d5       	rcall	.+2762   	; 0x8070 <serial_sendBytes>
    75a6:	81 11       	cpse	r24, r1
    75a8:	11 c0       	rjmp	.+34     	; 0x75cc <_uploadMessage+0xa6>
    75aa:	08 e2       	ldi	r16, 0x28	; 40
    75ac:	15 e0       	ldi	r17, 0x05	; 5
    75ae:	20 e0       	ldi	r18, 0x00	; 0
    75b0:	30 e0       	ldi	r19, 0x00	; 0
    75b2:	4d e2       	ldi	r20, 0x2D	; 45
    75b4:	50 e0       	ldi	r21, 0x00	; 0
    75b6:	6a eb       	ldi	r22, 0xBA	; 186
    75b8:	78 e1       	ldi	r23, 0x18	; 24
    75ba:	80 91 31 18 	lds	r24, 0x1831	; 0x801831 <_serialReplyBufferHandle>
    75be:	90 91 32 18 	lds	r25, 0x1832	; 0x801832 <_serialReplyBufferHandle+0x1>
    75c2:	0e 94 cb 18 	call	0x3196	; 0x3196 <xStreamBufferReceive>
    75c6:	8a eb       	ldi	r24, 0xBA	; 186
    75c8:	98 e1       	ldi	r25, 0x18	; 24
    75ca:	02 c0       	rjmp	.+4      	; 0x75d0 <_uploadMessage+0xaa>
    75cc:	80 e0       	ldi	r24, 0x00	; 0
    75ce:	90 e0       	ldi	r25, 0x00	; 0
    75d0:	df 91       	pop	r29
    75d2:	cf 91       	pop	r28
    75d4:	1f 91       	pop	r17
    75d6:	0f 91       	pop	r16
    75d8:	08 95       	ret

000075da <_reply2ReturnCode>:
    75da:	2f 92       	push	r2
    75dc:	3f 92       	push	r3
    75de:	4f 92       	push	r4
    75e0:	5f 92       	push	r5
    75e2:	6f 92       	push	r6
    75e4:	7f 92       	push	r7
    75e6:	8f 92       	push	r8
    75e8:	9f 92       	push	r9
    75ea:	af 92       	push	r10
    75ec:	bf 92       	push	r11
    75ee:	cf 92       	push	r12
    75f0:	df 92       	push	r13
    75f2:	ef 92       	push	r14
    75f4:	ff 92       	push	r15
    75f6:	0f 93       	push	r16
    75f8:	1f 93       	push	r17
    75fa:	cf 93       	push	r28
    75fc:	df 93       	push	r29
    75fe:	5c 01       	movw	r10, r24
    7600:	fc 01       	movw	r30, r24
    7602:	01 90       	ld	r0, Z+
    7604:	00 20       	and	r0, r0
    7606:	e9 f7       	brne	.-6      	; 0x7602 <_reply2ReturnCode+0x28>
    7608:	31 97       	sbiw	r30, 0x01	; 1
    760a:	6f 01       	movw	r12, r30
    760c:	c8 1a       	sub	r12, r24
    760e:	d9 0a       	sbc	r13, r25
    7610:	5c 2c       	mov	r5, r12
    7612:	0f 2e       	mov	r0, r31
    7614:	fe e1       	ldi	r31, 0x1E	; 30
    7616:	8f 2e       	mov	r8, r31
    7618:	f9 e0       	ldi	r31, 0x09	; 9
    761a:	9f 2e       	mov	r9, r31
    761c:	f0 2d       	mov	r31, r0
    761e:	e1 2c       	mov	r14, r1
    7620:	f1 2c       	mov	r15, r1
    7622:	4c 2c       	mov	r4, r12
    7624:	37 01       	movw	r6, r14
    7626:	f4 01       	movw	r30, r8
    7628:	01 81       	ldd	r16, Z+1	; 0x01
    762a:	12 81       	ldd	r17, Z+2	; 0x02
    762c:	e8 01       	movw	r28, r16
    762e:	09 90       	ld	r0, Y+
    7630:	00 20       	and	r0, r0
    7632:	e9 f7       	brne	.-6      	; 0x762e <_reply2ReturnCode+0x54>
    7634:	21 97       	sbiw	r28, 0x01	; 1
    7636:	c0 1b       	sub	r28, r16
    7638:	d1 0b       	sbc	r29, r17
    763a:	3c 2e       	mov	r3, r28
    763c:	f9 e0       	ldi	r31, 0x09	; 9
    763e:	cf 16       	cp	r12, r31
    7640:	d1 04       	cpc	r13, r1
    7642:	58 f0       	brcs	.+22     	; 0x765a <_reply2ReturnCode+0x80>
    7644:	f4 01       	movw	r30, r8
    7646:	20 80       	ld	r2, Z
    7648:	fe e0       	ldi	r31, 0x0E	; 14
    764a:	2f 12       	cpse	r2, r31
    764c:	06 c0       	rjmp	.+12     	; 0x765a <_reply2ReturnCode+0x80>
    764e:	b8 01       	movw	r22, r16
    7650:	c5 01       	movw	r24, r10
    7652:	0e 94 39 49 	call	0x9272	; 0x9272 <strcasestr>
    7656:	89 2b       	or	r24, r25
    7658:	09 f5       	brne	.+66     	; 0x769c <_reply2ReturnCode+0xc2>
    765a:	44 2d       	mov	r20, r4
    765c:	35 14       	cp	r3, r5
    765e:	08 f4       	brcc	.+2      	; 0x7662 <_reply2ReturnCode+0x88>
    7660:	4c 2f       	mov	r20, r28
    7662:	50 e0       	ldi	r21, 0x00	; 0
    7664:	b8 01       	movw	r22, r16
    7666:	c5 01       	movw	r24, r10
    7668:	0e 94 70 49 	call	0x92e0	; 0x92e0 <strncasecmp>
    766c:	89 2b       	or	r24, r25
    766e:	49 f4       	brne	.+18     	; 0x7682 <_reply2ReturnCode+0xa8>
    7670:	f3 01       	movw	r30, r6
    7672:	ee 0f       	add	r30, r30
    7674:	ff 1f       	adc	r31, r31
    7676:	e6 0d       	add	r30, r6
    7678:	f7 1d       	adc	r31, r7
    767a:	e2 5e       	subi	r30, 0xE2	; 226
    767c:	f6 4f       	sbci	r31, 0xF6	; 246
    767e:	20 80       	ld	r2, Z
    7680:	0d c0       	rjmp	.+26     	; 0x769c <_reply2ReturnCode+0xc2>
    7682:	8f ef       	ldi	r24, 0xFF	; 255
    7684:	e8 1a       	sub	r14, r24
    7686:	f8 0a       	sbc	r15, r24
    7688:	e3 e0       	ldi	r30, 0x03	; 3
    768a:	8e 0e       	add	r8, r30
    768c:	91 1c       	adc	r9, r1
    768e:	f1 e1       	ldi	r31, 0x11	; 17
    7690:	ef 16       	cp	r14, r31
    7692:	f1 04       	cpc	r15, r1
    7694:	39 f6       	brne	.-114    	; 0x7624 <_reply2ReturnCode+0x4a>
    7696:	68 94       	set
    7698:	22 24       	eor	r2, r2
    769a:	24 f8       	bld	r2, 4
    769c:	82 2d       	mov	r24, r2
    769e:	df 91       	pop	r29
    76a0:	cf 91       	pop	r28
    76a2:	1f 91       	pop	r17
    76a4:	0f 91       	pop	r16
    76a6:	ff 90       	pop	r15
    76a8:	ef 90       	pop	r14
    76aa:	df 90       	pop	r13
    76ac:	cf 90       	pop	r12
    76ae:	bf 90       	pop	r11
    76b0:	af 90       	pop	r10
    76b2:	9f 90       	pop	r9
    76b4:	8f 90       	pop	r8
    76b6:	7f 90       	pop	r7
    76b8:	6f 90       	pop	r6
    76ba:	5f 90       	pop	r5
    76bc:	4f 90       	pop	r4
    76be:	3f 90       	pop	r3
    76c0:	2f 90       	pop	r2
    76c2:	08 95       	ret

000076c4 <_uploadMessageRc>:
    76c4:	30 df       	rcall	.-416    	; 0x7526 <_uploadMessage>
    76c6:	89 cf       	rjmp	.-238    	; 0x75da <_reply2ReturnCode>
    76c8:	08 95       	ret

000076ca <lora_driver_flushBuffers>:
    76ca:	80 91 31 18 	lds	r24, 0x1831	; 0x801831 <_serialReplyBufferHandle>
    76ce:	90 91 32 18 	lds	r25, 0x1832	; 0x801832 <_serialReplyBufferHandle+0x1>
    76d2:	0c 94 48 16 	jmp	0x2c90	; 0x2c90 <xStreamBufferReset>
    76d6:	08 95       	ret

000076d8 <lora_driver_initialise>:
    76d8:	8f 92       	push	r8
    76da:	9f 92       	push	r9
    76dc:	af 92       	push	r10
    76de:	cf 92       	push	r12
    76e0:	ef 92       	push	r14
    76e2:	0f 93       	push	r16
    76e4:	1f 93       	push	r17
    76e6:	cf 93       	push	r28
    76e8:	c8 2f       	mov	r28, r24
    76ea:	8b 01       	movw	r16, r22
    76ec:	41 e0       	ldi	r20, 0x01	; 1
    76ee:	60 e0       	ldi	r22, 0x00	; 0
    76f0:	70 e0       	ldi	r23, 0x00	; 0
    76f2:	88 ec       	ldi	r24, 0xC8	; 200
    76f4:	90 e0       	ldi	r25, 0x00	; 0
    76f6:	0e 94 f3 15 	call	0x2be6	; 0x2be6 <xStreamBufferGenericCreate>
    76fa:	90 93 32 18 	sts	0x1832, r25	; 0x801832 <_serialReplyBufferHandle+0x1>
    76fe:	80 93 31 18 	sts	0x1831, r24	; 0x801831 <_serialReplyBufferHandle>
    7702:	10 93 30 18 	sts	0x1830, r17	; 0x801830 <_downlinkMessageBuffer+0x1>
    7706:	00 93 2f 18 	sts	0x182F, r16	; 0x80182f <_downlinkMessageBuffer>
    770a:	0f 2e       	mov	r0, r31
    770c:	fd e4       	ldi	r31, 0x4D	; 77
    770e:	8f 2e       	mov	r8, r31
    7710:	fa e3       	ldi	r31, 0x3A	; 58
    7712:	9f 2e       	mov	r9, r31
    7714:	f0 2d       	mov	r31, r0
    7716:	68 94       	set
    7718:	aa 24       	eor	r10, r10
    771a:	a6 f8       	bld	r10, 6
    771c:	68 94       	set
    771e:	cc 24       	eor	r12, r12
    7720:	c6 f8       	bld	r12, 6
    7722:	e1 2c       	mov	r14, r1
    7724:	00 e0       	ldi	r16, 0x00	; 0
    7726:	23 e0       	ldi	r18, 0x03	; 3
    7728:	40 e0       	ldi	r20, 0x00	; 0
    772a:	51 ee       	ldi	r21, 0xE1	; 225
    772c:	60 e0       	ldi	r22, 0x00	; 0
    772e:	70 e0       	ldi	r23, 0x00	; 0
    7730:	8c 2f       	mov	r24, r28
    7732:	d2 d3       	rcall	.+1956   	; 0x7ed8 <serial_create>
    7734:	90 93 34 18 	sts	0x1834, r25	; 0x801834 <_rn2483_serial+0x1>
    7738:	80 93 33 18 	sts	0x1833, r24	; 0x801833 <_rn2483_serial>
    773c:	e7 e0       	ldi	r30, 0x07	; 7
    773e:	f1 e0       	ldi	r31, 0x01	; 1
    7740:	80 81       	ld	r24, Z
    7742:	80 61       	ori	r24, 0x10	; 16
    7744:	80 83       	st	Z, r24
    7746:	cf 91       	pop	r28
    7748:	1f 91       	pop	r17
    774a:	0f 91       	pop	r16
    774c:	ef 90       	pop	r14
    774e:	cf 90       	pop	r12
    7750:	af 90       	pop	r10
    7752:	9f 90       	pop	r9
    7754:	8f 90       	pop	r8
    7756:	08 95       	ret

00007758 <lora_driver_resetRn2483>:
    7758:	88 23       	and	r24, r24
    775a:	31 f0       	breq	.+12     	; 0x7768 <lora_driver_resetRn2483+0x10>
    775c:	e8 e0       	ldi	r30, 0x08	; 8
    775e:	f1 e0       	ldi	r31, 0x01	; 1
    7760:	80 81       	ld	r24, Z
    7762:	8f 7e       	andi	r24, 0xEF	; 239
    7764:	80 83       	st	Z, r24
    7766:	08 95       	ret
    7768:	e8 e0       	ldi	r30, 0x08	; 8
    776a:	f1 e0       	ldi	r31, 0x01	; 1
    776c:	80 81       	ld	r24, Z
    776e:	80 61       	ori	r24, 0x10	; 16
    7770:	80 83       	st	Z, r24
    7772:	08 95       	ret

00007774 <lora_driver_rn2483FactoryReset>:
    7774:	60 e0       	ldi	r22, 0x00	; 0
    7776:	70 e0       	ldi	r23, 0x00	; 0
    7778:	84 ea       	ldi	r24, 0xA4	; 164
    777a:	96 e0       	ldi	r25, 0x06	; 6
    777c:	d4 de       	rcall	.-600    	; 0x7526 <_uploadMessage>
    777e:	ea eb       	ldi	r30, 0xBA	; 186
    7780:	f8 e1       	ldi	r31, 0x18	; 24
    7782:	01 90       	ld	r0, Z+
    7784:	00 20       	and	r0, r0
    7786:	e9 f7       	brne	.-6      	; 0x7782 <lora_driver_rn2483FactoryReset+0xe>
    7788:	31 97       	sbiw	r30, 0x01	; 1
    778a:	ea 5b       	subi	r30, 0xBA	; 186
    778c:	f8 41       	sbci	r31, 0x18	; 24
    778e:	81 e0       	ldi	r24, 0x01	; 1
    7790:	75 97       	sbiw	r30, 0x15	; 21
    7792:	08 f0       	brcs	.+2      	; 0x7796 <lora_driver_rn2483FactoryReset+0x22>
    7794:	80 e0       	ldi	r24, 0x00	; 0
    7796:	08 95       	ret

00007798 <lora_driver_getRn2483Hweui>:
    7798:	cf 93       	push	r28
    779a:	df 93       	push	r29
    779c:	ec 01       	movw	r28, r24
    779e:	60 e0       	ldi	r22, 0x00	; 0
    77a0:	70 e0       	ldi	r23, 0x00	; 0
    77a2:	85 eb       	ldi	r24, 0xB5	; 181
    77a4:	96 e0       	ldi	r25, 0x06	; 6
    77a6:	bf de       	rcall	.-642    	; 0x7526 <_uploadMessage>
    77a8:	ea eb       	ldi	r30, 0xBA	; 186
    77aa:	f8 e1       	ldi	r31, 0x18	; 24
    77ac:	01 90       	ld	r0, Z+
    77ae:	00 20       	and	r0, r0
    77b0:	e9 f7       	brne	.-6      	; 0x77ac <lora_driver_getRn2483Hweui+0x14>
    77b2:	eb 5c       	subi	r30, 0xCB	; 203
    77b4:	f8 41       	sbci	r31, 0x18	; 24
    77b6:	39 f4       	brne	.+14     	; 0x77c6 <lora_driver_getRn2483Hweui+0x2e>
    77b8:	6a eb       	ldi	r22, 0xBA	; 186
    77ba:	78 e1       	ldi	r23, 0x18	; 24
    77bc:	ce 01       	movw	r24, r28
    77be:	0e 94 69 49 	call	0x92d2	; 0x92d2 <strcpy>
    77c2:	80 e0       	ldi	r24, 0x00	; 0
    77c4:	02 c0       	rjmp	.+4      	; 0x77ca <lora_driver_getRn2483Hweui+0x32>
    77c6:	18 82       	st	Y, r1
    77c8:	81 e0       	ldi	r24, 0x01	; 1
    77ca:	df 91       	pop	r29
    77cc:	cf 91       	pop	r28
    77ce:	08 95       	ret

000077d0 <lora_driver_setDeviceIdentifier>:
    77d0:	fc 01       	movw	r30, r24
    77d2:	01 90       	ld	r0, Z+
    77d4:	00 20       	and	r0, r0
    77d6:	e9 f7       	brne	.-6      	; 0x77d2 <lora_driver_setDeviceIdentifier+0x2>
    77d8:	9f 01       	movw	r18, r30
    77da:	21 51       	subi	r18, 0x11	; 17
    77dc:	31 09       	sbc	r19, r1
    77de:	28 17       	cp	r18, r24
    77e0:	39 07       	cpc	r19, r25
    77e2:	29 f4       	brne	.+10     	; 0x77ee <lora_driver_setDeviceIdentifier+0x1e>
    77e4:	bc 01       	movw	r22, r24
    77e6:	83 ee       	ldi	r24, 0xE3	; 227
    77e8:	96 e0       	ldi	r25, 0x06	; 6
    77ea:	6c cf       	rjmp	.-296    	; 0x76c4 <_uploadMessageRc>
    77ec:	08 95       	ret
    77ee:	89 e0       	ldi	r24, 0x09	; 9
    77f0:	08 95       	ret

000077f2 <lora_driver_setApplicationIdentifier>:
    77f2:	fc 01       	movw	r30, r24
    77f4:	01 90       	ld	r0, Z+
    77f6:	00 20       	and	r0, r0
    77f8:	e9 f7       	brne	.-6      	; 0x77f4 <lora_driver_setApplicationIdentifier+0x2>
    77fa:	9f 01       	movw	r18, r30
    77fc:	21 51       	subi	r18, 0x11	; 17
    77fe:	31 09       	sbc	r19, r1
    7800:	28 17       	cp	r18, r24
    7802:	39 07       	cpc	r19, r25
    7804:	29 f4       	brne	.+10     	; 0x7810 <lora_driver_setApplicationIdentifier+0x1e>
    7806:	bc 01       	movw	r22, r24
    7808:	82 ef       	ldi	r24, 0xF2	; 242
    780a:	96 e0       	ldi	r25, 0x06	; 6
    780c:	5b cf       	rjmp	.-330    	; 0x76c4 <_uploadMessageRc>
    780e:	08 95       	ret
    7810:	89 e0       	ldi	r24, 0x09	; 9
    7812:	08 95       	ret

00007814 <lora_driver_setApplicationKey>:
    7814:	fc 01       	movw	r30, r24
    7816:	01 90       	ld	r0, Z+
    7818:	00 20       	and	r0, r0
    781a:	e9 f7       	brne	.-6      	; 0x7816 <lora_driver_setApplicationKey+0x2>
    781c:	9f 01       	movw	r18, r30
    781e:	21 52       	subi	r18, 0x21	; 33
    7820:	31 09       	sbc	r19, r1
    7822:	28 17       	cp	r18, r24
    7824:	39 07       	cpc	r19, r25
    7826:	29 f4       	brne	.+10     	; 0x7832 <lora_driver_setApplicationKey+0x1e>
    7828:	bc 01       	movw	r22, r24
    782a:	81 e0       	ldi	r24, 0x01	; 1
    782c:	97 e0       	ldi	r25, 0x07	; 7
    782e:	4a cf       	rjmp	.-364    	; 0x76c4 <_uploadMessageRc>
    7830:	08 95       	ret
    7832:	89 e0       	ldi	r24, 0x09	; 9
    7834:	08 95       	ret

00007836 <lora_driver_saveMac>:
    7836:	60 e0       	ldi	r22, 0x00	; 0
    7838:	70 e0       	ldi	r23, 0x00	; 0
    783a:	80 e4       	ldi	r24, 0x40	; 64
    783c:	97 e0       	ldi	r25, 0x07	; 7
    783e:	42 cf       	rjmp	.-380    	; 0x76c4 <_uploadMessageRc>
    7840:	08 95       	ret

00007842 <lora_driver_join>:
    7842:	0f 93       	push	r16
    7844:	1f 93       	push	r17
    7846:	e8 2f       	mov	r30, r24
    7848:	f0 e0       	ldi	r31, 0x00	; 0
    784a:	ee 0f       	add	r30, r30
    784c:	ff 1f       	adc	r31, r31
    784e:	e6 5e       	subi	r30, 0xE6	; 230
    7850:	f6 4f       	sbci	r31, 0xF6	; 246
    7852:	60 81       	ld	r22, Z
    7854:	71 81       	ldd	r23, Z+1	; 0x01
    7856:	89 e4       	ldi	r24, 0x49	; 73
    7858:	97 e0       	ldi	r25, 0x07	; 7
    785a:	34 df       	rcall	.-408    	; 0x76c4 <_uploadMessageRc>
    785c:	81 11       	cpse	r24, r1
    785e:	14 c0       	rjmp	.+40     	; 0x7888 <lora_driver_join+0x46>
    7860:	08 e2       	ldi	r16, 0x28	; 40
    7862:	15 e0       	ldi	r17, 0x05	; 5
    7864:	20 e0       	ldi	r18, 0x00	; 0
    7866:	30 e0       	ldi	r19, 0x00	; 0
    7868:	4d e2       	ldi	r20, 0x2D	; 45
    786a:	50 e0       	ldi	r21, 0x00	; 0
    786c:	6a eb       	ldi	r22, 0xBA	; 186
    786e:	78 e1       	ldi	r23, 0x18	; 24
    7870:	80 91 31 18 	lds	r24, 0x1831	; 0x801831 <_serialReplyBufferHandle>
    7874:	90 91 32 18 	lds	r25, 0x1832	; 0x801832 <_serialReplyBufferHandle+0x1>
    7878:	0e 94 cb 18 	call	0x3196	; 0x3196 <xStreamBufferReceive>
    787c:	88 23       	and	r24, r24
    787e:	21 f0       	breq	.+8      	; 0x7888 <lora_driver_join+0x46>
    7880:	8a eb       	ldi	r24, 0xBA	; 186
    7882:	98 e1       	ldi	r25, 0x18	; 24
    7884:	aa de       	rcall	.-684    	; 0x75da <_reply2ReturnCode>
    7886:	03 c0       	rjmp	.+6      	; 0x788e <lora_driver_join+0x4c>
    7888:	8a eb       	ldi	r24, 0xBA	; 186
    788a:	98 e1       	ldi	r25, 0x18	; 24
    788c:	a6 de       	rcall	.-692    	; 0x75da <_reply2ReturnCode>
    788e:	1f 91       	pop	r17
    7890:	0f 91       	pop	r16
    7892:	08 95       	ret

00007894 <lora_driver_sendUploadMessage>:
    7894:	0f 93       	push	r16
    7896:	1f 93       	push	r17
    7898:	cf 93       	push	r28
    789a:	df 93       	push	r29
    789c:	1f 92       	push	r1
    789e:	cd b7       	in	r28, 0x3d	; 61
    78a0:	de b7       	in	r29, 0x3e	; 62
    78a2:	db 01       	movw	r26, r22
    78a4:	11 96       	adiw	r26, 0x01	; 1
    78a6:	9c 91       	ld	r25, X
    78a8:	11 97       	sbiw	r26, 0x01	; 1
    78aa:	95 31       	cpi	r25, 0x15	; 21
    78ac:	08 f0       	brcs	.+2      	; 0x78b0 <lora_driver_sendUploadMessage+0x1c>
    78ae:	b4 c0       	rjmp	.+360    	; 0x7a18 <lora_driver_sendUploadMessage+0x184>
    78b0:	99 23       	and	r25, r25
    78b2:	81 f1       	breq	.+96     	; 0x7914 <lora_driver_sendUploadMessage+0x80>
    78b4:	60 e0       	ldi	r22, 0x00	; 0
    78b6:	70 e0       	ldi	r23, 0x00	; 0
    78b8:	27 2f       	mov	r18, r23
    78ba:	30 e0       	ldi	r19, 0x00	; 0
    78bc:	46 2f       	mov	r20, r22
    78be:	50 e0       	ldi	r21, 0x00	; 0
    78c0:	fd 01       	movw	r30, r26
    78c2:	e4 0f       	add	r30, r20
    78c4:	f5 1f       	adc	r31, r21
    78c6:	92 81       	ldd	r25, Z+2	; 0x02
    78c8:	92 95       	swap	r25
    78ca:	9f 70       	andi	r25, 0x0F	; 15
    78cc:	9a 30       	cpi	r25, 0x0A	; 10
    78ce:	10 f0       	brcs	.+4      	; 0x78d4 <lora_driver_sendUploadMessage+0x40>
    78d0:	99 5c       	subi	r25, 0xC9	; 201
    78d2:	01 c0       	rjmp	.+2      	; 0x78d6 <lora_driver_sendUploadMessage+0x42>
    78d4:	90 5d       	subi	r25, 0xD0	; 208
    78d6:	f9 01       	movw	r30, r18
    78d8:	e5 5b       	subi	r30, 0xB5	; 181
    78da:	f7 4e       	sbci	r31, 0xE7	; 231
    78dc:	90 83       	st	Z, r25
    78de:	2f 5f       	subi	r18, 0xFF	; 255
    78e0:	3f 4f       	sbci	r19, 0xFF	; 255
    78e2:	fd 01       	movw	r30, r26
    78e4:	e4 0f       	add	r30, r20
    78e6:	f5 1f       	adc	r31, r21
    78e8:	92 81       	ldd	r25, Z+2	; 0x02
    78ea:	9f 70       	andi	r25, 0x0F	; 15
    78ec:	49 2f       	mov	r20, r25
    78ee:	50 e0       	ldi	r21, 0x00	; 0
    78f0:	4a 30       	cpi	r20, 0x0A	; 10
    78f2:	51 05       	cpc	r21, r1
    78f4:	14 f0       	brlt	.+4      	; 0x78fa <lora_driver_sendUploadMessage+0x66>
    78f6:	99 5c       	subi	r25, 0xC9	; 201
    78f8:	01 c0       	rjmp	.+2      	; 0x78fc <lora_driver_sendUploadMessage+0x68>
    78fa:	90 5d       	subi	r25, 0xD0	; 208
    78fc:	f9 01       	movw	r30, r18
    78fe:	e5 5b       	subi	r30, 0xB5	; 181
    7900:	f7 4e       	sbci	r31, 0xE7	; 231
    7902:	90 83       	st	Z, r25
    7904:	7e 5f       	subi	r23, 0xFE	; 254
    7906:	6f 5f       	subi	r22, 0xFF	; 255
    7908:	11 96       	adiw	r26, 0x01	; 1
    790a:	9c 91       	ld	r25, X
    790c:	11 97       	sbiw	r26, 0x01	; 1
    790e:	69 17       	cp	r22, r25
    7910:	98 f2       	brcs	.-90     	; 0x78b8 <lora_driver_sendUploadMessage+0x24>
    7912:	01 c0       	rjmp	.+2      	; 0x7916 <lora_driver_sendUploadMessage+0x82>
    7914:	70 e0       	ldi	r23, 0x00	; 0
    7916:	e7 2f       	mov	r30, r23
    7918:	f0 e0       	ldi	r31, 0x00	; 0
    791a:	e5 5b       	subi	r30, 0xB5	; 181
    791c:	f7 4e       	sbci	r31, 0xE7	; 231
    791e:	10 82       	st	Z, r1
    7920:	4c 91       	ld	r20, X
    7922:	81 11       	cpse	r24, r1
    7924:	03 c0       	rjmp	.+6      	; 0x792c <lora_driver_sendUploadMessage+0x98>
    7926:	82 e5       	ldi	r24, 0x52	; 82
    7928:	97 e0       	ldi	r25, 0x07	; 7
    792a:	02 c0       	rjmp	.+4      	; 0x7930 <lora_driver_sendUploadMessage+0x9c>
    792c:	84 e5       	ldi	r24, 0x54	; 84
    792e:	97 e0       	ldi	r25, 0x07	; 7
    7930:	2b e4       	ldi	r18, 0x4B	; 75
    7932:	38 e1       	ldi	r19, 0x18	; 24
    7934:	3f 93       	push	r19
    7936:	2f 93       	push	r18
    7938:	1f 92       	push	r1
    793a:	4f 93       	push	r20
    793c:	9f 93       	push	r25
    793e:	8f 93       	push	r24
    7940:	88 e5       	ldi	r24, 0x58	; 88
    7942:	97 e0       	ldi	r25, 0x07	; 7
    7944:	9f 93       	push	r25
    7946:	8f 93       	push	r24
    7948:	8d e8       	ldi	r24, 0x8D	; 141
    794a:	98 e1       	ldi	r25, 0x18	; 24
    794c:	9f 93       	push	r25
    794e:	8f 93       	push	r24
    7950:	0e 94 cb 49 	call	0x9396	; 0x9396 <sprintf>
    7954:	60 e0       	ldi	r22, 0x00	; 0
    7956:	70 e0       	ldi	r23, 0x00	; 0
    7958:	8d e8       	ldi	r24, 0x8D	; 141
    795a:	98 e1       	ldi	r25, 0x18	; 24
    795c:	b3 de       	rcall	.-666    	; 0x76c4 <_uploadMessageRc>
    795e:	0f b6       	in	r0, 0x3f	; 63
    7960:	f8 94       	cli
    7962:	de bf       	out	0x3e, r29	; 62
    7964:	0f be       	out	0x3f, r0	; 63
    7966:	cd bf       	out	0x3d, r28	; 61
    7968:	81 11       	cpse	r24, r1
    796a:	59 c0       	rjmp	.+178    	; 0x7a1e <lora_driver_sendUploadMessage+0x18a>
    796c:	08 e2       	ldi	r16, 0x28	; 40
    796e:	15 e0       	ldi	r17, 0x05	; 5
    7970:	20 e0       	ldi	r18, 0x00	; 0
    7972:	30 e0       	ldi	r19, 0x00	; 0
    7974:	4d e2       	ldi	r20, 0x2D	; 45
    7976:	50 e0       	ldi	r21, 0x00	; 0
    7978:	6a eb       	ldi	r22, 0xBA	; 186
    797a:	78 e1       	ldi	r23, 0x18	; 24
    797c:	80 91 31 18 	lds	r24, 0x1831	; 0x801831 <_serialReplyBufferHandle>
    7980:	90 91 32 18 	lds	r25, 0x1832	; 0x801832 <_serialReplyBufferHandle+0x1>
    7984:	0e 94 cb 18 	call	0x3196	; 0x3196 <xStreamBufferReceive>
    7988:	88 23       	and	r24, r24
    798a:	09 f4       	brne	.+2      	; 0x798e <lora_driver_sendUploadMessage+0xfa>
    798c:	47 c0       	rjmp	.+142    	; 0x7a1c <lora_driver_sendUploadMessage+0x188>
    798e:	8a eb       	ldi	r24, 0xBA	; 186
    7990:	98 e1       	ldi	r25, 0x18	; 24
    7992:	23 de       	rcall	.-954    	; 0x75da <_reply2ReturnCode>
    7994:	8e 30       	cpi	r24, 0x0E	; 14
    7996:	09 f0       	breq	.+2      	; 0x799a <lora_driver_sendUploadMessage+0x106>
    7998:	42 c0       	rjmp	.+132    	; 0x7a1e <lora_driver_sendUploadMessage+0x18a>
    799a:	87 e0       	ldi	r24, 0x07	; 7
    799c:	89 83       	std	Y+1, r24	; 0x01
    799e:	80 91 2f 18 	lds	r24, 0x182F	; 0x80182f <_downlinkMessageBuffer>
    79a2:	90 91 30 18 	lds	r25, 0x1830	; 0x801830 <_downlinkMessageBuffer+0x1>
    79a6:	89 2b       	or	r24, r25
    79a8:	a9 f1       	breq	.+106    	; 0x7a14 <lora_driver_sendUploadMessage+0x180>
    79aa:	be 01       	movw	r22, r28
    79ac:	6f 5f       	subi	r22, 0xFF	; 255
    79ae:	7f 4f       	sbci	r23, 0xFF	; 255
    79b0:	8a eb       	ldi	r24, 0xBA	; 186
    79b2:	98 e1       	ldi	r25, 0x18	; 24
    79b4:	68 d1       	rcall	.+720    	; 0x7c86 <decode_port_no>
    79b6:	80 93 35 18 	sts	0x1835, r24	; 0x801835 <_downlinkPayload>
    79ba:	e9 81       	ldd	r30, Y+1	; 0x01
    79bc:	f0 e0       	ldi	r31, 0x00	; 0
    79be:	e6 54       	subi	r30, 0x46	; 70
    79c0:	f7 4e       	sbci	r31, 0xE7	; 231
    79c2:	df 01       	movw	r26, r30
    79c4:	0d 90       	ld	r0, X+
    79c6:	00 20       	and	r0, r0
    79c8:	e9 f7       	brne	.-6      	; 0x79c4 <lora_driver_sendUploadMessage+0x130>
    79ca:	11 97       	sbiw	r26, 0x01	; 1
    79cc:	ae 1b       	sub	r26, r30
    79ce:	bf 0b       	sbc	r27, r31
    79d0:	aa 23       	and	r26, r26
    79d2:	91 f0       	breq	.+36     	; 0x79f8 <lora_driver_sendUploadMessage+0x164>
    79d4:	bb 27       	eor	r27, r27
    79d6:	cd 01       	movw	r24, r26
    79d8:	01 97       	sbiw	r24, 0x01	; 1
    79da:	9c 01       	movw	r18, r24
    79dc:	12 f4       	brpl	.+4      	; 0x79e2 <lora_driver_sendUploadMessage+0x14e>
    79de:	2f 5f       	subi	r18, 0xFF	; 255
    79e0:	3f 4f       	sbci	r19, 0xFF	; 255
    79e2:	35 95       	asr	r19
    79e4:	27 95       	ror	r18
    79e6:	20 93 36 18 	sts	0x1836, r18	; 0x801836 <_downlinkPayload+0x1>
    79ea:	af 01       	movw	r20, r30
    79ec:	4f 5f       	subi	r20, 0xFF	; 255
    79ee:	5f 4f       	sbci	r21, 0xFF	; 255
    79f0:	64 e1       	ldi	r22, 0x14	; 20
    79f2:	87 e3       	ldi	r24, 0x37	; 55
    79f4:	98 e1       	ldi	r25, 0x18	; 24
    79f6:	73 d1       	rcall	.+742    	; 0x7cde <decode_hexadecimal_string_bytes>
    79f8:	01 e0       	ldi	r16, 0x01	; 1
    79fa:	10 e0       	ldi	r17, 0x00	; 0
    79fc:	20 e0       	ldi	r18, 0x00	; 0
    79fe:	30 e0       	ldi	r19, 0x00	; 0
    7a00:	46 e1       	ldi	r20, 0x16	; 22
    7a02:	50 e0       	ldi	r21, 0x00	; 0
    7a04:	65 e3       	ldi	r22, 0x35	; 53
    7a06:	78 e1       	ldi	r23, 0x18	; 24
    7a08:	80 91 2f 18 	lds	r24, 0x182F	; 0x80182f <_downlinkMessageBuffer>
    7a0c:	90 91 30 18 	lds	r25, 0x1830	; 0x801830 <_downlinkMessageBuffer+0x1>
    7a10:	0e 94 e4 16 	call	0x2dc8	; 0x2dc8 <xStreamBufferSend>
    7a14:	8e e0       	ldi	r24, 0x0E	; 14
    7a16:	03 c0       	rjmp	.+6      	; 0x7a1e <lora_driver_sendUploadMessage+0x18a>
    7a18:	84 e1       	ldi	r24, 0x14	; 20
    7a1a:	01 c0       	rjmp	.+2      	; 0x7a1e <lora_driver_sendUploadMessage+0x18a>
    7a1c:	80 e0       	ldi	r24, 0x00	; 0
    7a1e:	0f 90       	pop	r0
    7a20:	df 91       	pop	r29
    7a22:	cf 91       	pop	r28
    7a24:	1f 91       	pop	r17
    7a26:	0f 91       	pop	r16
    7a28:	08 95       	ret

00007a2a <lora_driver_setAdaptiveDataRate>:
    7a2a:	81 30       	cpi	r24, 0x01	; 1
    7a2c:	19 f0       	breq	.+6      	; 0x7a34 <lora_driver_setAdaptiveDataRate+0xa>
    7a2e:	68 e6       	ldi	r22, 0x68	; 104
    7a30:	77 e0       	ldi	r23, 0x07	; 7
    7a32:	02 c0       	rjmp	.+4      	; 0x7a38 <lora_driver_setAdaptiveDataRate+0xe>
    7a34:	61 e4       	ldi	r22, 0x41	; 65
    7a36:	78 e0       	ldi	r23, 0x08	; 8
    7a38:	8c e6       	ldi	r24, 0x6C	; 108
    7a3a:	97 e0       	ldi	r25, 0x07	; 7
    7a3c:	43 ce       	rjmp	.-890    	; 0x76c4 <_uploadMessageRc>
    7a3e:	08 95       	ret

00007a40 <lora_driver_setReceiveDelay>:
    7a40:	9f 93       	push	r25
    7a42:	8f 93       	push	r24
    7a44:	8d e9       	ldi	r24, 0x9D	; 157
    7a46:	97 e0       	ldi	r25, 0x07	; 7
    7a48:	9f 93       	push	r25
    7a4a:	8f 93       	push	r24
    7a4c:	8d e8       	ldi	r24, 0x8D	; 141
    7a4e:	98 e1       	ldi	r25, 0x18	; 24
    7a50:	9f 93       	push	r25
    7a52:	8f 93       	push	r24
    7a54:	0e 94 cb 49 	call	0x9396	; 0x9396 <sprintf>
    7a58:	60 e0       	ldi	r22, 0x00	; 0
    7a5a:	70 e0       	ldi	r23, 0x00	; 0
    7a5c:	8d e8       	ldi	r24, 0x8D	; 141
    7a5e:	98 e1       	ldi	r25, 0x18	; 24
    7a60:	31 de       	rcall	.-926    	; 0x76c4 <_uploadMessageRc>
    7a62:	0f 90       	pop	r0
    7a64:	0f 90       	pop	r0
    7a66:	0f 90       	pop	r0
    7a68:	0f 90       	pop	r0
    7a6a:	0f 90       	pop	r0
    7a6c:	0f 90       	pop	r0
    7a6e:	08 95       	ret

00007a70 <lora_driver_configureToEu868>:
    7a70:	2f 92       	push	r2
    7a72:	3f 92       	push	r3
    7a74:	4f 92       	push	r4
    7a76:	5f 92       	push	r5
    7a78:	6f 92       	push	r6
    7a7a:	7f 92       	push	r7
    7a7c:	8f 92       	push	r8
    7a7e:	9f 92       	push	r9
    7a80:	af 92       	push	r10
    7a82:	bf 92       	push	r11
    7a84:	cf 92       	push	r12
    7a86:	df 92       	push	r13
    7a88:	ef 92       	push	r14
    7a8a:	ff 92       	push	r15
    7a8c:	0f 93       	push	r16
    7a8e:	1f 93       	push	r17
    7a90:	cf 93       	push	r28
    7a92:	df 93       	push	r29
    7a94:	cd b7       	in	r28, 0x3d	; 61
    7a96:	de b7       	in	r29, 0x3e	; 62
    7a98:	a0 97       	sbiw	r28, 0x20	; 32
    7a9a:	0f b6       	in	r0, 0x3f	; 63
    7a9c:	f8 94       	cli
    7a9e:	de bf       	out	0x3e, r29	; 62
    7aa0:	0f be       	out	0x3f, r0	; 63
    7aa2:	cd bf       	out	0x3d, r28	; 61
    7aa4:	6a ec       	ldi	r22, 0xCA	; 202
    7aa6:	77 e0       	ldi	r23, 0x07	; 7
    7aa8:	86 ed       	ldi	r24, 0xD6	; 214
    7aaa:	97 e0       	ldi	r25, 0x07	; 7
    7aac:	3c dd       	rcall	.-1416   	; 0x7526 <_uploadMessage>
    7aae:	95 dd       	rcall	.-1238   	; 0x75da <_reply2ReturnCode>
    7ab0:	81 11       	cpse	r24, r1
    7ab2:	a3 c0       	rjmp	.+326    	; 0x7bfa <lora_driver_configureToEu868+0x18a>
    7ab4:	80 e2       	ldi	r24, 0x20	; 32
    7ab6:	e8 e3       	ldi	r30, 0x38	; 56
    7ab8:	f6 e0       	ldi	r31, 0x06	; 6
    7aba:	de 01       	movw	r26, r28
    7abc:	11 96       	adiw	r26, 0x01	; 1
    7abe:	01 90       	ld	r0, Z+
    7ac0:	0d 92       	st	X+, r0
    7ac2:	8a 95       	dec	r24
    7ac4:	e1 f7       	brne	.-8      	; 0x7abe <lora_driver_configureToEu868+0x4e>
    7ac6:	9e 01       	movw	r18, r28
    7ac8:	2f 5f       	subi	r18, 0xFF	; 255
    7aca:	3f 4f       	sbci	r19, 0xFF	; 255
    7acc:	69 01       	movw	r12, r18
    7ace:	e1 2c       	mov	r14, r1
    7ad0:	f1 2c       	mov	r15, r1
    7ad2:	0f 2e       	mov	r0, r31
    7ad4:	f2 ee       	ldi	r31, 0xE2	; 226
    7ad6:	af 2e       	mov	r10, r31
    7ad8:	f7 e0       	ldi	r31, 0x07	; 7
    7ada:	bf 2e       	mov	r11, r31
    7adc:	f0 2d       	mov	r31, r0
    7ade:	0d e8       	ldi	r16, 0x8D	; 141
    7ae0:	18 e1       	ldi	r17, 0x18	; 24
    7ae2:	0f 2e       	mov	r0, r31
    7ae4:	fb ef       	ldi	r31, 0xFB	; 251
    7ae6:	4f 2e       	mov	r4, r31
    7ae8:	f7 e0       	ldi	r31, 0x07	; 7
    7aea:	5f 2e       	mov	r5, r31
    7aec:	f0 2d       	mov	r31, r0
    7aee:	0f 2e       	mov	r0, r31
    7af0:	f2 e1       	ldi	r31, 0x12	; 18
    7af2:	8f 2e       	mov	r8, r31
    7af4:	f8 e0       	ldi	r31, 0x08	; 8
    7af6:	9f 2e       	mov	r9, r31
    7af8:	f0 2d       	mov	r31, r0
    7afa:	0f 2e       	mov	r0, r31
    7afc:	fc e2       	ldi	r31, 0x2C	; 44
    7afe:	6f 2e       	mov	r6, r31
    7b00:	f8 e0       	ldi	r31, 0x08	; 8
    7b02:	7f 2e       	mov	r7, r31
    7b04:	f0 2d       	mov	r31, r0
    7b06:	3e 2c       	mov	r3, r14
    7b08:	2f 2c       	mov	r2, r15
    7b0a:	ff 92       	push	r15
    7b0c:	ef 92       	push	r14
    7b0e:	bf 92       	push	r11
    7b10:	af 92       	push	r10
    7b12:	1f 93       	push	r17
    7b14:	0f 93       	push	r16
    7b16:	0e 94 cb 49 	call	0x9396	; 0x9396 <sprintf>
    7b1a:	60 e0       	ldi	r22, 0x00	; 0
    7b1c:	70 e0       	ldi	r23, 0x00	; 0
    7b1e:	c8 01       	movw	r24, r16
    7b20:	02 dd       	rcall	.-1532   	; 0x7526 <_uploadMessage>
    7b22:	5b dd       	rcall	.-1354   	; 0x75da <_reply2ReturnCode>
    7b24:	0f 90       	pop	r0
    7b26:	0f 90       	pop	r0
    7b28:	0f 90       	pop	r0
    7b2a:	0f 90       	pop	r0
    7b2c:	0f 90       	pop	r0
    7b2e:	0f 90       	pop	r0
    7b30:	81 11       	cpse	r24, r1
    7b32:	63 c0       	rjmp	.+198    	; 0x7bfa <lora_driver_configureToEu868+0x18a>
    7b34:	32 e0       	ldi	r19, 0x02	; 2
    7b36:	3e 15       	cp	r19, r14
    7b38:	e8 f4       	brcc	.+58     	; 0x7b74 <lora_driver_configureToEu868+0x104>
    7b3a:	f6 01       	movw	r30, r12
    7b3c:	83 81       	ldd	r24, Z+3	; 0x03
    7b3e:	8f 93       	push	r24
    7b40:	82 81       	ldd	r24, Z+2	; 0x02
    7b42:	8f 93       	push	r24
    7b44:	81 81       	ldd	r24, Z+1	; 0x01
    7b46:	8f 93       	push	r24
    7b48:	80 81       	ld	r24, Z
    7b4a:	8f 93       	push	r24
    7b4c:	ff 92       	push	r15
    7b4e:	ef 92       	push	r14
    7b50:	5f 92       	push	r5
    7b52:	4f 92       	push	r4
    7b54:	1f 93       	push	r17
    7b56:	0f 93       	push	r16
    7b58:	0e 94 cb 49 	call	0x9396	; 0x9396 <sprintf>
    7b5c:	60 e0       	ldi	r22, 0x00	; 0
    7b5e:	70 e0       	ldi	r23, 0x00	; 0
    7b60:	c8 01       	movw	r24, r16
    7b62:	e1 dc       	rcall	.-1598   	; 0x7526 <_uploadMessage>
    7b64:	3a dd       	rcall	.-1420   	; 0x75da <_reply2ReturnCode>
    7b66:	0f b6       	in	r0, 0x3f	; 63
    7b68:	f8 94       	cli
    7b6a:	de bf       	out	0x3e, r29	; 62
    7b6c:	0f be       	out	0x3f, r0	; 63
    7b6e:	cd bf       	out	0x3d, r28	; 61
    7b70:	81 11       	cpse	r24, r1
    7b72:	43 c0       	rjmp	.+134    	; 0x7bfa <lora_driver_configureToEu868+0x18a>
    7b74:	2f 92       	push	r2
    7b76:	3f 92       	push	r3
    7b78:	9f 92       	push	r9
    7b7a:	8f 92       	push	r8
    7b7c:	1f 93       	push	r17
    7b7e:	0f 93       	push	r16
    7b80:	0e 94 cb 49 	call	0x9396	; 0x9396 <sprintf>
    7b84:	60 e0       	ldi	r22, 0x00	; 0
    7b86:	70 e0       	ldi	r23, 0x00	; 0
    7b88:	c8 01       	movw	r24, r16
    7b8a:	cd dc       	rcall	.-1638   	; 0x7526 <_uploadMessage>
    7b8c:	26 dd       	rcall	.-1460   	; 0x75da <_reply2ReturnCode>
    7b8e:	0f 90       	pop	r0
    7b90:	0f 90       	pop	r0
    7b92:	0f 90       	pop	r0
    7b94:	0f 90       	pop	r0
    7b96:	0f 90       	pop	r0
    7b98:	0f 90       	pop	r0
    7b9a:	81 11       	cpse	r24, r1
    7b9c:	2e c0       	rjmp	.+92     	; 0x7bfa <lora_driver_configureToEu868+0x18a>
    7b9e:	2f 92       	push	r2
    7ba0:	3f 92       	push	r3
    7ba2:	7f 92       	push	r7
    7ba4:	6f 92       	push	r6
    7ba6:	1f 93       	push	r17
    7ba8:	0f 93       	push	r16
    7baa:	0e 94 cb 49 	call	0x9396	; 0x9396 <sprintf>
    7bae:	60 e0       	ldi	r22, 0x00	; 0
    7bb0:	70 e0       	ldi	r23, 0x00	; 0
    7bb2:	c8 01       	movw	r24, r16
    7bb4:	b8 dc       	rcall	.-1680   	; 0x7526 <_uploadMessage>
    7bb6:	11 dd       	rcall	.-1502   	; 0x75da <_reply2ReturnCode>
    7bb8:	0f 90       	pop	r0
    7bba:	0f 90       	pop	r0
    7bbc:	0f 90       	pop	r0
    7bbe:	0f 90       	pop	r0
    7bc0:	0f 90       	pop	r0
    7bc2:	0f 90       	pop	r0
    7bc4:	81 11       	cpse	r24, r1
    7bc6:	19 c0       	rjmp	.+50     	; 0x7bfa <lora_driver_configureToEu868+0x18a>
    7bc8:	3f ef       	ldi	r19, 0xFF	; 255
    7bca:	e3 1a       	sub	r14, r19
    7bcc:	f3 0a       	sbc	r15, r19
    7bce:	84 e0       	ldi	r24, 0x04	; 4
    7bd0:	c8 0e       	add	r12, r24
    7bd2:	d1 1c       	adc	r13, r1
    7bd4:	98 e0       	ldi	r25, 0x08	; 8
    7bd6:	e9 16       	cp	r14, r25
    7bd8:	f1 04       	cpc	r15, r1
    7bda:	09 f0       	breq	.+2      	; 0x7bde <lora_driver_configureToEu868+0x16e>
    7bdc:	94 cf       	rjmp	.-216    	; 0x7b06 <lora_driver_configureToEu868+0x96>
    7bde:	60 e0       	ldi	r22, 0x00	; 0
    7be0:	70 e0       	ldi	r23, 0x00	; 0
    7be2:	84 e4       	ldi	r24, 0x44	; 68
    7be4:	98 e0       	ldi	r25, 0x08	; 8
    7be6:	9f dc       	rcall	.-1730   	; 0x7526 <_uploadMessage>
    7be8:	f8 dc       	rcall	.-1552   	; 0x75da <_reply2ReturnCode>
    7bea:	81 11       	cpse	r24, r1
    7bec:	06 c0       	rjmp	.+12     	; 0x7bfa <lora_driver_configureToEu868+0x18a>
    7bee:	60 e0       	ldi	r22, 0x00	; 0
    7bf0:	70 e0       	ldi	r23, 0x00	; 0
    7bf2:	85 e5       	ldi	r24, 0x55	; 85
    7bf4:	98 e0       	ldi	r25, 0x08	; 8
    7bf6:	97 dc       	rcall	.-1746   	; 0x7526 <_uploadMessage>
    7bf8:	f0 dc       	rcall	.-1568   	; 0x75da <_reply2ReturnCode>
    7bfa:	a0 96       	adiw	r28, 0x20	; 32
    7bfc:	0f b6       	in	r0, 0x3f	; 63
    7bfe:	f8 94       	cli
    7c00:	de bf       	out	0x3e, r29	; 62
    7c02:	0f be       	out	0x3f, r0	; 63
    7c04:	cd bf       	out	0x3d, r28	; 61
    7c06:	df 91       	pop	r29
    7c08:	cf 91       	pop	r28
    7c0a:	1f 91       	pop	r17
    7c0c:	0f 91       	pop	r16
    7c0e:	ff 90       	pop	r15
    7c10:	ef 90       	pop	r14
    7c12:	df 90       	pop	r13
    7c14:	cf 90       	pop	r12
    7c16:	bf 90       	pop	r11
    7c18:	af 90       	pop	r10
    7c1a:	9f 90       	pop	r9
    7c1c:	8f 90       	pop	r8
    7c1e:	7f 90       	pop	r7
    7c20:	6f 90       	pop	r6
    7c22:	5f 90       	pop	r5
    7c24:	4f 90       	pop	r4
    7c26:	3f 90       	pop	r3
    7c28:	2f 90       	pop	r2
    7c2a:	08 95       	ret

00007c2c <lora_driver_setOtaaIdentity>:
    7c2c:	ef 92       	push	r14
    7c2e:	ff 92       	push	r15
    7c30:	0f 93       	push	r16
    7c32:	1f 93       	push	r17
    7c34:	cf 93       	push	r28
    7c36:	df 93       	push	r29
    7c38:	ec 01       	movw	r28, r24
    7c3a:	8b 01       	movw	r16, r22
    7c3c:	7a 01       	movw	r14, r20
    7c3e:	81 e0       	ldi	r24, 0x01	; 1
    7c40:	f4 de       	rcall	.-536    	; 0x7a2a <lora_driver_setAdaptiveDataRate>
    7c42:	81 11       	cpse	r24, r1
    7c44:	0d c0       	rjmp	.+26     	; 0x7c60 <lora_driver_setOtaaIdentity+0x34>
    7c46:	ce 01       	movw	r24, r28
    7c48:	d4 dd       	rcall	.-1112   	; 0x77f2 <lora_driver_setApplicationIdentifier>
    7c4a:	81 11       	cpse	r24, r1
    7c4c:	09 c0       	rjmp	.+18     	; 0x7c60 <lora_driver_setOtaaIdentity+0x34>
    7c4e:	c8 01       	movw	r24, r16
    7c50:	e1 dd       	rcall	.-1086   	; 0x7814 <lora_driver_setApplicationKey>
    7c52:	81 11       	cpse	r24, r1
    7c54:	05 c0       	rjmp	.+10     	; 0x7c60 <lora_driver_setOtaaIdentity+0x34>
    7c56:	c7 01       	movw	r24, r14
    7c58:	bb dd       	rcall	.-1162   	; 0x77d0 <lora_driver_setDeviceIdentifier>
    7c5a:	81 11       	cpse	r24, r1
    7c5c:	01 c0       	rjmp	.+2      	; 0x7c60 <lora_driver_setOtaaIdentity+0x34>
    7c5e:	eb dd       	rcall	.-1066   	; 0x7836 <lora_driver_saveMac>
    7c60:	df 91       	pop	r29
    7c62:	cf 91       	pop	r28
    7c64:	1f 91       	pop	r17
    7c66:	0f 91       	pop	r16
    7c68:	ff 90       	pop	r15
    7c6a:	ef 90       	pop	r14
    7c6c:	08 95       	ret

00007c6e <lora_driver_mapReturnCodeToText>:
    7c6e:	90 e0       	ldi	r25, 0x00	; 0
    7c70:	fc 01       	movw	r30, r24
    7c72:	ee 0f       	add	r30, r30
    7c74:	ff 1f       	adc	r31, r31
    7c76:	8e 0f       	add	r24, r30
    7c78:	9f 1f       	adc	r25, r31
    7c7a:	fc 01       	movw	r30, r24
    7c7c:	e2 5e       	subi	r30, 0xE2	; 226
    7c7e:	f6 4f       	sbci	r31, 0xF6	; 246
    7c80:	81 81       	ldd	r24, Z+1	; 0x01
    7c82:	92 81       	ldd	r25, Z+2	; 0x02
    7c84:	08 95       	ret

00007c86 <decode_port_no>:
    7c86:	dc 01       	movw	r26, r24
    7c88:	00 97       	sbiw	r24, 0x00	; 0
    7c8a:	29 f1       	breq	.+74     	; 0x7cd6 <decode_port_no+0x50>
    7c8c:	fb 01       	movw	r30, r22
    7c8e:	20 81       	ld	r18, Z
    7c90:	fc 01       	movw	r30, r24
    7c92:	01 90       	ld	r0, Z+
    7c94:	00 20       	and	r0, r0
    7c96:	e9 f7       	brne	.-6      	; 0x7c92 <decode_port_no+0xc>
    7c98:	31 97       	sbiw	r30, 0x01	; 1
    7c9a:	e8 1b       	sub	r30, r24
    7c9c:	f9 0b       	sbc	r31, r25
    7c9e:	82 2f       	mov	r24, r18
    7ca0:	90 e0       	ldi	r25, 0x00	; 0
    7ca2:	e8 17       	cp	r30, r24
    7ca4:	f9 07       	cpc	r31, r25
    7ca6:	c8 f0       	brcs	.+50     	; 0x7cda <decode_port_no+0x54>
    7ca8:	80 e0       	ldi	r24, 0x00	; 0
    7caa:	08 c0       	rjmp	.+16     	; 0x7cbc <decode_port_no+0x36>
    7cac:	88 0f       	add	r24, r24
    7cae:	38 2f       	mov	r19, r24
    7cb0:	33 0f       	add	r19, r19
    7cb2:	33 0f       	add	r19, r19
    7cb4:	83 0f       	add	r24, r19
    7cb6:	80 53       	subi	r24, 0x30	; 48
    7cb8:	89 0f       	add	r24, r25
    7cba:	2f 5f       	subi	r18, 0xFF	; 255
    7cbc:	fd 01       	movw	r30, r26
    7cbe:	e2 0f       	add	r30, r18
    7cc0:	f1 1d       	adc	r31, r1
    7cc2:	90 81       	ld	r25, Z
    7cc4:	30 ed       	ldi	r19, 0xD0	; 208
    7cc6:	39 0f       	add	r19, r25
    7cc8:	3a 30       	cpi	r19, 0x0A	; 10
    7cca:	10 f4       	brcc	.+4      	; 0x7cd0 <decode_port_no+0x4a>
    7ccc:	91 11       	cpse	r25, r1
    7cce:	ee cf       	rjmp	.-36     	; 0x7cac <decode_port_no+0x26>
    7cd0:	fb 01       	movw	r30, r22
    7cd2:	20 83       	st	Z, r18
    7cd4:	08 95       	ret
    7cd6:	80 e0       	ldi	r24, 0x00	; 0
    7cd8:	08 95       	ret
    7cda:	80 e0       	ldi	r24, 0x00	; 0
    7cdc:	08 95       	ret

00007cde <decode_hexadecimal_string_bytes>:
    7cde:	0f 93       	push	r16
    7ce0:	1f 93       	push	r17
    7ce2:	cf 93       	push	r28
    7ce4:	df 93       	push	r29
    7ce6:	dc 01       	movw	r26, r24
    7ce8:	ea 01       	movw	r28, r20
    7cea:	20 97       	sbiw	r28, 0x00	; 0
    7cec:	e1 f1       	breq	.+120    	; 0x7d66 <decode_hexadecimal_string_bytes+0x88>
    7cee:	fa 01       	movw	r30, r20
    7cf0:	01 90       	ld	r0, Z+
    7cf2:	00 20       	and	r0, r0
    7cf4:	e9 f7       	brne	.-6      	; 0x7cf0 <decode_hexadecimal_string_bytes+0x12>
    7cf6:	31 97       	sbiw	r30, 0x01	; 1
    7cf8:	e4 1b       	sub	r30, r20
    7cfa:	f5 0b       	sbc	r31, r21
    7cfc:	32 97       	sbiw	r30, 0x02	; 2
    7cfe:	10 f5       	brcc	.+68     	; 0x7d44 <decode_hexadecimal_string_bytes+0x66>
    7d00:	32 c0       	rjmp	.+100    	; 0x7d66 <decode_hexadecimal_string_bytes+0x88>
    7d02:	8d 01       	movw	r16, r26
    7d04:	04 0f       	add	r16, r20
    7d06:	15 1f       	adc	r17, r21
    7d08:	30 e0       	ldi	r19, 0x00	; 0
    7d0a:	ae 01       	movw	r20, r28
    7d0c:	42 0f       	add	r20, r18
    7d0e:	53 1f       	adc	r21, r19
    7d10:	fa 01       	movw	r30, r20
    7d12:	90 81       	ld	r25, Z
    7d14:	91 34       	cpi	r25, 0x41	; 65
    7d16:	28 f0       	brcs	.+10     	; 0x7d22 <decode_hexadecimal_string_bytes+0x44>
    7d18:	97 53       	subi	r25, 0x37	; 55
    7d1a:	59 2f       	mov	r21, r25
    7d1c:	52 95       	swap	r21
    7d1e:	50 7f       	andi	r21, 0xF0	; 240
    7d20:	03 c0       	rjmp	.+6      	; 0x7d28 <decode_hexadecimal_string_bytes+0x4a>
    7d22:	59 2f       	mov	r21, r25
    7d24:	52 95       	swap	r21
    7d26:	50 7f       	andi	r21, 0xF0	; 240
    7d28:	2c 0f       	add	r18, r28
    7d2a:	3d 1f       	adc	r19, r29
    7d2c:	f9 01       	movw	r30, r18
    7d2e:	91 81       	ldd	r25, Z+1	; 0x01
    7d30:	91 34       	cpi	r25, 0x41	; 65
    7d32:	10 f0       	brcs	.+4      	; 0x7d38 <decode_hexadecimal_string_bytes+0x5a>
    7d34:	97 53       	subi	r25, 0x37	; 55
    7d36:	01 c0       	rjmp	.+2      	; 0x7d3a <decode_hexadecimal_string_bytes+0x5c>
    7d38:	90 53       	subi	r25, 0x30	; 48
    7d3a:	95 0f       	add	r25, r21
    7d3c:	f8 01       	movw	r30, r16
    7d3e:	90 83       	st	Z, r25
    7d40:	8f 5f       	subi	r24, 0xFF	; 255
    7d42:	01 c0       	rjmp	.+2      	; 0x7d46 <decode_hexadecimal_string_bytes+0x68>
    7d44:	80 e0       	ldi	r24, 0x00	; 0
    7d46:	28 2f       	mov	r18, r24
    7d48:	22 0f       	add	r18, r18
    7d4a:	48 2f       	mov	r20, r24
    7d4c:	50 e0       	ldi	r21, 0x00	; 0
    7d4e:	fe 01       	movw	r30, r28
    7d50:	01 90       	ld	r0, Z+
    7d52:	00 20       	and	r0, r0
    7d54:	e9 f7       	brne	.-6      	; 0x7d50 <decode_hexadecimal_string_bytes+0x72>
    7d56:	31 97       	sbiw	r30, 0x01	; 1
    7d58:	ec 1b       	sub	r30, r28
    7d5a:	fd 0b       	sbc	r31, r29
    7d5c:	4e 17       	cp	r20, r30
    7d5e:	5f 07       	cpc	r21, r31
    7d60:	10 f4       	brcc	.+4      	; 0x7d66 <decode_hexadecimal_string_bytes+0x88>
    7d62:	86 13       	cpse	r24, r22
    7d64:	ce cf       	rjmp	.-100    	; 0x7d02 <decode_hexadecimal_string_bytes+0x24>
    7d66:	df 91       	pop	r29
    7d68:	cf 91       	pop	r28
    7d6a:	1f 91       	pop	r17
    7d6c:	0f 91       	pop	r16
    7d6e:	08 95       	ret

00007d70 <_serialCallBack>:
    7d70:	80 91 ea 18 	lds	r24, 0x18EA	; 0x8018ea <crc_sum.1945>
    7d74:	86 0f       	add	r24, r22
    7d76:	80 93 ea 18 	sts	0x18EA, r24	; 0x8018ea <crc_sum.1945>
    7d7a:	90 91 ed 18 	lds	r25, 0x18ED	; 0x8018ed <_mh_state>
    7d7e:	91 30       	cpi	r25, 0x01	; 1
    7d80:	79 f0       	breq	.+30     	; 0x7da0 <_serialCallBack+0x30>
    7d82:	28 f0       	brcs	.+10     	; 0x7d8e <_serialCallBack+0x1e>
    7d84:	92 30       	cpi	r25, 0x02	; 2
    7d86:	a9 f0       	breq	.+42     	; 0x7db2 <_serialCallBack+0x42>
    7d88:	93 30       	cpi	r25, 0x03	; 3
    7d8a:	19 f1       	breq	.+70     	; 0x7dd2 <_serialCallBack+0x62>
    7d8c:	08 95       	ret
    7d8e:	6f 3f       	cpi	r22, 0xFF	; 255
    7d90:	09 f0       	breq	.+2      	; 0x7d94 <_serialCallBack+0x24>
    7d92:	48 c0       	rjmp	.+144    	; 0x7e24 <_serialCallBack+0xb4>
    7d94:	10 92 ea 18 	sts	0x18EA, r1	; 0x8018ea <crc_sum.1945>
    7d98:	81 e0       	ldi	r24, 0x01	; 1
    7d9a:	80 93 ed 18 	sts	0x18ED, r24	; 0x8018ed <_mh_state>
    7d9e:	08 95       	ret
    7da0:	66 38       	cpi	r22, 0x86	; 134
    7da2:	09 f0       	breq	.+2      	; 0x7da6 <_serialCallBack+0x36>
    7da4:	3f c0       	rjmp	.+126    	; 0x7e24 <_serialCallBack+0xb4>
    7da6:	10 92 e9 18 	sts	0x18E9, r1	; 0x8018e9 <inDex.1943>
    7daa:	82 e0       	ldi	r24, 0x02	; 2
    7dac:	80 93 ed 18 	sts	0x18ED, r24	; 0x8018ed <_mh_state>
    7db0:	08 95       	ret
    7db2:	e0 91 e9 18 	lds	r30, 0x18E9	; 0x8018e9 <inDex.1943>
    7db6:	81 e0       	ldi	r24, 0x01	; 1
    7db8:	8e 0f       	add	r24, r30
    7dba:	80 93 e9 18 	sts	0x18E9, r24	; 0x8018e9 <inDex.1943>
    7dbe:	f0 e0       	ldi	r31, 0x00	; 0
    7dc0:	e9 51       	subi	r30, 0x19	; 25
    7dc2:	f7 4e       	sbci	r31, 0xE7	; 231
    7dc4:	60 83       	st	Z, r22
    7dc6:	82 30       	cpi	r24, 0x02	; 2
    7dc8:	69 f5       	brne	.+90     	; 0x7e24 <_serialCallBack+0xb4>
    7dca:	83 e0       	ldi	r24, 0x03	; 3
    7dcc:	80 93 ed 18 	sts	0x18ED, r24	; 0x8018ed <_mh_state>
    7dd0:	08 95       	ret
    7dd2:	90 91 e9 18 	lds	r25, 0x18E9	; 0x8018e9 <inDex.1943>
    7dd6:	21 e0       	ldi	r18, 0x01	; 1
    7dd8:	29 0f       	add	r18, r25
    7dda:	20 93 e9 18 	sts	0x18E9, r18	; 0x8018e9 <inDex.1943>
    7dde:	96 30       	cpi	r25, 0x06	; 6
    7de0:	09 f5       	brne	.+66     	; 0x7e24 <_serialCallBack+0xb4>
    7de2:	81 11       	cpse	r24, r1
    7de4:	0e c0       	rjmp	.+28     	; 0x7e02 <_serialCallBack+0x92>
    7de6:	e7 ee       	ldi	r30, 0xE7	; 231
    7de8:	f8 e1       	ldi	r31, 0x18	; 24
    7dea:	80 81       	ld	r24, Z
    7dec:	90 e0       	ldi	r25, 0x00	; 0
    7dee:	98 2f       	mov	r25, r24
    7df0:	88 27       	eor	r24, r24
    7df2:	21 81       	ldd	r18, Z+1	; 0x01
    7df4:	82 0f       	add	r24, r18
    7df6:	91 1d       	adc	r25, r1
    7df8:	90 93 ef 18 	sts	0x18EF, r25	; 0x8018ef <_ppm+0x1>
    7dfc:	80 93 ee 18 	sts	0x18EE, r24	; 0x8018ee <_ppm>
    7e00:	04 c0       	rjmp	.+8      	; 0x7e0a <_serialCallBack+0x9a>
    7e02:	10 92 ef 18 	sts	0x18EF, r1	; 0x8018ef <_ppm+0x1>
    7e06:	10 92 ee 18 	sts	0x18EE, r1	; 0x8018ee <_ppm>
    7e0a:	10 92 ed 18 	sts	0x18ED, r1	; 0x8018ed <_mh_state>
    7e0e:	e0 91 eb 18 	lds	r30, 0x18EB	; 0x8018eb <_appCallBack>
    7e12:	f0 91 ec 18 	lds	r31, 0x18EC	; 0x8018ec <_appCallBack+0x1>
    7e16:	30 97       	sbiw	r30, 0x00	; 0
    7e18:	29 f0       	breq	.+10     	; 0x7e24 <_serialCallBack+0xb4>
    7e1a:	80 91 ee 18 	lds	r24, 0x18EE	; 0x8018ee <_ppm>
    7e1e:	90 91 ef 18 	lds	r25, 0x18EF	; 0x8018ef <_ppm+0x1>
    7e22:	19 95       	eicall
    7e24:	08 95       	ret

00007e26 <mh_z19_initialise>:
    7e26:	8f 92       	push	r8
    7e28:	9f 92       	push	r9
    7e2a:	af 92       	push	r10
    7e2c:	cf 92       	push	r12
    7e2e:	ef 92       	push	r14
    7e30:	0f 93       	push	r16
    7e32:	0f 2e       	mov	r0, r31
    7e34:	f8 eb       	ldi	r31, 0xB8	; 184
    7e36:	8f 2e       	mov	r8, r31
    7e38:	fe e3       	ldi	r31, 0x3E	; 62
    7e3a:	9f 2e       	mov	r9, r31
    7e3c:	f0 2d       	mov	r31, r0
    7e3e:	68 94       	set
    7e40:	aa 24       	eor	r10, r10
    7e42:	a4 f8       	bld	r10, 4
    7e44:	68 94       	set
    7e46:	cc 24       	eor	r12, r12
    7e48:	c4 f8       	bld	r12, 4
    7e4a:	e1 2c       	mov	r14, r1
    7e4c:	00 e0       	ldi	r16, 0x00	; 0
    7e4e:	23 e0       	ldi	r18, 0x03	; 3
    7e50:	40 e8       	ldi	r20, 0x80	; 128
    7e52:	55 e2       	ldi	r21, 0x25	; 37
    7e54:	60 e0       	ldi	r22, 0x00	; 0
    7e56:	70 e0       	ldi	r23, 0x00	; 0
    7e58:	3f d0       	rcall	.+126    	; 0x7ed8 <serial_create>
    7e5a:	90 93 f1 18 	sts	0x18F1, r25	; 0x8018f1 <_serial+0x1>
    7e5e:	80 93 f0 18 	sts	0x18F0, r24	; 0x8018f0 <_serial>
    7e62:	0f 91       	pop	r16
    7e64:	ef 90       	pop	r14
    7e66:	cf 90       	pop	r12
    7e68:	af 90       	pop	r10
    7e6a:	9f 90       	pop	r9
    7e6c:	8f 90       	pop	r8
    7e6e:	08 95       	ret

00007e70 <mh_z19_injectCallBack>:
    7e70:	90 93 ec 18 	sts	0x18EC, r25	; 0x8018ec <_appCallBack+0x1>
    7e74:	80 93 eb 18 	sts	0x18EB, r24	; 0x8018eb <_appCallBack>
    7e78:	08 95       	ret

00007e7a <mh_z19_takeMeassuring>:
    7e7a:	cf 93       	push	r28
    7e7c:	df 93       	push	r29
    7e7e:	cd b7       	in	r28, 0x3d	; 61
    7e80:	de b7       	in	r29, 0x3e	; 62
    7e82:	29 97       	sbiw	r28, 0x09	; 9
    7e84:	0f b6       	in	r0, 0x3f	; 63
    7e86:	f8 94       	cli
    7e88:	de bf       	out	0x3e, r29	; 62
    7e8a:	0f be       	out	0x3f, r0	; 63
    7e8c:	cd bf       	out	0x3d, r28	; 61
    7e8e:	89 e0       	ldi	r24, 0x09	; 9
    7e90:	e8 e5       	ldi	r30, 0x58	; 88
    7e92:	f6 e0       	ldi	r31, 0x06	; 6
    7e94:	9e 01       	movw	r18, r28
    7e96:	2f 5f       	subi	r18, 0xFF	; 255
    7e98:	3f 4f       	sbci	r19, 0xFF	; 255
    7e9a:	d9 01       	movw	r26, r18
    7e9c:	01 90       	ld	r0, Z+
    7e9e:	0d 92       	st	X+, r0
    7ea0:	8a 95       	dec	r24
    7ea2:	e1 f7       	brne	.-8      	; 0x7e9c <mh_z19_takeMeassuring+0x22>
    7ea4:	10 92 ef 18 	sts	0x18EF, r1	; 0x8018ef <_ppm+0x1>
    7ea8:	10 92 ee 18 	sts	0x18EE, r1	; 0x8018ee <_ppm>
    7eac:	80 91 f0 18 	lds	r24, 0x18F0	; 0x8018f0 <_serial>
    7eb0:	90 91 f1 18 	lds	r25, 0x18F1	; 0x8018f1 <_serial+0x1>
    7eb4:	00 97       	sbiw	r24, 0x00	; 0
    7eb6:	31 f0       	breq	.+12     	; 0x7ec4 <mh_z19_takeMeassuring+0x4a>
    7eb8:	42 2f       	mov	r20, r18
    7eba:	53 2f       	mov	r21, r19
    7ebc:	69 e0       	ldi	r22, 0x09	; 9
    7ebe:	d8 d0       	rcall	.+432    	; 0x8070 <serial_sendBytes>
    7ec0:	80 e0       	ldi	r24, 0x00	; 0
    7ec2:	01 c0       	rjmp	.+2      	; 0x7ec6 <mh_z19_takeMeassuring+0x4c>
    7ec4:	82 e0       	ldi	r24, 0x02	; 2
    7ec6:	29 96       	adiw	r28, 0x09	; 9
    7ec8:	0f b6       	in	r0, 0x3f	; 63
    7eca:	f8 94       	cli
    7ecc:	de bf       	out	0x3e, r29	; 62
    7ece:	0f be       	out	0x3f, r0	; 63
    7ed0:	cd bf       	out	0x3d, r28	; 61
    7ed2:	df 91       	pop	r29
    7ed4:	cf 91       	pop	r28
    7ed6:	08 95       	ret

00007ed8 <serial_create>:
    7ed8:	2f 92       	push	r2
    7eda:	3f 92       	push	r3
    7edc:	4f 92       	push	r4
    7ede:	5f 92       	push	r5
    7ee0:	6f 92       	push	r6
    7ee2:	7f 92       	push	r7
    7ee4:	8f 92       	push	r8
    7ee6:	9f 92       	push	r9
    7ee8:	af 92       	push	r10
    7eea:	cf 92       	push	r12
    7eec:	ef 92       	push	r14
    7eee:	ff 92       	push	r15
    7ef0:	0f 93       	push	r16
    7ef2:	1f 93       	push	r17
    7ef4:	cf 93       	push	r28
    7ef6:	df 93       	push	r29
    7ef8:	cd b7       	in	r28, 0x3d	; 61
    7efa:	de b7       	in	r29, 0x3e	; 62
    7efc:	f8 2e       	mov	r15, r24
    7efe:	2a 01       	movw	r4, r20
    7f00:	3b 01       	movw	r6, r22
    7f02:	88 e0       	ldi	r24, 0x08	; 8
    7f04:	90 e0       	ldi	r25, 0x00	; 0
    7f06:	0e 94 04 48 	call	0x9008	; 0x9008 <malloc>
    7f0a:	8c 01       	movw	r16, r24
    7f0c:	8f 2d       	mov	r24, r15
    7f0e:	90 e0       	ldi	r25, 0x00	; 0
    7f10:	fc 01       	movw	r30, r24
    7f12:	ee 0f       	add	r30, r30
    7f14:	ff 1f       	adc	r31, r31
    7f16:	ee 50       	subi	r30, 0x0E	; 14
    7f18:	f7 4e       	sbci	r31, 0xE7	; 231
    7f1a:	11 83       	std	Z+1, r17	; 0x01
    7f1c:	00 83       	st	Z, r16
    7f1e:	01 15       	cp	r16, r1
    7f20:	11 05       	cpc	r17, r1
    7f22:	09 f4       	brne	.+2      	; 0x7f26 <serial_create+0x4e>
    7f24:	68 c0       	rjmp	.+208    	; 0x7ff6 <serial_create+0x11e>
    7f26:	88 0f       	add	r24, r24
    7f28:	99 1f       	adc	r25, r25
    7f2a:	fc 01       	movw	r30, r24
    7f2c:	e5 5f       	subi	r30, 0xF5	; 245
    7f2e:	fd 4f       	sbci	r31, 0xFD	; 253
    7f30:	80 81       	ld	r24, Z
    7f32:	91 81       	ldd	r25, Z+1	; 0x01
    7f34:	d8 01       	movw	r26, r16
    7f36:	8d 93       	st	X+, r24
    7f38:	9c 93       	st	X, r25
    7f3a:	8c 2d       	mov	r24, r12
    7f3c:	90 e0       	ldi	r25, 0x00	; 0
    7f3e:	88 0f       	add	r24, r24
    7f40:	99 1f       	adc	r25, r25
    7f42:	88 0f       	add	r24, r24
    7f44:	99 1f       	adc	r25, r25
    7f46:	0e 94 04 48 	call	0x9008	; 0x9008 <malloc>
    7f4a:	1c 01       	movw	r2, r24
    7f4c:	86 e0       	ldi	r24, 0x06	; 6
    7f4e:	90 e0       	ldi	r25, 0x00	; 0
    7f50:	0e 94 04 48 	call	0x9008	; 0x9008 <malloc>
    7f54:	7c 01       	movw	r14, r24
    7f56:	4c 2d       	mov	r20, r12
    7f58:	b1 01       	movw	r22, r2
    7f5a:	ef d6       	rcall	.+3550   	; 0x8d3a <fifo_init>
    7f5c:	f8 01       	movw	r30, r16
    7f5e:	f5 82       	std	Z+5, r15	; 0x05
    7f60:	e4 82       	std	Z+4, r14	; 0x04
    7f62:	8a 2d       	mov	r24, r10
    7f64:	90 e0       	ldi	r25, 0x00	; 0
    7f66:	88 0f       	add	r24, r24
    7f68:	99 1f       	adc	r25, r25
    7f6a:	88 0f       	add	r24, r24
    7f6c:	99 1f       	adc	r25, r25
    7f6e:	0e 94 04 48 	call	0x9008	; 0x9008 <malloc>
    7f72:	1c 01       	movw	r2, r24
    7f74:	86 e0       	ldi	r24, 0x06	; 6
    7f76:	90 e0       	ldi	r25, 0x00	; 0
    7f78:	0e 94 04 48 	call	0x9008	; 0x9008 <malloc>
    7f7c:	7c 01       	movw	r14, r24
    7f7e:	4a 2d       	mov	r20, r10
    7f80:	b1 01       	movw	r22, r2
    7f82:	db d6       	rcall	.+3510   	; 0x8d3a <fifo_init>
    7f84:	d8 01       	movw	r26, r16
    7f86:	13 96       	adiw	r26, 0x03	; 3
    7f88:	fc 92       	st	X, r15
    7f8a:	ee 92       	st	-X, r14
    7f8c:	12 97       	sbiw	r26, 0x02	; 2
    7f8e:	17 96       	adiw	r26, 0x07	; 7
    7f90:	9c 92       	st	X, r9
    7f92:	8e 92       	st	-X, r8
    7f94:	16 97       	sbiw	r26, 0x06	; 6
    7f96:	ff b6       	in	r15, 0x3f	; 63
    7f98:	f8 94       	cli
    7f9a:	ed 91       	ld	r30, X+
    7f9c:	fc 91       	ld	r31, X
    7f9e:	11 97       	sbiw	r26, 0x01	; 1
    7fa0:	36 97       	sbiw	r30, 0x06	; 6
    7fa2:	80 81       	ld	r24, Z
    7fa4:	82 60       	ori	r24, 0x02	; 2
    7fa6:	80 83       	st	Z, r24
    7fa8:	8d 90       	ld	r8, X+
    7faa:	9c 90       	ld	r9, X
    7fac:	c3 01       	movw	r24, r6
    7fae:	b2 01       	movw	r22, r4
    7fb0:	c4 d7       	rcall	.+3976   	; 0x8f3a <__floatunsisf>
    7fb2:	20 e0       	ldi	r18, 0x00	; 0
    7fb4:	30 e0       	ldi	r19, 0x00	; 0
    7fb6:	40 e0       	ldi	r20, 0x00	; 0
    7fb8:	51 e4       	ldi	r21, 0x41	; 65
    7fba:	38 d9       	rcall	.-3472   	; 0x722c <__mulsf3>
    7fbc:	9b 01       	movw	r18, r22
    7fbe:	ac 01       	movw	r20, r24
    7fc0:	60 e0       	ldi	r22, 0x00	; 0
    7fc2:	74 e2       	ldi	r23, 0x24	; 36
    7fc4:	84 e7       	ldi	r24, 0x74	; 116
    7fc6:	9b e4       	ldi	r25, 0x4B	; 75
    7fc8:	40 d7       	rcall	.+3712   	; 0x8e4a <__divsf3>
    7fca:	20 e0       	ldi	r18, 0x00	; 0
    7fcc:	30 e0       	ldi	r19, 0x00	; 0
    7fce:	40 e8       	ldi	r20, 0x80	; 128
    7fd0:	5f e3       	ldi	r21, 0x3F	; 63
    7fd2:	cf d6       	rcall	.+3486   	; 0x8d72 <__subsf3>
    7fd4:	ae d8       	rcall	.-3748   	; 0x7132 <__fixunssfsi>
    7fd6:	f4 01       	movw	r30, r8
    7fd8:	32 97       	sbiw	r30, 0x02	; 2
    7fda:	60 83       	st	Z, r22
    7fdc:	d8 01       	movw	r26, r16
    7fde:	ed 91       	ld	r30, X+
    7fe0:	fc 91       	ld	r31, X
    7fe2:	11 97       	sbiw	r26, 0x01	; 1
    7fe4:	35 97       	sbiw	r30, 0x05	; 5
    7fe6:	88 e9       	ldi	r24, 0x98	; 152
    7fe8:	80 83       	st	Z, r24
    7fea:	ed 91       	ld	r30, X+
    7fec:	fc 91       	ld	r31, X
    7fee:	34 97       	sbiw	r30, 0x04	; 4
    7ff0:	86 e0       	ldi	r24, 0x06	; 6
    7ff2:	80 83       	st	Z, r24
    7ff4:	ff be       	out	0x3f, r15	; 63
    7ff6:	c8 01       	movw	r24, r16
    7ff8:	df 91       	pop	r29
    7ffa:	cf 91       	pop	r28
    7ffc:	1f 91       	pop	r17
    7ffe:	0f 91       	pop	r16
    8000:	ff 90       	pop	r15
    8002:	ef 90       	pop	r14
    8004:	cf 90       	pop	r12
    8006:	af 90       	pop	r10
    8008:	9f 90       	pop	r9
    800a:	8f 90       	pop	r8
    800c:	7f 90       	pop	r7
    800e:	6f 90       	pop	r6
    8010:	5f 90       	pop	r5
    8012:	4f 90       	pop	r4
    8014:	3f 90       	pop	r3
    8016:	2f 90       	pop	r2
    8018:	08 95       	ret

0000801a <serial_sendByte>:
    801a:	cf 93       	push	r28
    801c:	df 93       	push	r29
    801e:	dc 01       	movw	r26, r24
    8020:	89 2b       	or	r24, r25
    8022:	01 f1       	breq	.+64     	; 0x8064 <serial_sendByte+0x4a>
    8024:	12 96       	adiw	r26, 0x02	; 2
    8026:	ed 91       	ld	r30, X+
    8028:	fc 91       	ld	r31, X
    802a:	13 97       	sbiw	r26, 0x03	; 3
    802c:	93 81       	ldd	r25, Z+3	; 0x03
    802e:	82 81       	ldd	r24, Z+2	; 0x02
    8030:	25 81       	ldd	r18, Z+5	; 0x05
    8032:	98 1b       	sub	r25, r24
    8034:	92 23       	and	r25, r18
    8036:	84 81       	ldd	r24, Z+4	; 0x04
    8038:	98 17       	cp	r25, r24
    803a:	b1 f0       	breq	.+44     	; 0x8068 <serial_sendByte+0x4e>
    803c:	83 81       	ldd	r24, Z+3	; 0x03
    803e:	26 95       	lsr	r18
    8040:	28 23       	and	r18, r24
    8042:	c0 81       	ld	r28, Z
    8044:	d1 81       	ldd	r29, Z+1	; 0x01
    8046:	c2 0f       	add	r28, r18
    8048:	d1 1d       	adc	r29, r1
    804a:	68 83       	st	Y, r22
    804c:	8f 5f       	subi	r24, 0xFF	; 255
    804e:	95 81       	ldd	r25, Z+5	; 0x05
    8050:	89 23       	and	r24, r25
    8052:	83 83       	std	Z+3, r24	; 0x03
    8054:	ed 91       	ld	r30, X+
    8056:	fc 91       	ld	r31, X
    8058:	35 97       	sbiw	r30, 0x05	; 5
    805a:	80 81       	ld	r24, Z
    805c:	80 62       	ori	r24, 0x20	; 32
    805e:	80 83       	st	Z, r24
    8060:	80 e0       	ldi	r24, 0x00	; 0
    8062:	03 c0       	rjmp	.+6      	; 0x806a <serial_sendByte+0x50>
    8064:	81 e0       	ldi	r24, 0x01	; 1
    8066:	01 c0       	rjmp	.+2      	; 0x806a <serial_sendByte+0x50>
    8068:	82 e0       	ldi	r24, 0x02	; 2
    806a:	df 91       	pop	r29
    806c:	cf 91       	pop	r28
    806e:	08 95       	ret

00008070 <serial_sendBytes>:
    8070:	ef 92       	push	r14
    8072:	ff 92       	push	r15
    8074:	0f 93       	push	r16
    8076:	1f 93       	push	r17
    8078:	cf 93       	push	r28
    807a:	df 93       	push	r29
    807c:	7c 01       	movw	r14, r24
    807e:	00 97       	sbiw	r24, 0x00	; 0
    8080:	09 f4       	brne	.+2      	; 0x8084 <serial_sendBytes+0x14>
    8082:	41 c0       	rjmp	.+130    	; 0x8106 <serial_sendBytes+0x96>
    8084:	dc 01       	movw	r26, r24
    8086:	12 96       	adiw	r26, 0x02	; 2
    8088:	ed 91       	ld	r30, X+
    808a:	fc 91       	ld	r31, X
    808c:	13 97       	sbiw	r26, 0x03	; 3
    808e:	93 81       	ldd	r25, Z+3	; 0x03
    8090:	82 81       	ldd	r24, Z+2	; 0x02
    8092:	98 1b       	sub	r25, r24
    8094:	85 81       	ldd	r24, Z+5	; 0x05
    8096:	98 23       	and	r25, r24
    8098:	84 81       	ldd	r24, Z+4	; 0x04
    809a:	89 1b       	sub	r24, r25
    809c:	86 17       	cp	r24, r22
    809e:	a8 f1       	brcs	.+106    	; 0x810a <serial_sendBytes+0x9a>
    80a0:	66 23       	and	r22, r22
    80a2:	41 f1       	breq	.+80     	; 0x80f4 <serial_sendBytes+0x84>
    80a4:	84 2f       	mov	r24, r20
    80a6:	95 2f       	mov	r25, r21
    80a8:	dc 01       	movw	r26, r24
    80aa:	61 50       	subi	r22, 0x01	; 1
    80ac:	46 2f       	mov	r20, r22
    80ae:	50 e0       	ldi	r21, 0x00	; 0
    80b0:	4f 5f       	subi	r20, 0xFF	; 255
    80b2:	5f 4f       	sbci	r21, 0xFF	; 255
    80b4:	48 0f       	add	r20, r24
    80b6:	59 1f       	adc	r21, r25
    80b8:	e7 01       	movw	r28, r14
    80ba:	ea 81       	ldd	r30, Y+2	; 0x02
    80bc:	fb 81       	ldd	r31, Y+3	; 0x03
    80be:	93 81       	ldd	r25, Z+3	; 0x03
    80c0:	82 81       	ldd	r24, Z+2	; 0x02
    80c2:	25 81       	ldd	r18, Z+5	; 0x05
    80c4:	98 1b       	sub	r25, r24
    80c6:	92 23       	and	r25, r18
    80c8:	84 81       	ldd	r24, Z+4	; 0x04
    80ca:	98 17       	cp	r25, r24
    80cc:	79 f0       	breq	.+30     	; 0x80ec <serial_sendBytes+0x7c>
    80ce:	8c 91       	ld	r24, X
    80d0:	93 81       	ldd	r25, Z+3	; 0x03
    80d2:	26 95       	lsr	r18
    80d4:	29 23       	and	r18, r25
    80d6:	60 81       	ld	r22, Z
    80d8:	71 81       	ldd	r23, Z+1	; 0x01
    80da:	8b 01       	movw	r16, r22
    80dc:	02 0f       	add	r16, r18
    80de:	11 1d       	adc	r17, r1
    80e0:	e8 01       	movw	r28, r16
    80e2:	88 83       	st	Y, r24
    80e4:	9f 5f       	subi	r25, 0xFF	; 255
    80e6:	85 81       	ldd	r24, Z+5	; 0x05
    80e8:	98 23       	and	r25, r24
    80ea:	93 83       	std	Z+3, r25	; 0x03
    80ec:	11 96       	adiw	r26, 0x01	; 1
    80ee:	a4 17       	cp	r26, r20
    80f0:	b5 07       	cpc	r27, r21
    80f2:	11 f7       	brne	.-60     	; 0x80b8 <serial_sendBytes+0x48>
    80f4:	d7 01       	movw	r26, r14
    80f6:	ed 91       	ld	r30, X+
    80f8:	fc 91       	ld	r31, X
    80fa:	35 97       	sbiw	r30, 0x05	; 5
    80fc:	80 81       	ld	r24, Z
    80fe:	80 62       	ori	r24, 0x20	; 32
    8100:	80 83       	st	Z, r24
    8102:	80 e0       	ldi	r24, 0x00	; 0
    8104:	03 c0       	rjmp	.+6      	; 0x810c <serial_sendBytes+0x9c>
    8106:	81 e0       	ldi	r24, 0x01	; 1
    8108:	01 c0       	rjmp	.+2      	; 0x810c <serial_sendBytes+0x9c>
    810a:	82 e0       	ldi	r24, 0x02	; 2
    810c:	df 91       	pop	r29
    810e:	cf 91       	pop	r28
    8110:	1f 91       	pop	r17
    8112:	0f 91       	pop	r16
    8114:	ff 90       	pop	r15
    8116:	ef 90       	pop	r14
    8118:	08 95       	ret

0000811a <serial_getByte>:
    811a:	00 97       	sbiw	r24, 0x00	; 0
    811c:	d1 f0       	breq	.+52     	; 0x8152 <serial_getByte+0x38>
    811e:	dc 01       	movw	r26, r24
    8120:	14 96       	adiw	r26, 0x04	; 4
    8122:	ed 91       	ld	r30, X+
    8124:	fc 91       	ld	r31, X
    8126:	15 97       	sbiw	r26, 0x05	; 5
    8128:	93 81       	ldd	r25, Z+3	; 0x03
    812a:	82 81       	ldd	r24, Z+2	; 0x02
    812c:	98 17       	cp	r25, r24
    812e:	99 f0       	breq	.+38     	; 0x8156 <serial_getByte+0x3c>
    8130:	92 81       	ldd	r25, Z+2	; 0x02
    8132:	85 81       	ldd	r24, Z+5	; 0x05
    8134:	86 95       	lsr	r24
    8136:	89 23       	and	r24, r25
    8138:	a0 81       	ld	r26, Z
    813a:	b1 81       	ldd	r27, Z+1	; 0x01
    813c:	a8 0f       	add	r26, r24
    813e:	b1 1d       	adc	r27, r1
    8140:	8c 91       	ld	r24, X
    8142:	db 01       	movw	r26, r22
    8144:	8c 93       	st	X, r24
    8146:	9f 5f       	subi	r25, 0xFF	; 255
    8148:	85 81       	ldd	r24, Z+5	; 0x05
    814a:	98 23       	and	r25, r24
    814c:	92 83       	std	Z+2, r25	; 0x02
    814e:	80 e0       	ldi	r24, 0x00	; 0
    8150:	08 95       	ret
    8152:	81 e0       	ldi	r24, 0x01	; 1
    8154:	08 95       	ret
    8156:	83 e0       	ldi	r24, 0x03	; 3
    8158:	08 95       	ret

0000815a <__vector_25>:
    815a:	1f 92       	push	r1
    815c:	0f 92       	push	r0
    815e:	0f b6       	in	r0, 0x3f	; 63
    8160:	0f 92       	push	r0
    8162:	11 24       	eor	r1, r1
    8164:	0b b6       	in	r0, 0x3b	; 59
    8166:	0f 92       	push	r0
    8168:	2f 93       	push	r18
    816a:	3f 93       	push	r19
    816c:	4f 93       	push	r20
    816e:	5f 93       	push	r21
    8170:	6f 93       	push	r22
    8172:	7f 93       	push	r23
    8174:	8f 93       	push	r24
    8176:	9f 93       	push	r25
    8178:	af 93       	push	r26
    817a:	bf 93       	push	r27
    817c:	cf 93       	push	r28
    817e:	df 93       	push	r29
    8180:	ef 93       	push	r30
    8182:	ff 93       	push	r31
    8184:	a0 91 f2 18 	lds	r26, 0x18F2	; 0x8018f2 <_ser_handle>
    8188:	b0 91 f3 18 	lds	r27, 0x18F3	; 0x8018f3 <_ser_handle+0x1>
    818c:	10 97       	sbiw	r26, 0x00	; 0
    818e:	11 f1       	breq	.+68     	; 0x81d4 <__vector_25+0x7a>
    8190:	60 91 c6 00 	lds	r22, 0x00C6	; 0x8000c6 <__TEXT_REGION_LENGTH__+0x7c00c6>
    8194:	14 96       	adiw	r26, 0x04	; 4
    8196:	ed 91       	ld	r30, X+
    8198:	fc 91       	ld	r31, X
    819a:	15 97       	sbiw	r26, 0x05	; 5
    819c:	93 81       	ldd	r25, Z+3	; 0x03
    819e:	82 81       	ldd	r24, Z+2	; 0x02
    81a0:	25 81       	ldd	r18, Z+5	; 0x05
    81a2:	98 1b       	sub	r25, r24
    81a4:	92 23       	and	r25, r18
    81a6:	84 81       	ldd	r24, Z+4	; 0x04
    81a8:	98 17       	cp	r25, r24
    81aa:	61 f0       	breq	.+24     	; 0x81c4 <__vector_25+0x6a>
    81ac:	83 81       	ldd	r24, Z+3	; 0x03
    81ae:	26 95       	lsr	r18
    81b0:	28 23       	and	r18, r24
    81b2:	c0 81       	ld	r28, Z
    81b4:	d1 81       	ldd	r29, Z+1	; 0x01
    81b6:	c2 0f       	add	r28, r18
    81b8:	d1 1d       	adc	r29, r1
    81ba:	68 83       	st	Y, r22
    81bc:	8f 5f       	subi	r24, 0xFF	; 255
    81be:	95 81       	ldd	r25, Z+5	; 0x05
    81c0:	89 23       	and	r24, r25
    81c2:	83 83       	std	Z+3, r24	; 0x03
    81c4:	16 96       	adiw	r26, 0x06	; 6
    81c6:	ed 91       	ld	r30, X+
    81c8:	fc 91       	ld	r31, X
    81ca:	17 97       	sbiw	r26, 0x07	; 7
    81cc:	30 97       	sbiw	r30, 0x00	; 0
    81ce:	11 f0       	breq	.+4      	; 0x81d4 <__vector_25+0x7a>
    81d0:	cd 01       	movw	r24, r26
    81d2:	19 95       	eicall
    81d4:	ff 91       	pop	r31
    81d6:	ef 91       	pop	r30
    81d8:	df 91       	pop	r29
    81da:	cf 91       	pop	r28
    81dc:	bf 91       	pop	r27
    81de:	af 91       	pop	r26
    81e0:	9f 91       	pop	r25
    81e2:	8f 91       	pop	r24
    81e4:	7f 91       	pop	r23
    81e6:	6f 91       	pop	r22
    81e8:	5f 91       	pop	r21
    81ea:	4f 91       	pop	r20
    81ec:	3f 91       	pop	r19
    81ee:	2f 91       	pop	r18
    81f0:	0f 90       	pop	r0
    81f2:	0b be       	out	0x3b, r0	; 59
    81f4:	0f 90       	pop	r0
    81f6:	0f be       	out	0x3f, r0	; 63
    81f8:	0f 90       	pop	r0
    81fa:	1f 90       	pop	r1
    81fc:	18 95       	reti

000081fe <__vector_26>:
    81fe:	1f 92       	push	r1
    8200:	0f 92       	push	r0
    8202:	0f b6       	in	r0, 0x3f	; 63
    8204:	0f 92       	push	r0
    8206:	11 24       	eor	r1, r1
    8208:	0b b6       	in	r0, 0x3b	; 59
    820a:	0f 92       	push	r0
    820c:	2f 93       	push	r18
    820e:	8f 93       	push	r24
    8210:	9f 93       	push	r25
    8212:	af 93       	push	r26
    8214:	bf 93       	push	r27
    8216:	ef 93       	push	r30
    8218:	ff 93       	push	r31
    821a:	e0 91 f2 18 	lds	r30, 0x18F2	; 0x8018f2 <_ser_handle>
    821e:	f0 91 f3 18 	lds	r31, 0x18F3	; 0x8018f3 <_ser_handle+0x1>
    8222:	30 97       	sbiw	r30, 0x00	; 0
    8224:	b9 f0       	breq	.+46     	; 0x8254 <__vector_26+0x56>
    8226:	02 80       	ldd	r0, Z+2	; 0x02
    8228:	f3 81       	ldd	r31, Z+3	; 0x03
    822a:	e0 2d       	mov	r30, r0
    822c:	93 81       	ldd	r25, Z+3	; 0x03
    822e:	82 81       	ldd	r24, Z+2	; 0x02
    8230:	98 17       	cp	r25, r24
    8232:	b1 f0       	breq	.+44     	; 0x8260 <__vector_26+0x62>
    8234:	92 81       	ldd	r25, Z+2	; 0x02
    8236:	85 81       	ldd	r24, Z+5	; 0x05
    8238:	28 2f       	mov	r18, r24
    823a:	26 95       	lsr	r18
    823c:	29 23       	and	r18, r25
    823e:	a0 81       	ld	r26, Z
    8240:	b1 81       	ldd	r27, Z+1	; 0x01
    8242:	a2 0f       	add	r26, r18
    8244:	b1 1d       	adc	r27, r1
    8246:	2c 91       	ld	r18, X
    8248:	9f 5f       	subi	r25, 0xFF	; 255
    824a:	89 23       	and	r24, r25
    824c:	82 83       	std	Z+2, r24	; 0x02
    824e:	20 93 c6 00 	sts	0x00C6, r18	; 0x8000c6 <__TEXT_REGION_LENGTH__+0x7c00c6>
    8252:	0b c0       	rjmp	.+22     	; 0x826a <__vector_26+0x6c>
    8254:	e1 ec       	ldi	r30, 0xC1	; 193
    8256:	f0 e0       	ldi	r31, 0x00	; 0
    8258:	80 81       	ld	r24, Z
    825a:	8f 7d       	andi	r24, 0xDF	; 223
    825c:	80 83       	st	Z, r24
    825e:	05 c0       	rjmp	.+10     	; 0x826a <__vector_26+0x6c>
    8260:	e1 ec       	ldi	r30, 0xC1	; 193
    8262:	f0 e0       	ldi	r31, 0x00	; 0
    8264:	80 81       	ld	r24, Z
    8266:	8f 7d       	andi	r24, 0xDF	; 223
    8268:	80 83       	st	Z, r24
    826a:	ff 91       	pop	r31
    826c:	ef 91       	pop	r30
    826e:	bf 91       	pop	r27
    8270:	af 91       	pop	r26
    8272:	9f 91       	pop	r25
    8274:	8f 91       	pop	r24
    8276:	2f 91       	pop	r18
    8278:	0f 90       	pop	r0
    827a:	0b be       	out	0x3b, r0	; 59
    827c:	0f 90       	pop	r0
    827e:	0f be       	out	0x3f, r0	; 63
    8280:	0f 90       	pop	r0
    8282:	1f 90       	pop	r1
    8284:	18 95       	reti

00008286 <__vector_36>:
    8286:	1f 92       	push	r1
    8288:	0f 92       	push	r0
    828a:	0f b6       	in	r0, 0x3f	; 63
    828c:	0f 92       	push	r0
    828e:	11 24       	eor	r1, r1
    8290:	0b b6       	in	r0, 0x3b	; 59
    8292:	0f 92       	push	r0
    8294:	2f 93       	push	r18
    8296:	3f 93       	push	r19
    8298:	4f 93       	push	r20
    829a:	5f 93       	push	r21
    829c:	6f 93       	push	r22
    829e:	7f 93       	push	r23
    82a0:	8f 93       	push	r24
    82a2:	9f 93       	push	r25
    82a4:	af 93       	push	r26
    82a6:	bf 93       	push	r27
    82a8:	cf 93       	push	r28
    82aa:	df 93       	push	r29
    82ac:	ef 93       	push	r30
    82ae:	ff 93       	push	r31
    82b0:	a0 91 f4 18 	lds	r26, 0x18F4	; 0x8018f4 <_ser_handle+0x2>
    82b4:	b0 91 f5 18 	lds	r27, 0x18F5	; 0x8018f5 <_ser_handle+0x3>
    82b8:	10 97       	sbiw	r26, 0x00	; 0
    82ba:	11 f1       	breq	.+68     	; 0x8300 <__vector_36+0x7a>
    82bc:	60 91 ce 00 	lds	r22, 0x00CE	; 0x8000ce <__TEXT_REGION_LENGTH__+0x7c00ce>
    82c0:	14 96       	adiw	r26, 0x04	; 4
    82c2:	ed 91       	ld	r30, X+
    82c4:	fc 91       	ld	r31, X
    82c6:	15 97       	sbiw	r26, 0x05	; 5
    82c8:	93 81       	ldd	r25, Z+3	; 0x03
    82ca:	82 81       	ldd	r24, Z+2	; 0x02
    82cc:	25 81       	ldd	r18, Z+5	; 0x05
    82ce:	98 1b       	sub	r25, r24
    82d0:	92 23       	and	r25, r18
    82d2:	84 81       	ldd	r24, Z+4	; 0x04
    82d4:	98 17       	cp	r25, r24
    82d6:	61 f0       	breq	.+24     	; 0x82f0 <__vector_36+0x6a>
    82d8:	83 81       	ldd	r24, Z+3	; 0x03
    82da:	26 95       	lsr	r18
    82dc:	28 23       	and	r18, r24
    82de:	c0 81       	ld	r28, Z
    82e0:	d1 81       	ldd	r29, Z+1	; 0x01
    82e2:	c2 0f       	add	r28, r18
    82e4:	d1 1d       	adc	r29, r1
    82e6:	68 83       	st	Y, r22
    82e8:	8f 5f       	subi	r24, 0xFF	; 255
    82ea:	95 81       	ldd	r25, Z+5	; 0x05
    82ec:	89 23       	and	r24, r25
    82ee:	83 83       	std	Z+3, r24	; 0x03
    82f0:	16 96       	adiw	r26, 0x06	; 6
    82f2:	ed 91       	ld	r30, X+
    82f4:	fc 91       	ld	r31, X
    82f6:	17 97       	sbiw	r26, 0x07	; 7
    82f8:	30 97       	sbiw	r30, 0x00	; 0
    82fa:	11 f0       	breq	.+4      	; 0x8300 <__vector_36+0x7a>
    82fc:	cd 01       	movw	r24, r26
    82fe:	19 95       	eicall
    8300:	ff 91       	pop	r31
    8302:	ef 91       	pop	r30
    8304:	df 91       	pop	r29
    8306:	cf 91       	pop	r28
    8308:	bf 91       	pop	r27
    830a:	af 91       	pop	r26
    830c:	9f 91       	pop	r25
    830e:	8f 91       	pop	r24
    8310:	7f 91       	pop	r23
    8312:	6f 91       	pop	r22
    8314:	5f 91       	pop	r21
    8316:	4f 91       	pop	r20
    8318:	3f 91       	pop	r19
    831a:	2f 91       	pop	r18
    831c:	0f 90       	pop	r0
    831e:	0b be       	out	0x3b, r0	; 59
    8320:	0f 90       	pop	r0
    8322:	0f be       	out	0x3f, r0	; 63
    8324:	0f 90       	pop	r0
    8326:	1f 90       	pop	r1
    8328:	18 95       	reti

0000832a <__vector_37>:
    832a:	1f 92       	push	r1
    832c:	0f 92       	push	r0
    832e:	0f b6       	in	r0, 0x3f	; 63
    8330:	0f 92       	push	r0
    8332:	11 24       	eor	r1, r1
    8334:	0b b6       	in	r0, 0x3b	; 59
    8336:	0f 92       	push	r0
    8338:	2f 93       	push	r18
    833a:	8f 93       	push	r24
    833c:	9f 93       	push	r25
    833e:	af 93       	push	r26
    8340:	bf 93       	push	r27
    8342:	ef 93       	push	r30
    8344:	ff 93       	push	r31
    8346:	e0 91 f4 18 	lds	r30, 0x18F4	; 0x8018f4 <_ser_handle+0x2>
    834a:	f0 91 f5 18 	lds	r31, 0x18F5	; 0x8018f5 <_ser_handle+0x3>
    834e:	30 97       	sbiw	r30, 0x00	; 0
    8350:	b9 f0       	breq	.+46     	; 0x8380 <__vector_37+0x56>
    8352:	02 80       	ldd	r0, Z+2	; 0x02
    8354:	f3 81       	ldd	r31, Z+3	; 0x03
    8356:	e0 2d       	mov	r30, r0
    8358:	93 81       	ldd	r25, Z+3	; 0x03
    835a:	82 81       	ldd	r24, Z+2	; 0x02
    835c:	98 17       	cp	r25, r24
    835e:	b1 f0       	breq	.+44     	; 0x838c <__vector_37+0x62>
    8360:	92 81       	ldd	r25, Z+2	; 0x02
    8362:	85 81       	ldd	r24, Z+5	; 0x05
    8364:	28 2f       	mov	r18, r24
    8366:	26 95       	lsr	r18
    8368:	29 23       	and	r18, r25
    836a:	a0 81       	ld	r26, Z
    836c:	b1 81       	ldd	r27, Z+1	; 0x01
    836e:	a2 0f       	add	r26, r18
    8370:	b1 1d       	adc	r27, r1
    8372:	2c 91       	ld	r18, X
    8374:	9f 5f       	subi	r25, 0xFF	; 255
    8376:	89 23       	and	r24, r25
    8378:	82 83       	std	Z+2, r24	; 0x02
    837a:	20 93 ce 00 	sts	0x00CE, r18	; 0x8000ce <__TEXT_REGION_LENGTH__+0x7c00ce>
    837e:	0b c0       	rjmp	.+22     	; 0x8396 <__vector_37+0x6c>
    8380:	e9 ec       	ldi	r30, 0xC9	; 201
    8382:	f0 e0       	ldi	r31, 0x00	; 0
    8384:	80 81       	ld	r24, Z
    8386:	8f 7d       	andi	r24, 0xDF	; 223
    8388:	80 83       	st	Z, r24
    838a:	05 c0       	rjmp	.+10     	; 0x8396 <__vector_37+0x6c>
    838c:	e9 ec       	ldi	r30, 0xC9	; 201
    838e:	f0 e0       	ldi	r31, 0x00	; 0
    8390:	80 81       	ld	r24, Z
    8392:	8f 7d       	andi	r24, 0xDF	; 223
    8394:	80 83       	st	Z, r24
    8396:	ff 91       	pop	r31
    8398:	ef 91       	pop	r30
    839a:	bf 91       	pop	r27
    839c:	af 91       	pop	r26
    839e:	9f 91       	pop	r25
    83a0:	8f 91       	pop	r24
    83a2:	2f 91       	pop	r18
    83a4:	0f 90       	pop	r0
    83a6:	0b be       	out	0x3b, r0	; 59
    83a8:	0f 90       	pop	r0
    83aa:	0f be       	out	0x3f, r0	; 63
    83ac:	0f 90       	pop	r0
    83ae:	1f 90       	pop	r1
    83b0:	18 95       	reti

000083b2 <__vector_51>:
    83b2:	1f 92       	push	r1
    83b4:	0f 92       	push	r0
    83b6:	0f b6       	in	r0, 0x3f	; 63
    83b8:	0f 92       	push	r0
    83ba:	11 24       	eor	r1, r1
    83bc:	0b b6       	in	r0, 0x3b	; 59
    83be:	0f 92       	push	r0
    83c0:	2f 93       	push	r18
    83c2:	3f 93       	push	r19
    83c4:	4f 93       	push	r20
    83c6:	5f 93       	push	r21
    83c8:	6f 93       	push	r22
    83ca:	7f 93       	push	r23
    83cc:	8f 93       	push	r24
    83ce:	9f 93       	push	r25
    83d0:	af 93       	push	r26
    83d2:	bf 93       	push	r27
    83d4:	cf 93       	push	r28
    83d6:	df 93       	push	r29
    83d8:	ef 93       	push	r30
    83da:	ff 93       	push	r31
    83dc:	a0 91 f6 18 	lds	r26, 0x18F6	; 0x8018f6 <_ser_handle+0x4>
    83e0:	b0 91 f7 18 	lds	r27, 0x18F7	; 0x8018f7 <_ser_handle+0x5>
    83e4:	10 97       	sbiw	r26, 0x00	; 0
    83e6:	11 f1       	breq	.+68     	; 0x842c <__vector_51+0x7a>
    83e8:	60 91 d6 00 	lds	r22, 0x00D6	; 0x8000d6 <__TEXT_REGION_LENGTH__+0x7c00d6>
    83ec:	14 96       	adiw	r26, 0x04	; 4
    83ee:	ed 91       	ld	r30, X+
    83f0:	fc 91       	ld	r31, X
    83f2:	15 97       	sbiw	r26, 0x05	; 5
    83f4:	93 81       	ldd	r25, Z+3	; 0x03
    83f6:	82 81       	ldd	r24, Z+2	; 0x02
    83f8:	25 81       	ldd	r18, Z+5	; 0x05
    83fa:	98 1b       	sub	r25, r24
    83fc:	92 23       	and	r25, r18
    83fe:	84 81       	ldd	r24, Z+4	; 0x04
    8400:	98 17       	cp	r25, r24
    8402:	61 f0       	breq	.+24     	; 0x841c <__vector_51+0x6a>
    8404:	83 81       	ldd	r24, Z+3	; 0x03
    8406:	26 95       	lsr	r18
    8408:	28 23       	and	r18, r24
    840a:	c0 81       	ld	r28, Z
    840c:	d1 81       	ldd	r29, Z+1	; 0x01
    840e:	c2 0f       	add	r28, r18
    8410:	d1 1d       	adc	r29, r1
    8412:	68 83       	st	Y, r22
    8414:	8f 5f       	subi	r24, 0xFF	; 255
    8416:	95 81       	ldd	r25, Z+5	; 0x05
    8418:	89 23       	and	r24, r25
    841a:	83 83       	std	Z+3, r24	; 0x03
    841c:	16 96       	adiw	r26, 0x06	; 6
    841e:	ed 91       	ld	r30, X+
    8420:	fc 91       	ld	r31, X
    8422:	17 97       	sbiw	r26, 0x07	; 7
    8424:	30 97       	sbiw	r30, 0x00	; 0
    8426:	11 f0       	breq	.+4      	; 0x842c <__vector_51+0x7a>
    8428:	cd 01       	movw	r24, r26
    842a:	19 95       	eicall
    842c:	ff 91       	pop	r31
    842e:	ef 91       	pop	r30
    8430:	df 91       	pop	r29
    8432:	cf 91       	pop	r28
    8434:	bf 91       	pop	r27
    8436:	af 91       	pop	r26
    8438:	9f 91       	pop	r25
    843a:	8f 91       	pop	r24
    843c:	7f 91       	pop	r23
    843e:	6f 91       	pop	r22
    8440:	5f 91       	pop	r21
    8442:	4f 91       	pop	r20
    8444:	3f 91       	pop	r19
    8446:	2f 91       	pop	r18
    8448:	0f 90       	pop	r0
    844a:	0b be       	out	0x3b, r0	; 59
    844c:	0f 90       	pop	r0
    844e:	0f be       	out	0x3f, r0	; 63
    8450:	0f 90       	pop	r0
    8452:	1f 90       	pop	r1
    8454:	18 95       	reti

00008456 <__vector_52>:
    8456:	1f 92       	push	r1
    8458:	0f 92       	push	r0
    845a:	0f b6       	in	r0, 0x3f	; 63
    845c:	0f 92       	push	r0
    845e:	11 24       	eor	r1, r1
    8460:	0b b6       	in	r0, 0x3b	; 59
    8462:	0f 92       	push	r0
    8464:	2f 93       	push	r18
    8466:	8f 93       	push	r24
    8468:	9f 93       	push	r25
    846a:	af 93       	push	r26
    846c:	bf 93       	push	r27
    846e:	ef 93       	push	r30
    8470:	ff 93       	push	r31
    8472:	e0 91 f6 18 	lds	r30, 0x18F6	; 0x8018f6 <_ser_handle+0x4>
    8476:	f0 91 f7 18 	lds	r31, 0x18F7	; 0x8018f7 <_ser_handle+0x5>
    847a:	30 97       	sbiw	r30, 0x00	; 0
    847c:	b9 f0       	breq	.+46     	; 0x84ac <__vector_52+0x56>
    847e:	02 80       	ldd	r0, Z+2	; 0x02
    8480:	f3 81       	ldd	r31, Z+3	; 0x03
    8482:	e0 2d       	mov	r30, r0
    8484:	93 81       	ldd	r25, Z+3	; 0x03
    8486:	82 81       	ldd	r24, Z+2	; 0x02
    8488:	98 17       	cp	r25, r24
    848a:	b1 f0       	breq	.+44     	; 0x84b8 <__vector_52+0x62>
    848c:	92 81       	ldd	r25, Z+2	; 0x02
    848e:	85 81       	ldd	r24, Z+5	; 0x05
    8490:	28 2f       	mov	r18, r24
    8492:	26 95       	lsr	r18
    8494:	29 23       	and	r18, r25
    8496:	a0 81       	ld	r26, Z
    8498:	b1 81       	ldd	r27, Z+1	; 0x01
    849a:	a2 0f       	add	r26, r18
    849c:	b1 1d       	adc	r27, r1
    849e:	2c 91       	ld	r18, X
    84a0:	9f 5f       	subi	r25, 0xFF	; 255
    84a2:	89 23       	and	r24, r25
    84a4:	82 83       	std	Z+2, r24	; 0x02
    84a6:	20 93 d6 00 	sts	0x00D6, r18	; 0x8000d6 <__TEXT_REGION_LENGTH__+0x7c00d6>
    84aa:	0b c0       	rjmp	.+22     	; 0x84c2 <__vector_52+0x6c>
    84ac:	e1 ed       	ldi	r30, 0xD1	; 209
    84ae:	f0 e0       	ldi	r31, 0x00	; 0
    84b0:	80 81       	ld	r24, Z
    84b2:	8f 7d       	andi	r24, 0xDF	; 223
    84b4:	80 83       	st	Z, r24
    84b6:	05 c0       	rjmp	.+10     	; 0x84c2 <__vector_52+0x6c>
    84b8:	e1 ed       	ldi	r30, 0xD1	; 209
    84ba:	f0 e0       	ldi	r31, 0x00	; 0
    84bc:	80 81       	ld	r24, Z
    84be:	8f 7d       	andi	r24, 0xDF	; 223
    84c0:	80 83       	st	Z, r24
    84c2:	ff 91       	pop	r31
    84c4:	ef 91       	pop	r30
    84c6:	bf 91       	pop	r27
    84c8:	af 91       	pop	r26
    84ca:	9f 91       	pop	r25
    84cc:	8f 91       	pop	r24
    84ce:	2f 91       	pop	r18
    84d0:	0f 90       	pop	r0
    84d2:	0b be       	out	0x3b, r0	; 59
    84d4:	0f 90       	pop	r0
    84d6:	0f be       	out	0x3f, r0	; 63
    84d8:	0f 90       	pop	r0
    84da:	1f 90       	pop	r1
    84dc:	18 95       	reti

000084de <__vector_54>:
    84de:	1f 92       	push	r1
    84e0:	0f 92       	push	r0
    84e2:	0f b6       	in	r0, 0x3f	; 63
    84e4:	0f 92       	push	r0
    84e6:	11 24       	eor	r1, r1
    84e8:	0b b6       	in	r0, 0x3b	; 59
    84ea:	0f 92       	push	r0
    84ec:	2f 93       	push	r18
    84ee:	3f 93       	push	r19
    84f0:	4f 93       	push	r20
    84f2:	5f 93       	push	r21
    84f4:	6f 93       	push	r22
    84f6:	7f 93       	push	r23
    84f8:	8f 93       	push	r24
    84fa:	9f 93       	push	r25
    84fc:	af 93       	push	r26
    84fe:	bf 93       	push	r27
    8500:	cf 93       	push	r28
    8502:	df 93       	push	r29
    8504:	ef 93       	push	r30
    8506:	ff 93       	push	r31
    8508:	a0 91 f8 18 	lds	r26, 0x18F8	; 0x8018f8 <_ser_handle+0x6>
    850c:	b0 91 f9 18 	lds	r27, 0x18F9	; 0x8018f9 <_ser_handle+0x7>
    8510:	10 97       	sbiw	r26, 0x00	; 0
    8512:	11 f1       	breq	.+68     	; 0x8558 <__vector_54+0x7a>
    8514:	60 91 36 01 	lds	r22, 0x0136	; 0x800136 <__TEXT_REGION_LENGTH__+0x7c0136>
    8518:	14 96       	adiw	r26, 0x04	; 4
    851a:	ed 91       	ld	r30, X+
    851c:	fc 91       	ld	r31, X
    851e:	15 97       	sbiw	r26, 0x05	; 5
    8520:	93 81       	ldd	r25, Z+3	; 0x03
    8522:	82 81       	ldd	r24, Z+2	; 0x02
    8524:	25 81       	ldd	r18, Z+5	; 0x05
    8526:	98 1b       	sub	r25, r24
    8528:	92 23       	and	r25, r18
    852a:	84 81       	ldd	r24, Z+4	; 0x04
    852c:	98 17       	cp	r25, r24
    852e:	61 f0       	breq	.+24     	; 0x8548 <__vector_54+0x6a>
    8530:	83 81       	ldd	r24, Z+3	; 0x03
    8532:	26 95       	lsr	r18
    8534:	28 23       	and	r18, r24
    8536:	c0 81       	ld	r28, Z
    8538:	d1 81       	ldd	r29, Z+1	; 0x01
    853a:	c2 0f       	add	r28, r18
    853c:	d1 1d       	adc	r29, r1
    853e:	68 83       	st	Y, r22
    8540:	8f 5f       	subi	r24, 0xFF	; 255
    8542:	95 81       	ldd	r25, Z+5	; 0x05
    8544:	89 23       	and	r24, r25
    8546:	83 83       	std	Z+3, r24	; 0x03
    8548:	16 96       	adiw	r26, 0x06	; 6
    854a:	ed 91       	ld	r30, X+
    854c:	fc 91       	ld	r31, X
    854e:	17 97       	sbiw	r26, 0x07	; 7
    8550:	30 97       	sbiw	r30, 0x00	; 0
    8552:	11 f0       	breq	.+4      	; 0x8558 <__vector_54+0x7a>
    8554:	cd 01       	movw	r24, r26
    8556:	19 95       	eicall
    8558:	ff 91       	pop	r31
    855a:	ef 91       	pop	r30
    855c:	df 91       	pop	r29
    855e:	cf 91       	pop	r28
    8560:	bf 91       	pop	r27
    8562:	af 91       	pop	r26
    8564:	9f 91       	pop	r25
    8566:	8f 91       	pop	r24
    8568:	7f 91       	pop	r23
    856a:	6f 91       	pop	r22
    856c:	5f 91       	pop	r21
    856e:	4f 91       	pop	r20
    8570:	3f 91       	pop	r19
    8572:	2f 91       	pop	r18
    8574:	0f 90       	pop	r0
    8576:	0b be       	out	0x3b, r0	; 59
    8578:	0f 90       	pop	r0
    857a:	0f be       	out	0x3f, r0	; 63
    857c:	0f 90       	pop	r0
    857e:	1f 90       	pop	r1
    8580:	18 95       	reti

00008582 <__vector_55>:
    8582:	1f 92       	push	r1
    8584:	0f 92       	push	r0
    8586:	0f b6       	in	r0, 0x3f	; 63
    8588:	0f 92       	push	r0
    858a:	11 24       	eor	r1, r1
    858c:	0b b6       	in	r0, 0x3b	; 59
    858e:	0f 92       	push	r0
    8590:	2f 93       	push	r18
    8592:	8f 93       	push	r24
    8594:	9f 93       	push	r25
    8596:	af 93       	push	r26
    8598:	bf 93       	push	r27
    859a:	ef 93       	push	r30
    859c:	ff 93       	push	r31
    859e:	e0 91 f8 18 	lds	r30, 0x18F8	; 0x8018f8 <_ser_handle+0x6>
    85a2:	f0 91 f9 18 	lds	r31, 0x18F9	; 0x8018f9 <_ser_handle+0x7>
    85a6:	30 97       	sbiw	r30, 0x00	; 0
    85a8:	b9 f0       	breq	.+46     	; 0x85d8 <__vector_55+0x56>
    85aa:	02 80       	ldd	r0, Z+2	; 0x02
    85ac:	f3 81       	ldd	r31, Z+3	; 0x03
    85ae:	e0 2d       	mov	r30, r0
    85b0:	93 81       	ldd	r25, Z+3	; 0x03
    85b2:	82 81       	ldd	r24, Z+2	; 0x02
    85b4:	98 17       	cp	r25, r24
    85b6:	b1 f0       	breq	.+44     	; 0x85e4 <__vector_55+0x62>
    85b8:	92 81       	ldd	r25, Z+2	; 0x02
    85ba:	85 81       	ldd	r24, Z+5	; 0x05
    85bc:	28 2f       	mov	r18, r24
    85be:	26 95       	lsr	r18
    85c0:	29 23       	and	r18, r25
    85c2:	a0 81       	ld	r26, Z
    85c4:	b1 81       	ldd	r27, Z+1	; 0x01
    85c6:	a2 0f       	add	r26, r18
    85c8:	b1 1d       	adc	r27, r1
    85ca:	2c 91       	ld	r18, X
    85cc:	9f 5f       	subi	r25, 0xFF	; 255
    85ce:	89 23       	and	r24, r25
    85d0:	82 83       	std	Z+2, r24	; 0x02
    85d2:	20 93 36 01 	sts	0x0136, r18	; 0x800136 <__TEXT_REGION_LENGTH__+0x7c0136>
    85d6:	0b c0       	rjmp	.+22     	; 0x85ee <__vector_55+0x6c>
    85d8:	e1 e3       	ldi	r30, 0x31	; 49
    85da:	f1 e0       	ldi	r31, 0x01	; 1
    85dc:	80 81       	ld	r24, Z
    85de:	8f 7d       	andi	r24, 0xDF	; 223
    85e0:	80 83       	st	Z, r24
    85e2:	05 c0       	rjmp	.+10     	; 0x85ee <__vector_55+0x6c>
    85e4:	e1 e3       	ldi	r30, 0x31	; 49
    85e6:	f1 e0       	ldi	r31, 0x01	; 1
    85e8:	80 81       	ld	r24, Z
    85ea:	8f 7d       	andi	r24, 0xDF	; 223
    85ec:	80 83       	st	Z, r24
    85ee:	ff 91       	pop	r31
    85f0:	ef 91       	pop	r30
    85f2:	bf 91       	pop	r27
    85f4:	af 91       	pop	r26
    85f6:	9f 91       	pop	r25
    85f8:	8f 91       	pop	r24
    85fa:	2f 91       	pop	r18
    85fc:	0f 90       	pop	r0
    85fe:	0b be       	out	0x3b, r0	; 59
    8600:	0f 90       	pop	r0
    8602:	0f be       	out	0x3f, r0	; 63
    8604:	0f 90       	pop	r0
    8606:	1f 90       	pop	r1
    8608:	18 95       	reti

0000860a <usart_getchar>:
    860a:	cf 93       	push	r28
    860c:	df 93       	push	r29
    860e:	1f 92       	push	r1
    8610:	cd b7       	in	r28, 0x3d	; 61
    8612:	de b7       	in	r29, 0x3e	; 62
    8614:	be 01       	movw	r22, r28
    8616:	6f 5f       	subi	r22, 0xFF	; 255
    8618:	7f 4f       	sbci	r23, 0xFF	; 255
    861a:	80 91 fa 18 	lds	r24, 0x18FA	; 0x8018fa <_com_serial_instance>
    861e:	90 91 fb 18 	lds	r25, 0x18FB	; 0x8018fb <_com_serial_instance+0x1>
    8622:	7b dd       	rcall	.-1290   	; 0x811a <serial_getByte>
    8624:	81 11       	cpse	r24, r1
    8626:	f6 cf       	rjmp	.-20     	; 0x8614 <usart_getchar+0xa>
    8628:	89 81       	ldd	r24, Y+1	; 0x01
    862a:	90 e0       	ldi	r25, 0x00	; 0
    862c:	0f 90       	pop	r0
    862e:	df 91       	pop	r29
    8630:	cf 91       	pop	r28
    8632:	08 95       	ret

00008634 <usart_putchar>:
    8634:	68 2f       	mov	r22, r24
    8636:	80 91 fa 18 	lds	r24, 0x18FA	; 0x8018fa <_com_serial_instance>
    863a:	90 91 fb 18 	lds	r25, 0x18FB	; 0x8018fb <_com_serial_instance+0x1>
    863e:	ed dc       	rcall	.-1574   	; 0x801a <serial_sendByte>
    8640:	80 e0       	ldi	r24, 0x00	; 0
    8642:	90 e0       	ldi	r25, 0x00	; 0
    8644:	08 95       	ret

00008646 <stdio_initialise>:
    8646:	8f 92       	push	r8
    8648:	9f 92       	push	r9
    864a:	af 92       	push	r10
    864c:	cf 92       	push	r12
    864e:	ef 92       	push	r14
    8650:	0f 93       	push	r16
    8652:	81 2c       	mov	r8, r1
    8654:	91 2c       	mov	r9, r1
    8656:	68 94       	set
    8658:	aa 24       	eor	r10, r10
    865a:	a7 f8       	bld	r10, 7
    865c:	68 94       	set
    865e:	cc 24       	eor	r12, r12
    8660:	c7 f8       	bld	r12, 7
    8662:	e1 2c       	mov	r14, r1
    8664:	00 e0       	ldi	r16, 0x00	; 0
    8666:	23 e0       	ldi	r18, 0x03	; 3
    8668:	40 e0       	ldi	r20, 0x00	; 0
    866a:	51 ee       	ldi	r21, 0xE1	; 225
    866c:	60 e0       	ldi	r22, 0x00	; 0
    866e:	70 e0       	ldi	r23, 0x00	; 0
    8670:	33 dc       	rcall	.-1946   	; 0x7ed8 <serial_create>
    8672:	90 93 fb 18 	sts	0x18FB, r25	; 0x8018fb <_com_serial_instance+0x1>
    8676:	80 93 fa 18 	sts	0x18FA, r24	; 0x8018fa <_com_serial_instance>
    867a:	ee e4       	ldi	r30, 0x4E	; 78
    867c:	f9 e1       	ldi	r31, 0x19	; 25
    867e:	83 e1       	ldi	r24, 0x13	; 19
    8680:	92 e0       	ldi	r25, 0x02	; 2
    8682:	91 83       	std	Z+1, r25	; 0x01
    8684:	80 83       	st	Z, r24
    8686:	93 83       	std	Z+3, r25	; 0x03
    8688:	82 83       	std	Z+2, r24	; 0x02
    868a:	0f 91       	pop	r16
    868c:	ef 90       	pop	r14
    868e:	cf 90       	pop	r12
    8690:	af 90       	pop	r10
    8692:	9f 90       	pop	r9
    8694:	8f 90       	pop	r8
    8696:	08 95       	ret

00008698 <_turn_off>:
    8698:	90 e0       	ldi	r25, 0x00	; 0
    869a:	fc 01       	movw	r30, r24
    869c:	ee 0f       	add	r30, r30
    869e:	ff 1f       	adc	r31, r31
    86a0:	e8 0f       	add	r30, r24
    86a2:	f9 1f       	adc	r31, r25
    86a4:	ee 0f       	add	r30, r30
    86a6:	ff 1f       	adc	r31, r31
    86a8:	e4 50       	subi	r30, 0x04	; 4
    86aa:	f7 4e       	sbci	r31, 0xE7	; 231
    86ac:	23 81       	ldd	r18, Z+3	; 0x03
    86ae:	21 11       	cpse	r18, r1
    86b0:	1f c0       	rjmp	.+62     	; 0x86f0 <_turn_off+0x58>
    86b2:	9c 01       	movw	r18, r24
    86b4:	22 0f       	add	r18, r18
    86b6:	33 1f       	adc	r19, r19
    86b8:	f9 01       	movw	r30, r18
    86ba:	e8 0f       	add	r30, r24
    86bc:	f9 1f       	adc	r31, r25
    86be:	ee 0f       	add	r30, r30
    86c0:	ff 1f       	adc	r31, r31
    86c2:	e4 50       	subi	r30, 0x04	; 4
    86c4:	f7 4e       	sbci	r31, 0xE7	; 231
    86c6:	a0 81       	ld	r26, Z
    86c8:	b1 81       	ldd	r27, Z+1	; 0x01
    86ca:	4c 91       	ld	r20, X
    86cc:	f9 01       	movw	r30, r18
    86ce:	e8 0f       	add	r30, r24
    86d0:	f9 1f       	adc	r31, r25
    86d2:	ee 0f       	add	r30, r30
    86d4:	ff 1f       	adc	r31, r31
    86d6:	e4 50       	subi	r30, 0x04	; 4
    86d8:	f7 4e       	sbci	r31, 0xE7	; 231
    86da:	81 e0       	ldi	r24, 0x01	; 1
    86dc:	90 e0       	ldi	r25, 0x00	; 0
    86de:	02 80       	ldd	r0, Z+2	; 0x02
    86e0:	02 c0       	rjmp	.+4      	; 0x86e6 <_turn_off+0x4e>
    86e2:	88 0f       	add	r24, r24
    86e4:	99 1f       	adc	r25, r25
    86e6:	0a 94       	dec	r0
    86e8:	e2 f7       	brpl	.-8      	; 0x86e2 <_turn_off+0x4a>
    86ea:	84 2b       	or	r24, r20
    86ec:	8c 93       	st	X, r24
    86ee:	08 95       	ret
    86f0:	fc 01       	movw	r30, r24
    86f2:	ee 0f       	add	r30, r30
    86f4:	ff 1f       	adc	r31, r31
    86f6:	df 01       	movw	r26, r30
    86f8:	a8 0f       	add	r26, r24
    86fa:	b9 1f       	adc	r27, r25
    86fc:	aa 0f       	add	r26, r26
    86fe:	bb 1f       	adc	r27, r27
    8700:	a4 50       	subi	r26, 0x04	; 4
    8702:	b7 4e       	sbci	r27, 0xE7	; 231
    8704:	0d 90       	ld	r0, X+
    8706:	bc 91       	ld	r27, X
    8708:	a0 2d       	mov	r26, r0
    870a:	2c 91       	ld	r18, X
    870c:	e8 0f       	add	r30, r24
    870e:	f9 1f       	adc	r31, r25
    8710:	ee 0f       	add	r30, r30
    8712:	ff 1f       	adc	r31, r31
    8714:	e4 50       	subi	r30, 0x04	; 4
    8716:	f7 4e       	sbci	r31, 0xE7	; 231
    8718:	81 e0       	ldi	r24, 0x01	; 1
    871a:	90 e0       	ldi	r25, 0x00	; 0
    871c:	02 80       	ldd	r0, Z+2	; 0x02
    871e:	02 c0       	rjmp	.+4      	; 0x8724 <_turn_off+0x8c>
    8720:	88 0f       	add	r24, r24
    8722:	99 1f       	adc	r25, r25
    8724:	0a 94       	dec	r0
    8726:	e2 f7       	brpl	.-8      	; 0x8720 <_turn_off+0x88>
    8728:	80 95       	com	r24
    872a:	82 23       	and	r24, r18
    872c:	8c 93       	st	X, r24
    872e:	08 95       	ret

00008730 <_turn_on>:
    8730:	90 e0       	ldi	r25, 0x00	; 0
    8732:	fc 01       	movw	r30, r24
    8734:	ee 0f       	add	r30, r30
    8736:	ff 1f       	adc	r31, r31
    8738:	e8 0f       	add	r30, r24
    873a:	f9 1f       	adc	r31, r25
    873c:	ee 0f       	add	r30, r30
    873e:	ff 1f       	adc	r31, r31
    8740:	e4 50       	subi	r30, 0x04	; 4
    8742:	f7 4e       	sbci	r31, 0xE7	; 231
    8744:	23 81       	ldd	r18, Z+3	; 0x03
    8746:	21 11       	cpse	r18, r1
    8748:	20 c0       	rjmp	.+64     	; 0x878a <_turn_on+0x5a>
    874a:	9c 01       	movw	r18, r24
    874c:	22 0f       	add	r18, r18
    874e:	33 1f       	adc	r19, r19
    8750:	f9 01       	movw	r30, r18
    8752:	e8 0f       	add	r30, r24
    8754:	f9 1f       	adc	r31, r25
    8756:	ee 0f       	add	r30, r30
    8758:	ff 1f       	adc	r31, r31
    875a:	e4 50       	subi	r30, 0x04	; 4
    875c:	f7 4e       	sbci	r31, 0xE7	; 231
    875e:	a0 81       	ld	r26, Z
    8760:	b1 81       	ldd	r27, Z+1	; 0x01
    8762:	4c 91       	ld	r20, X
    8764:	f9 01       	movw	r30, r18
    8766:	e8 0f       	add	r30, r24
    8768:	f9 1f       	adc	r31, r25
    876a:	ee 0f       	add	r30, r30
    876c:	ff 1f       	adc	r31, r31
    876e:	e4 50       	subi	r30, 0x04	; 4
    8770:	f7 4e       	sbci	r31, 0xE7	; 231
    8772:	81 e0       	ldi	r24, 0x01	; 1
    8774:	90 e0       	ldi	r25, 0x00	; 0
    8776:	02 80       	ldd	r0, Z+2	; 0x02
    8778:	02 c0       	rjmp	.+4      	; 0x877e <_turn_on+0x4e>
    877a:	88 0f       	add	r24, r24
    877c:	99 1f       	adc	r25, r25
    877e:	0a 94       	dec	r0
    8780:	e2 f7       	brpl	.-8      	; 0x877a <_turn_on+0x4a>
    8782:	80 95       	com	r24
    8784:	84 23       	and	r24, r20
    8786:	8c 93       	st	X, r24
    8788:	08 95       	ret
    878a:	fc 01       	movw	r30, r24
    878c:	ee 0f       	add	r30, r30
    878e:	ff 1f       	adc	r31, r31
    8790:	df 01       	movw	r26, r30
    8792:	a8 0f       	add	r26, r24
    8794:	b9 1f       	adc	r27, r25
    8796:	aa 0f       	add	r26, r26
    8798:	bb 1f       	adc	r27, r27
    879a:	a4 50       	subi	r26, 0x04	; 4
    879c:	b7 4e       	sbci	r27, 0xE7	; 231
    879e:	0d 90       	ld	r0, X+
    87a0:	bc 91       	ld	r27, X
    87a2:	a0 2d       	mov	r26, r0
    87a4:	2c 91       	ld	r18, X
    87a6:	e8 0f       	add	r30, r24
    87a8:	f9 1f       	adc	r31, r25
    87aa:	ee 0f       	add	r30, r30
    87ac:	ff 1f       	adc	r31, r31
    87ae:	e4 50       	subi	r30, 0x04	; 4
    87b0:	f7 4e       	sbci	r31, 0xE7	; 231
    87b2:	81 e0       	ldi	r24, 0x01	; 1
    87b4:	90 e0       	ldi	r25, 0x00	; 0
    87b6:	02 80       	ldd	r0, Z+2	; 0x02
    87b8:	02 c0       	rjmp	.+4      	; 0x87be <_turn_on+0x8e>
    87ba:	88 0f       	add	r24, r24
    87bc:	99 1f       	adc	r25, r25
    87be:	0a 94       	dec	r0
    87c0:	e2 f7       	brpl	.-8      	; 0x87ba <_turn_on+0x8a>
    87c2:	82 2b       	or	r24, r18
    87c4:	8c 93       	st	X, r24
    87c6:	08 95       	ret

000087c8 <_hal_led_task>:
    87c8:	cc 24       	eor	r12, r12
    87ca:	c3 94       	inc	r12
    87cc:	d1 2c       	mov	r13, r1
    87ce:	68 94       	set
    87d0:	bb 24       	eor	r11, r11
    87d2:	b2 f8       	bld	r11, 2
    87d4:	cc ef       	ldi	r28, 0xFC	; 252
    87d6:	d8 e1       	ldi	r29, 0x18	; 24
    87d8:	10 e0       	ldi	r17, 0x00	; 0
    87da:	8c 81       	ldd	r24, Y+4	; 0x04
    87dc:	81 30       	cpi	r24, 0x01	; 1
    87de:	81 f0       	breq	.+32     	; 0x8800 <_hal_led_task+0x38>
    87e0:	18 f1       	brcs	.+70     	; 0x8828 <_hal_led_task+0x60>
    87e2:	82 30       	cpi	r24, 0x02	; 2
    87e4:	61 f5       	brne	.+88     	; 0x883e <_hal_led_task+0x76>
    87e6:	e8 81       	ld	r30, Y
    87e8:	f9 81       	ldd	r31, Y+1	; 0x01
    87ea:	20 81       	ld	r18, Z
    87ec:	c6 01       	movw	r24, r12
    87ee:	0a 80       	ldd	r0, Y+2	; 0x02
    87f0:	02 c0       	rjmp	.+4      	; 0x87f6 <_hal_led_task+0x2e>
    87f2:	88 0f       	add	r24, r24
    87f4:	99 1f       	adc	r25, r25
    87f6:	0a 94       	dec	r0
    87f8:	e2 f7       	brpl	.-8      	; 0x87f2 <_hal_led_task+0x2a>
    87fa:	82 27       	eor	r24, r18
    87fc:	80 83       	st	Z, r24
    87fe:	1f c0       	rjmp	.+62     	; 0x883e <_hal_led_task+0x76>
    8800:	8d 81       	ldd	r24, Y+5	; 0x05
    8802:	8f 5f       	subi	r24, 0xFF	; 255
    8804:	86 30       	cpi	r24, 0x06	; 6
    8806:	10 f4       	brcc	.+4      	; 0x880c <_hal_led_task+0x44>
    8808:	8d 83       	std	Y+5, r24	; 0x05
    880a:	19 c0       	rjmp	.+50     	; 0x883e <_hal_led_task+0x76>
    880c:	1d 82       	std	Y+5, r1	; 0x05
    880e:	e8 81       	ld	r30, Y
    8810:	f9 81       	ldd	r31, Y+1	; 0x01
    8812:	20 81       	ld	r18, Z
    8814:	c6 01       	movw	r24, r12
    8816:	0a 80       	ldd	r0, Y+2	; 0x02
    8818:	02 c0       	rjmp	.+4      	; 0x881e <_hal_led_task+0x56>
    881a:	88 0f       	add	r24, r24
    881c:	99 1f       	adc	r25, r25
    881e:	0a 94       	dec	r0
    8820:	e2 f7       	brpl	.-8      	; 0x881a <_hal_led_task+0x52>
    8822:	82 27       	eor	r24, r18
    8824:	80 83       	st	Z, r24
    8826:	0b c0       	rjmp	.+22     	; 0x883e <_hal_led_task+0x76>
    8828:	0d 81       	ldd	r16, Y+5	; 0x05
    882a:	00 23       	and	r16, r16
    882c:	29 f0       	breq	.+10     	; 0x8838 <_hal_led_task+0x70>
    882e:	81 2f       	mov	r24, r17
    8830:	7f df       	rcall	.-258    	; 0x8730 <_turn_on>
    8832:	01 50       	subi	r16, 0x01	; 1
    8834:	0d 83       	std	Y+5, r16	; 0x05
    8836:	03 c0       	rjmp	.+6      	; 0x883e <_hal_led_task+0x76>
    8838:	bc 82       	std	Y+4, r11	; 0x04
    883a:	81 2f       	mov	r24, r17
    883c:	2d df       	rcall	.-422    	; 0x8698 <_turn_off>
    883e:	1f 5f       	subi	r17, 0xFF	; 255
    8840:	26 96       	adiw	r28, 0x06	; 6
    8842:	14 30       	cpi	r17, 0x04	; 4
    8844:	51 f6       	brne	.-108    	; 0x87da <_hal_led_task+0x12>
    8846:	6c e0       	ldi	r22, 0x0C	; 12
    8848:	70 e0       	ldi	r23, 0x00	; 0
    884a:	80 e0       	ldi	r24, 0x00	; 0
    884c:	90 e0       	ldi	r25, 0x00	; 0
    884e:	0e 94 a1 1e 	call	0x3d42	; 0x3d42 <vTaskDelay>
    8852:	c0 cf       	rjmp	.-128    	; 0x87d4 <_hal_led_task+0xc>

00008854 <status_leds_initialise>:
    8854:	ef 92       	push	r14
    8856:	ff 92       	push	r15
    8858:	0f 93       	push	r16
    885a:	1f 93       	push	r17
    885c:	cf 93       	push	r28
    885e:	df 93       	push	r29
    8860:	08 2f       	mov	r16, r24
    8862:	80 e4       	ldi	r24, 0x40	; 64
    8864:	87 b9       	out	0x07, r24	; 7
    8866:	cc ef       	ldi	r28, 0xFC	; 252
    8868:	d8 e1       	ldi	r29, 0x18	; 24
    886a:	0f 2e       	mov	r0, r31
    886c:	f8 e2       	ldi	r31, 0x28	; 40
    886e:	ef 2e       	mov	r14, r31
    8870:	f1 2c       	mov	r15, r1
    8872:	f0 2d       	mov	r31, r0
    8874:	f9 82       	std	Y+1, r15	; 0x01
    8876:	e8 82       	st	Y, r14
    8878:	86 e0       	ldi	r24, 0x06	; 6
    887a:	8a 83       	std	Y+2, r24	; 0x02
    887c:	1b 82       	std	Y+3, r1	; 0x03
    887e:	14 e0       	ldi	r17, 0x04	; 4
    8880:	1c 83       	std	Y+4, r17	; 0x04
    8882:	80 e0       	ldi	r24, 0x00	; 0
    8884:	09 df       	rcall	.-494    	; 0x8698 <_turn_off>
    8886:	80 e8       	ldi	r24, 0x80	; 128
    8888:	87 b9       	out	0x07, r24	; 7
    888a:	ff 82       	std	Y+7, r15	; 0x07
    888c:	ee 82       	std	Y+6, r14	; 0x06
    888e:	87 e0       	ldi	r24, 0x07	; 7
    8890:	88 87       	std	Y+8, r24	; 0x08
    8892:	19 86       	std	Y+9, r1	; 0x09
    8894:	1a 87       	std	Y+10, r17	; 0x0a
    8896:	81 e0       	ldi	r24, 0x01	; 1
    8898:	ff de       	rcall	.-514    	; 0x8698 <_turn_off>
    889a:	80 e2       	ldi	r24, 0x20	; 32
    889c:	83 bb       	out	0x13, r24	; 19
    889e:	84 e3       	ldi	r24, 0x34	; 52
    88a0:	90 e0       	ldi	r25, 0x00	; 0
    88a2:	9d 87       	std	Y+13, r25	; 0x0d
    88a4:	8c 87       	std	Y+12, r24	; 0x0c
    88a6:	85 e0       	ldi	r24, 0x05	; 5
    88a8:	8e 87       	std	Y+14, r24	; 0x0e
    88aa:	1f 86       	std	Y+15, r1	; 0x0f
    88ac:	18 8b       	std	Y+16, r17	; 0x10
    88ae:	82 e0       	ldi	r24, 0x02	; 2
    88b0:	f3 de       	rcall	.-538    	; 0x8698 <_turn_off>
    88b2:	80 e1       	ldi	r24, 0x10	; 16
    88b4:	80 93 01 01 	sts	0x0101, r24	; 0x800101 <__TEXT_REGION_LENGTH__+0x7c0101>
    88b8:	82 e0       	ldi	r24, 0x02	; 2
    88ba:	91 e0       	ldi	r25, 0x01	; 1
    88bc:	9b 8b       	std	Y+19, r25	; 0x13
    88be:	8a 8b       	std	Y+18, r24	; 0x12
    88c0:	1c 8b       	std	Y+20, r17	; 0x14
    88c2:	1d 8a       	std	Y+21, r1	; 0x15
    88c4:	1e 8b       	std	Y+22, r17	; 0x16
    88c6:	83 e0       	ldi	r24, 0x03	; 3
    88c8:	e7 de       	rcall	.-562    	; 0x8698 <_turn_off>
    88ca:	e1 2c       	mov	r14, r1
    88cc:	f1 2c       	mov	r15, r1
    88ce:	20 e0       	ldi	r18, 0x00	; 0
    88d0:	30 e0       	ldi	r19, 0x00	; 0
    88d2:	40 ec       	ldi	r20, 0xC0	; 192
    88d4:	50 e0       	ldi	r21, 0x00	; 0
    88d6:	61 e5       	ldi	r22, 0x51	; 81
    88d8:	79 e0       	ldi	r23, 0x09	; 9
    88da:	84 ee       	ldi	r24, 0xE4	; 228
    88dc:	93 e4       	ldi	r25, 0x43	; 67
    88de:	0e 94 b5 1b 	call	0x376a	; 0x376a <xTaskCreate>
    88e2:	df 91       	pop	r29
    88e4:	cf 91       	pop	r28
    88e6:	1f 91       	pop	r17
    88e8:	0f 91       	pop	r16
    88ea:	ff 90       	pop	r15
    88ec:	ef 90       	pop	r14
    88ee:	08 95       	ret

000088f0 <status_leds_slowBlink>:
    88f0:	cf 93       	push	r28
    88f2:	df 93       	push	r29
    88f4:	90 e0       	ldi	r25, 0x00	; 0
    88f6:	fc 01       	movw	r30, r24
    88f8:	ee 0f       	add	r30, r30
    88fa:	ff 1f       	adc	r31, r31
    88fc:	df 01       	movw	r26, r30
    88fe:	a8 0f       	add	r26, r24
    8900:	b9 1f       	adc	r27, r25
    8902:	aa 0f       	add	r26, r26
    8904:	bb 1f       	adc	r27, r27
    8906:	a4 50       	subi	r26, 0x04	; 4
    8908:	b7 4e       	sbci	r27, 0xE7	; 231
    890a:	cd 91       	ld	r28, X+
    890c:	dc 91       	ld	r29, X
    890e:	11 97       	sbiw	r26, 0x01	; 1
    8910:	48 81       	ld	r20, Y
    8912:	21 e0       	ldi	r18, 0x01	; 1
    8914:	30 e0       	ldi	r19, 0x00	; 0
    8916:	12 96       	adiw	r26, 0x02	; 2
    8918:	0c 90       	ld	r0, X
    891a:	12 97       	sbiw	r26, 0x02	; 2
    891c:	02 c0       	rjmp	.+4      	; 0x8922 <status_leds_slowBlink+0x32>
    891e:	22 0f       	add	r18, r18
    8920:	33 1f       	adc	r19, r19
    8922:	0a 94       	dec	r0
    8924:	e2 f7       	brpl	.-8      	; 0x891e <status_leds_slowBlink+0x2e>
    8926:	24 27       	eor	r18, r20
    8928:	28 83       	st	Y, r18
    892a:	fd 01       	movw	r30, r26
    892c:	81 e0       	ldi	r24, 0x01	; 1
    892e:	84 83       	std	Z+4, r24	; 0x04
    8930:	df 91       	pop	r29
    8932:	cf 91       	pop	r28
    8934:	08 95       	ret

00008936 <status_leds_fastBlink>:
    8936:	cf 93       	push	r28
    8938:	df 93       	push	r29
    893a:	90 e0       	ldi	r25, 0x00	; 0
    893c:	fc 01       	movw	r30, r24
    893e:	ee 0f       	add	r30, r30
    8940:	ff 1f       	adc	r31, r31
    8942:	df 01       	movw	r26, r30
    8944:	a8 0f       	add	r26, r24
    8946:	b9 1f       	adc	r27, r25
    8948:	aa 0f       	add	r26, r26
    894a:	bb 1f       	adc	r27, r27
    894c:	a4 50       	subi	r26, 0x04	; 4
    894e:	b7 4e       	sbci	r27, 0xE7	; 231
    8950:	cd 91       	ld	r28, X+
    8952:	dc 91       	ld	r29, X
    8954:	11 97       	sbiw	r26, 0x01	; 1
    8956:	48 81       	ld	r20, Y
    8958:	21 e0       	ldi	r18, 0x01	; 1
    895a:	30 e0       	ldi	r19, 0x00	; 0
    895c:	12 96       	adiw	r26, 0x02	; 2
    895e:	0c 90       	ld	r0, X
    8960:	12 97       	sbiw	r26, 0x02	; 2
    8962:	02 c0       	rjmp	.+4      	; 0x8968 <status_leds_fastBlink+0x32>
    8964:	22 0f       	add	r18, r18
    8966:	33 1f       	adc	r19, r19
    8968:	0a 94       	dec	r0
    896a:	e2 f7       	brpl	.-8      	; 0x8964 <status_leds_fastBlink+0x2e>
    896c:	24 27       	eor	r18, r20
    896e:	28 83       	st	Y, r18
    8970:	fd 01       	movw	r30, r26
    8972:	82 e0       	ldi	r24, 0x02	; 2
    8974:	84 83       	std	Z+4, r24	; 0x04
    8976:	df 91       	pop	r29
    8978:	cf 91       	pop	r28
    897a:	08 95       	ret

0000897c <status_leds_ledOn>:
    897c:	28 2f       	mov	r18, r24
    897e:	30 e0       	ldi	r19, 0x00	; 0
    8980:	f9 01       	movw	r30, r18
    8982:	ee 0f       	add	r30, r30
    8984:	ff 1f       	adc	r31, r31
    8986:	e2 0f       	add	r30, r18
    8988:	f3 1f       	adc	r31, r19
    898a:	ee 0f       	add	r30, r30
    898c:	ff 1f       	adc	r31, r31
    898e:	e4 50       	subi	r30, 0x04	; 4
    8990:	f7 4e       	sbci	r31, 0xE7	; 231
    8992:	93 e0       	ldi	r25, 0x03	; 3
    8994:	94 83       	std	Z+4, r25	; 0x04
    8996:	cc ce       	rjmp	.-616    	; 0x8730 <_turn_on>
    8998:	08 95       	ret

0000899a <status_leds_ledOff>:
    899a:	28 2f       	mov	r18, r24
    899c:	30 e0       	ldi	r19, 0x00	; 0
    899e:	f9 01       	movw	r30, r18
    89a0:	ee 0f       	add	r30, r30
    89a2:	ff 1f       	adc	r31, r31
    89a4:	e2 0f       	add	r30, r18
    89a6:	f3 1f       	adc	r31, r19
    89a8:	ee 0f       	add	r30, r30
    89aa:	ff 1f       	adc	r31, r31
    89ac:	e4 50       	subi	r30, 0x04	; 4
    89ae:	f7 4e       	sbci	r31, 0xE7	; 231
    89b0:	94 e0       	ldi	r25, 0x04	; 4
    89b2:	94 83       	std	Z+4, r25	; 0x04
    89b4:	71 ce       	rjmp	.-798    	; 0x8698 <_turn_off>
    89b6:	08 95       	ret

000089b8 <status_leds_longPuls>:
    89b8:	90 e0       	ldi	r25, 0x00	; 0
    89ba:	fc 01       	movw	r30, r24
    89bc:	ee 0f       	add	r30, r30
    89be:	ff 1f       	adc	r31, r31
    89c0:	df 01       	movw	r26, r30
    89c2:	a8 0f       	add	r26, r24
    89c4:	b9 1f       	adc	r27, r25
    89c6:	aa 0f       	add	r26, r26
    89c8:	bb 1f       	adc	r27, r27
    89ca:	a4 50       	subi	r26, 0x04	; 4
    89cc:	b7 4e       	sbci	r27, 0xE7	; 231
    89ce:	26 e0       	ldi	r18, 0x06	; 6
    89d0:	15 96       	adiw	r26, 0x05	; 5
    89d2:	2c 93       	st	X, r18
    89d4:	15 97       	sbiw	r26, 0x05	; 5
    89d6:	fd 01       	movw	r30, r26
    89d8:	14 82       	std	Z+4, r1	; 0x04
    89da:	08 95       	ret

000089dc <status_leds_shortPuls>:
    89dc:	90 e0       	ldi	r25, 0x00	; 0
    89de:	fc 01       	movw	r30, r24
    89e0:	ee 0f       	add	r30, r30
    89e2:	ff 1f       	adc	r31, r31
    89e4:	df 01       	movw	r26, r30
    89e6:	a8 0f       	add	r26, r24
    89e8:	b9 1f       	adc	r27, r25
    89ea:	aa 0f       	add	r26, r26
    89ec:	bb 1f       	adc	r27, r27
    89ee:	a4 50       	subi	r26, 0x04	; 4
    89f0:	b7 4e       	sbci	r27, 0xE7	; 231
    89f2:	15 96       	adiw	r26, 0x05	; 5
    89f4:	1c 92       	st	X, r1
    89f6:	15 97       	sbiw	r26, 0x05	; 5
    89f8:	fd 01       	movw	r30, r26
    89fa:	14 82       	std	Z+4, r1	; 0x04
    89fc:	08 95       	ret

000089fe <_initTwiInterface>:
    89fe:	80 91 22 19 	lds	r24, 0x1922	; 0x801922 <_twiIsInitiated>
    8a02:	81 11       	cpse	r24, r1
    8a04:	0c c0       	rjmp	.+24     	; 0x8a1e <_initTwiInterface+0x20>
    8a06:	8c e0       	ldi	r24, 0x0C	; 12
    8a08:	80 93 b8 00 	sts	0x00B8, r24	; 0x8000b8 <__TEXT_REGION_LENGTH__+0x7c00b8>
    8a0c:	8f ef       	ldi	r24, 0xFF	; 255
    8a0e:	80 93 bb 00 	sts	0x00BB, r24	; 0x8000bb <__TEXT_REGION_LENGTH__+0x7c00bb>
    8a12:	84 e0       	ldi	r24, 0x04	; 4
    8a14:	80 93 bc 00 	sts	0x00BC, r24	; 0x8000bc <__TEXT_REGION_LENGTH__+0x7c00bc>
    8a18:	81 e0       	ldi	r24, 0x01	; 1
    8a1a:	80 93 22 19 	sts	0x1922, r24	; 0x801922 <_twiIsInitiated>
    8a1e:	08 95       	ret

00008a20 <twiCreate>:
    8a20:	af 92       	push	r10
    8a22:	bf 92       	push	r11
    8a24:	cf 92       	push	r12
    8a26:	df 92       	push	r13
    8a28:	ef 92       	push	r14
    8a2a:	ff 92       	push	r15
    8a2c:	0f 93       	push	r16
    8a2e:	1f 93       	push	r17
    8a30:	cf 93       	push	r28
    8a32:	df 93       	push	r29
    8a34:	a8 2e       	mov	r10, r24
    8a36:	b6 2e       	mov	r11, r22
    8a38:	69 01       	movw	r12, r18
    8a3a:	7a 01       	movw	r14, r20
    8a3c:	84 e0       	ldi	r24, 0x04	; 4
    8a3e:	90 e0       	ldi	r25, 0x00	; 0
    8a40:	e3 d2       	rcall	.+1478   	; 0x9008 <malloc>
    8a42:	ec 01       	movw	r28, r24
    8a44:	89 2b       	or	r24, r25
    8a46:	61 f1       	breq	.+88     	; 0x8aa0 <twiCreate+0x80>
    8a48:	a8 82       	st	Y, r10
    8a4a:	81 e0       	ldi	r24, 0x01	; 1
    8a4c:	b8 12       	cpse	r11, r24
    8a4e:	12 c0       	rjmp	.+36     	; 0x8a74 <twiCreate+0x54>
    8a50:	c7 01       	movw	r24, r14
    8a52:	b6 01       	movw	r22, r12
    8a54:	20 ea       	ldi	r18, 0xA0	; 160
    8a56:	36 e8       	ldi	r19, 0x86	; 134
    8a58:	41 e0       	ldi	r20, 0x01	; 1
    8a5a:	50 e0       	ldi	r21, 0x00	; 0
    8a5c:	ab d2       	rcall	.+1366   	; 0x8fb4 <__udivmodsi4>
    8a5e:	da 01       	movw	r26, r20
    8a60:	c9 01       	movw	r24, r18
    8a62:	40 97       	sbiw	r24, 0x10	; 16
    8a64:	a1 09       	sbc	r26, r1
    8a66:	b1 09       	sbc	r27, r1
    8a68:	b6 95       	lsr	r27
    8a6a:	a7 95       	ror	r26
    8a6c:	97 95       	ror	r25
    8a6e:	87 95       	ror	r24
    8a70:	89 83       	std	Y+1, r24	; 0x01
    8a72:	11 c0       	rjmp	.+34     	; 0x8a96 <twiCreate+0x76>
    8a74:	c7 01       	movw	r24, r14
    8a76:	b6 01       	movw	r22, r12
    8a78:	20 e8       	ldi	r18, 0x80	; 128
    8a7a:	3a e1       	ldi	r19, 0x1A	; 26
    8a7c:	46 e0       	ldi	r20, 0x06	; 6
    8a7e:	50 e0       	ldi	r21, 0x00	; 0
    8a80:	99 d2       	rcall	.+1330   	; 0x8fb4 <__udivmodsi4>
    8a82:	da 01       	movw	r26, r20
    8a84:	c9 01       	movw	r24, r18
    8a86:	40 97       	sbiw	r24, 0x10	; 16
    8a88:	a1 09       	sbc	r26, r1
    8a8a:	b1 09       	sbc	r27, r1
    8a8c:	b6 95       	lsr	r27
    8a8e:	a7 95       	ror	r26
    8a90:	97 95       	ror	r25
    8a92:	87 95       	ror	r24
    8a94:	89 83       	std	Y+1, r24	; 0x01
    8a96:	1b 83       	std	Y+3, r17	; 0x03
    8a98:	0a 83       	std	Y+2, r16	; 0x02
    8a9a:	8c 2f       	mov	r24, r28
    8a9c:	9d 2f       	mov	r25, r29
    8a9e:	02 c0       	rjmp	.+4      	; 0x8aa4 <twiCreate+0x84>
    8aa0:	80 e0       	ldi	r24, 0x00	; 0
    8aa2:	90 e0       	ldi	r25, 0x00	; 0
    8aa4:	df 91       	pop	r29
    8aa6:	cf 91       	pop	r28
    8aa8:	1f 91       	pop	r17
    8aaa:	0f 91       	pop	r16
    8aac:	ff 90       	pop	r15
    8aae:	ef 90       	pop	r14
    8ab0:	df 90       	pop	r13
    8ab2:	cf 90       	pop	r12
    8ab4:	bf 90       	pop	r11
    8ab6:	af 90       	pop	r10
    8ab8:	08 95       	ret

00008aba <twiIsBusy>:
    8aba:	80 91 bc 00 	lds	r24, 0x00BC	; 0x8000bc <__TEXT_REGION_LENGTH__+0x7c00bc>
    8abe:	81 70       	andi	r24, 0x01	; 1
    8ac0:	08 95       	ret

00008ac2 <twiTransmit>:
    8ac2:	ff 92       	push	r15
    8ac4:	0f 93       	push	r16
    8ac6:	1f 93       	push	r17
    8ac8:	cf 93       	push	r28
    8aca:	df 93       	push	r29
    8acc:	00 97       	sbiw	r24, 0x00	; 0
    8ace:	d1 f1       	breq	.+116    	; 0x8b44 <twiTransmit+0x82>
    8ad0:	4a 30       	cpi	r20, 0x0A	; 10
    8ad2:	d0 f5       	brcc	.+116    	; 0x8b48 <twiTransmit+0x86>
    8ad4:	f4 2e       	mov	r15, r20
    8ad6:	8b 01       	movw	r16, r22
    8ad8:	ec 01       	movw	r28, r24
    8ada:	ef df       	rcall	.-34     	; 0x8aba <twiIsBusy>
    8adc:	81 11       	cpse	r24, r1
    8ade:	36 c0       	rjmp	.+108    	; 0x8b4c <twiTransmit+0x8a>
    8ae0:	80 91 15 19 	lds	r24, 0x1915	; 0x801915 <_twiCurrentHandler>
    8ae4:	90 91 16 19 	lds	r25, 0x1916	; 0x801916 <_twiCurrentHandler+0x1>
    8ae8:	c8 17       	cp	r28, r24
    8aea:	d9 07       	cpc	r29, r25
    8aec:	41 f0       	breq	.+16     	; 0x8afe <twiTransmit+0x3c>
    8aee:	87 df       	rcall	.-242    	; 0x89fe <_initTwiInterface>
    8af0:	89 81       	ldd	r24, Y+1	; 0x01
    8af2:	80 93 b8 00 	sts	0x00B8, r24	; 0x8000b8 <__TEXT_REGION_LENGTH__+0x7c00b8>
    8af6:	d0 93 16 19 	sts	0x1916, r29	; 0x801916 <_twiCurrentHandler+0x1>
    8afa:	c0 93 15 19 	sts	0x1915, r28	; 0x801915 <_twiCurrentHandler>
    8afe:	81 e0       	ldi	r24, 0x01	; 1
    8b00:	8f 0d       	add	r24, r15
    8b02:	80 93 17 19 	sts	0x1917, r24	; 0x801917 <_twiMessageLen>
    8b06:	88 81       	ld	r24, Y
    8b08:	88 0f       	add	r24, r24
    8b0a:	80 93 18 19 	sts	0x1918, r24	; 0x801918 <_twiMessageBuffer>
    8b0e:	ff 20       	and	r15, r15
    8b10:	89 f0       	breq	.+34     	; 0x8b34 <twiTransmit+0x72>
    8b12:	f8 01       	movw	r30, r16
    8b14:	a9 e1       	ldi	r26, 0x19	; 25
    8b16:	b9 e1       	ldi	r27, 0x19	; 25
    8b18:	4f ef       	ldi	r20, 0xFF	; 255
    8b1a:	4f 0d       	add	r20, r15
    8b1c:	64 2f       	mov	r22, r20
    8b1e:	70 e0       	ldi	r23, 0x00	; 0
    8b20:	cb 01       	movw	r24, r22
    8b22:	01 96       	adiw	r24, 0x01	; 1
    8b24:	b8 01       	movw	r22, r16
    8b26:	68 0f       	add	r22, r24
    8b28:	79 1f       	adc	r23, r25
    8b2a:	81 91       	ld	r24, Z+
    8b2c:	8d 93       	st	X+, r24
    8b2e:	e6 17       	cp	r30, r22
    8b30:	f7 07       	cpc	r31, r23
    8b32:	d9 f7       	brne	.-10     	; 0x8b2a <twiTransmit+0x68>
    8b34:	88 ef       	ldi	r24, 0xF8	; 248
    8b36:	80 93 21 02 	sts	0x0221, r24	; 0x800221 <_twiCurrentState>
    8b3a:	85 ea       	ldi	r24, 0xA5	; 165
    8b3c:	80 93 bc 00 	sts	0x00BC, r24	; 0x8000bc <__TEXT_REGION_LENGTH__+0x7c00bc>
    8b40:	84 e0       	ldi	r24, 0x04	; 4
    8b42:	05 c0       	rjmp	.+10     	; 0x8b4e <twiTransmit+0x8c>
    8b44:	86 e0       	ldi	r24, 0x06	; 6
    8b46:	03 c0       	rjmp	.+6      	; 0x8b4e <twiTransmit+0x8c>
    8b48:	87 e0       	ldi	r24, 0x07	; 7
    8b4a:	01 c0       	rjmp	.+2      	; 0x8b4e <twiTransmit+0x8c>
    8b4c:	82 e0       	ldi	r24, 0x02	; 2
    8b4e:	df 91       	pop	r29
    8b50:	cf 91       	pop	r28
    8b52:	1f 91       	pop	r17
    8b54:	0f 91       	pop	r16
    8b56:	ff 90       	pop	r15
    8b58:	08 95       	ret

00008b5a <twiReceive>:
    8b5a:	1f 93       	push	r17
    8b5c:	cf 93       	push	r28
    8b5e:	df 93       	push	r29
    8b60:	00 97       	sbiw	r24, 0x00	; 0
    8b62:	29 f1       	breq	.+74     	; 0x8bae <twiReceive+0x54>
    8b64:	6b 30       	cpi	r22, 0x0B	; 11
    8b66:	28 f5       	brcc	.+74     	; 0x8bb2 <twiReceive+0x58>
    8b68:	16 2f       	mov	r17, r22
    8b6a:	ec 01       	movw	r28, r24
    8b6c:	a6 df       	rcall	.-180    	; 0x8aba <twiIsBusy>
    8b6e:	81 11       	cpse	r24, r1
    8b70:	22 c0       	rjmp	.+68     	; 0x8bb6 <twiReceive+0x5c>
    8b72:	80 91 15 19 	lds	r24, 0x1915	; 0x801915 <_twiCurrentHandler>
    8b76:	90 91 16 19 	lds	r25, 0x1916	; 0x801916 <_twiCurrentHandler+0x1>
    8b7a:	c8 17       	cp	r28, r24
    8b7c:	d9 07       	cpc	r29, r25
    8b7e:	41 f0       	breq	.+16     	; 0x8b90 <twiReceive+0x36>
    8b80:	3e df       	rcall	.-388    	; 0x89fe <_initTwiInterface>
    8b82:	89 81       	ldd	r24, Y+1	; 0x01
    8b84:	80 93 b8 00 	sts	0x00B8, r24	; 0x8000b8 <__TEXT_REGION_LENGTH__+0x7c00b8>
    8b88:	d0 93 16 19 	sts	0x1916, r29	; 0x801916 <_twiCurrentHandler+0x1>
    8b8c:	c0 93 15 19 	sts	0x1915, r28	; 0x801915 <_twiCurrentHandler>
    8b90:	10 93 17 19 	sts	0x1917, r17	; 0x801917 <_twiMessageLen>
    8b94:	88 81       	ld	r24, Y
    8b96:	88 0f       	add	r24, r24
    8b98:	81 60       	ori	r24, 0x01	; 1
    8b9a:	80 93 18 19 	sts	0x1918, r24	; 0x801918 <_twiMessageBuffer>
    8b9e:	88 ef       	ldi	r24, 0xF8	; 248
    8ba0:	80 93 21 02 	sts	0x0221, r24	; 0x800221 <_twiCurrentState>
    8ba4:	85 ea       	ldi	r24, 0xA5	; 165
    8ba6:	80 93 bc 00 	sts	0x00BC, r24	; 0x8000bc <__TEXT_REGION_LENGTH__+0x7c00bc>
    8baa:	85 e0       	ldi	r24, 0x05	; 5
    8bac:	05 c0       	rjmp	.+10     	; 0x8bb8 <twiReceive+0x5e>
    8bae:	86 e0       	ldi	r24, 0x06	; 6
    8bb0:	03 c0       	rjmp	.+6      	; 0x8bb8 <twiReceive+0x5e>
    8bb2:	87 e0       	ldi	r24, 0x07	; 7
    8bb4:	01 c0       	rjmp	.+2      	; 0x8bb8 <twiReceive+0x5e>
    8bb6:	82 e0       	ldi	r24, 0x02	; 2
    8bb8:	df 91       	pop	r29
    8bba:	cf 91       	pop	r28
    8bbc:	1f 91       	pop	r17
    8bbe:	08 95       	ret

00008bc0 <__vector_39>:
    8bc0:	1f 92       	push	r1
    8bc2:	0f 92       	push	r0
    8bc4:	0f b6       	in	r0, 0x3f	; 63
    8bc6:	0f 92       	push	r0
    8bc8:	11 24       	eor	r1, r1
    8bca:	0b b6       	in	r0, 0x3b	; 59
    8bcc:	0f 92       	push	r0
    8bce:	2f 93       	push	r18
    8bd0:	3f 93       	push	r19
    8bd2:	4f 93       	push	r20
    8bd4:	5f 93       	push	r21
    8bd6:	6f 93       	push	r22
    8bd8:	7f 93       	push	r23
    8bda:	8f 93       	push	r24
    8bdc:	9f 93       	push	r25
    8bde:	af 93       	push	r26
    8be0:	bf 93       	push	r27
    8be2:	ef 93       	push	r30
    8be4:	ff 93       	push	r31
    8be6:	e0 91 b9 00 	lds	r30, 0x00B9	; 0x8000b9 <__TEXT_REGION_LENGTH__+0x7c00b9>
    8bea:	8e 2f       	mov	r24, r30
    8bec:	90 e0       	ldi	r25, 0x00	; 0
    8bee:	fc 01       	movw	r30, r24
    8bf0:	38 97       	sbiw	r30, 0x08	; 8
    8bf2:	e1 35       	cpi	r30, 0x51	; 81
    8bf4:	f1 05       	cpc	r31, r1
    8bf6:	08 f0       	brcs	.+2      	; 0x8bfa <__vector_39+0x3a>
    8bf8:	75 c0       	rjmp	.+234    	; 0x8ce4 <__vector_39+0x124>
    8bfa:	88 27       	eor	r24, r24
    8bfc:	e4 58       	subi	r30, 0x84	; 132
    8bfe:	ff 4f       	sbci	r31, 0xFF	; 255
    8c00:	8f 4f       	sbci	r24, 0xFF	; 255
    8c02:	fa c1       	rjmp	.+1012   	; 0x8ff8 <__tablejump2__>
    8c04:	10 92 14 19 	sts	0x1914, r1	; 0x801914 <_index.1885>
    8c08:	e0 91 14 19 	lds	r30, 0x1914	; 0x801914 <_index.1885>
    8c0c:	80 91 17 19 	lds	r24, 0x1917	; 0x801917 <_twiMessageLen>
    8c10:	e8 17       	cp	r30, r24
    8c12:	70 f4       	brcc	.+28     	; 0x8c30 <__vector_39+0x70>
    8c14:	81 e0       	ldi	r24, 0x01	; 1
    8c16:	8e 0f       	add	r24, r30
    8c18:	80 93 14 19 	sts	0x1914, r24	; 0x801914 <_index.1885>
    8c1c:	f0 e0       	ldi	r31, 0x00	; 0
    8c1e:	e8 5e       	subi	r30, 0xE8	; 232
    8c20:	f6 4e       	sbci	r31, 0xE6	; 230
    8c22:	80 81       	ld	r24, Z
    8c24:	80 93 bb 00 	sts	0x00BB, r24	; 0x8000bb <__TEXT_REGION_LENGTH__+0x7c00bb>
    8c28:	85 e8       	ldi	r24, 0x85	; 133
    8c2a:	80 93 bc 00 	sts	0x00BC, r24	; 0x8000bc <__TEXT_REGION_LENGTH__+0x7c00bc>
    8c2e:	72 c0       	rjmp	.+228    	; 0x8d14 <__vector_39+0x154>
    8c30:	84 e9       	ldi	r24, 0x94	; 148
    8c32:	80 93 bc 00 	sts	0x00BC, r24	; 0x8000bc <__TEXT_REGION_LENGTH__+0x7c00bc>
    8c36:	80 91 15 19 	lds	r24, 0x1915	; 0x801915 <_twiCurrentHandler>
    8c3a:	90 91 16 19 	lds	r25, 0x1916	; 0x801916 <_twiCurrentHandler+0x1>
    8c3e:	dc 01       	movw	r26, r24
    8c40:	12 96       	adiw	r26, 0x02	; 2
    8c42:	ed 91       	ld	r30, X+
    8c44:	fc 91       	ld	r31, X
    8c46:	13 97       	sbiw	r26, 0x03	; 3
    8c48:	30 97       	sbiw	r30, 0x00	; 0
    8c4a:	09 f4       	brne	.+2      	; 0x8c4e <__vector_39+0x8e>
    8c4c:	63 c0       	rjmp	.+198    	; 0x8d14 <__vector_39+0x154>
    8c4e:	20 e0       	ldi	r18, 0x00	; 0
    8c50:	40 e0       	ldi	r20, 0x00	; 0
    8c52:	50 e0       	ldi	r21, 0x00	; 0
    8c54:	64 e0       	ldi	r22, 0x04	; 4
    8c56:	19 95       	eicall
    8c58:	5d c0       	rjmp	.+186    	; 0x8d14 <__vector_39+0x154>
    8c5a:	e0 91 14 19 	lds	r30, 0x1914	; 0x801914 <_index.1885>
    8c5e:	81 e0       	ldi	r24, 0x01	; 1
    8c60:	8e 0f       	add	r24, r30
    8c62:	80 93 14 19 	sts	0x1914, r24	; 0x801914 <_index.1885>
    8c66:	80 91 bb 00 	lds	r24, 0x00BB	; 0x8000bb <__TEXT_REGION_LENGTH__+0x7c00bb>
    8c6a:	f0 e0       	ldi	r31, 0x00	; 0
    8c6c:	e8 5e       	subi	r30, 0xE8	; 232
    8c6e:	f6 4e       	sbci	r31, 0xE6	; 230
    8c70:	80 83       	st	Z, r24
    8c72:	80 91 b9 00 	lds	r24, 0x00B9	; 0x8000b9 <__TEXT_REGION_LENGTH__+0x7c00b9>
    8c76:	80 34       	cpi	r24, 0x40	; 64
    8c78:	11 f4       	brne	.+4      	; 0x8c7e <__vector_39+0xbe>
    8c7a:	10 92 14 19 	sts	0x1914, r1	; 0x801914 <_index.1885>
    8c7e:	20 91 14 19 	lds	r18, 0x1914	; 0x801914 <_index.1885>
    8c82:	30 e0       	ldi	r19, 0x00	; 0
    8c84:	80 91 17 19 	lds	r24, 0x1917	; 0x801917 <_twiMessageLen>
    8c88:	90 e0       	ldi	r25, 0x00	; 0
    8c8a:	01 97       	sbiw	r24, 0x01	; 1
    8c8c:	28 17       	cp	r18, r24
    8c8e:	39 07       	cpc	r19, r25
    8c90:	24 f4       	brge	.+8      	; 0x8c9a <__vector_39+0xda>
    8c92:	85 ec       	ldi	r24, 0xC5	; 197
    8c94:	80 93 bc 00 	sts	0x00BC, r24	; 0x8000bc <__TEXT_REGION_LENGTH__+0x7c00bc>
    8c98:	3d c0       	rjmp	.+122    	; 0x8d14 <__vector_39+0x154>
    8c9a:	85 e8       	ldi	r24, 0x85	; 133
    8c9c:	80 93 bc 00 	sts	0x00BC, r24	; 0x8000bc <__TEXT_REGION_LENGTH__+0x7c00bc>
    8ca0:	39 c0       	rjmp	.+114    	; 0x8d14 <__vector_39+0x154>
    8ca2:	80 91 bb 00 	lds	r24, 0x00BB	; 0x8000bb <__TEXT_REGION_LENGTH__+0x7c00bb>
    8ca6:	e0 91 14 19 	lds	r30, 0x1914	; 0x801914 <_index.1885>
    8caa:	f0 e0       	ldi	r31, 0x00	; 0
    8cac:	e8 5e       	subi	r30, 0xE8	; 232
    8cae:	f6 4e       	sbci	r31, 0xE6	; 230
    8cb0:	80 83       	st	Z, r24
    8cb2:	84 e9       	ldi	r24, 0x94	; 148
    8cb4:	80 93 bc 00 	sts	0x00BC, r24	; 0x8000bc <__TEXT_REGION_LENGTH__+0x7c00bc>
    8cb8:	80 91 15 19 	lds	r24, 0x1915	; 0x801915 <_twiCurrentHandler>
    8cbc:	90 91 16 19 	lds	r25, 0x1916	; 0x801916 <_twiCurrentHandler+0x1>
    8cc0:	dc 01       	movw	r26, r24
    8cc2:	12 96       	adiw	r26, 0x02	; 2
    8cc4:	ed 91       	ld	r30, X+
    8cc6:	fc 91       	ld	r31, X
    8cc8:	13 97       	sbiw	r26, 0x03	; 3
    8cca:	30 97       	sbiw	r30, 0x00	; 0
    8ccc:	19 f1       	breq	.+70     	; 0x8d14 <__vector_39+0x154>
    8cce:	20 91 17 19 	lds	r18, 0x1917	; 0x801917 <_twiMessageLen>
    8cd2:	48 e1       	ldi	r20, 0x18	; 24
    8cd4:	59 e1       	ldi	r21, 0x19	; 25
    8cd6:	65 e0       	ldi	r22, 0x05	; 5
    8cd8:	19 95       	eicall
    8cda:	1c c0       	rjmp	.+56     	; 0x8d14 <__vector_39+0x154>
    8cdc:	85 ea       	ldi	r24, 0xA5	; 165
    8cde:	80 93 bc 00 	sts	0x00BC, r24	; 0x8000bc <__TEXT_REGION_LENGTH__+0x7c00bc>
    8ce2:	18 c0       	rjmp	.+48     	; 0x8d14 <__vector_39+0x154>
    8ce4:	80 91 b9 00 	lds	r24, 0x00B9	; 0x8000b9 <__TEXT_REGION_LENGTH__+0x7c00b9>
    8ce8:	80 93 21 02 	sts	0x0221, r24	; 0x800221 <_twiCurrentState>
    8cec:	84 e0       	ldi	r24, 0x04	; 4
    8cee:	80 93 bc 00 	sts	0x00BC, r24	; 0x8000bc <__TEXT_REGION_LENGTH__+0x7c00bc>
    8cf2:	80 91 15 19 	lds	r24, 0x1915	; 0x801915 <_twiCurrentHandler>
    8cf6:	90 91 16 19 	lds	r25, 0x1916	; 0x801916 <_twiCurrentHandler+0x1>
    8cfa:	dc 01       	movw	r26, r24
    8cfc:	12 96       	adiw	r26, 0x02	; 2
    8cfe:	ed 91       	ld	r30, X+
    8d00:	fc 91       	ld	r31, X
    8d02:	13 97       	sbiw	r26, 0x03	; 3
    8d04:	30 97       	sbiw	r30, 0x00	; 0
    8d06:	31 f0       	breq	.+12     	; 0x8d14 <__vector_39+0x154>
    8d08:	20 e0       	ldi	r18, 0x00	; 0
    8d0a:	40 e0       	ldi	r20, 0x00	; 0
    8d0c:	50 e0       	ldi	r21, 0x00	; 0
    8d0e:	60 91 21 02 	lds	r22, 0x0221	; 0x800221 <_twiCurrentState>
    8d12:	19 95       	eicall
    8d14:	ff 91       	pop	r31
    8d16:	ef 91       	pop	r30
    8d18:	bf 91       	pop	r27
    8d1a:	af 91       	pop	r26
    8d1c:	9f 91       	pop	r25
    8d1e:	8f 91       	pop	r24
    8d20:	7f 91       	pop	r23
    8d22:	6f 91       	pop	r22
    8d24:	5f 91       	pop	r21
    8d26:	4f 91       	pop	r20
    8d28:	3f 91       	pop	r19
    8d2a:	2f 91       	pop	r18
    8d2c:	0f 90       	pop	r0
    8d2e:	0b be       	out	0x3b, r0	; 59
    8d30:	0f 90       	pop	r0
    8d32:	0f be       	out	0x3f, r0	; 63
    8d34:	0f 90       	pop	r0
    8d36:	1f 90       	pop	r1
    8d38:	18 95       	reti

00008d3a <fifo_init>:
    8d3a:	fc 01       	movw	r30, r24
    8d3c:	41 11       	cpse	r20, r1
    8d3e:	01 c0       	rjmp	.+2      	; 0x8d42 <fifo_init+0x8>
    8d40:	84 d2       	rcall	.+1288   	; 0x924a <abort>
    8d42:	84 2f       	mov	r24, r20
    8d44:	90 e0       	ldi	r25, 0x00	; 0
    8d46:	9c 01       	movw	r18, r24
    8d48:	21 50       	subi	r18, 0x01	; 1
    8d4a:	31 09       	sbc	r19, r1
    8d4c:	82 23       	and	r24, r18
    8d4e:	93 23       	and	r25, r19
    8d50:	89 2b       	or	r24, r25
    8d52:	09 f0       	breq	.+2      	; 0x8d56 <fifo_init+0x1c>
    8d54:	7a d2       	rcall	.+1268   	; 0x924a <abort>
    8d56:	41 38       	cpi	r20, 0x81	; 129
    8d58:	08 f0       	brcs	.+2      	; 0x8d5c <fifo_init+0x22>
    8d5a:	77 d2       	rcall	.+1262   	; 0x924a <abort>
    8d5c:	12 82       	std	Z+2, r1	; 0x02
    8d5e:	13 82       	std	Z+3, r1	; 0x03
    8d60:	44 83       	std	Z+4, r20	; 0x04
    8d62:	44 0f       	add	r20, r20
    8d64:	41 50       	subi	r20, 0x01	; 1
    8d66:	45 83       	std	Z+5, r20	; 0x05
    8d68:	71 83       	std	Z+1, r23	; 0x01
    8d6a:	60 83       	st	Z, r22
    8d6c:	80 e0       	ldi	r24, 0x00	; 0
    8d6e:	90 e0       	ldi	r25, 0x00	; 0
    8d70:	08 95       	ret

00008d72 <__subsf3>:
    8d72:	50 58       	subi	r21, 0x80	; 128

00008d74 <__addsf3>:
    8d74:	bb 27       	eor	r27, r27
    8d76:	aa 27       	eor	r26, r26
    8d78:	13 d0       	rcall	.+38     	; 0x8da0 <__addsf3x>
    8d7a:	0c 94 90 39 	jmp	0x7320	; 0x7320 <__fp_round>
    8d7e:	0e 94 82 39 	call	0x7304	; 0x7304 <__fp_pscA>
    8d82:	38 f0       	brcs	.+14     	; 0x8d92 <__addsf3+0x1e>
    8d84:	0e 94 89 39 	call	0x7312	; 0x7312 <__fp_pscB>
    8d88:	20 f0       	brcs	.+8      	; 0x8d92 <__addsf3+0x1e>
    8d8a:	39 f4       	brne	.+14     	; 0x8d9a <__addsf3+0x26>
    8d8c:	9f 3f       	cpi	r25, 0xFF	; 255
    8d8e:	19 f4       	brne	.+6      	; 0x8d96 <__addsf3+0x22>
    8d90:	26 f4       	brtc	.+8      	; 0x8d9a <__addsf3+0x26>
    8d92:	0c 94 7f 39 	jmp	0x72fe	; 0x72fe <__fp_nan>
    8d96:	0e f4       	brtc	.+2      	; 0x8d9a <__addsf3+0x26>
    8d98:	e0 95       	com	r30
    8d9a:	e7 fb       	bst	r30, 7
    8d9c:	0c 94 79 39 	jmp	0x72f2	; 0x72f2 <__fp_inf>

00008da0 <__addsf3x>:
    8da0:	e9 2f       	mov	r30, r25
    8da2:	0e 94 e9 38 	call	0x71d2	; 0x71d2 <__fp_split3>
    8da6:	58 f3       	brcs	.-42     	; 0x8d7e <__addsf3+0xa>
    8da8:	ba 17       	cp	r27, r26
    8daa:	62 07       	cpc	r22, r18
    8dac:	73 07       	cpc	r23, r19
    8dae:	84 07       	cpc	r24, r20
    8db0:	95 07       	cpc	r25, r21
    8db2:	20 f0       	brcs	.+8      	; 0x8dbc <__addsf3x+0x1c>
    8db4:	79 f4       	brne	.+30     	; 0x8dd4 <__addsf3x+0x34>
    8db6:	a6 f5       	brtc	.+104    	; 0x8e20 <__addsf3x+0x80>
    8db8:	0c 94 0b 39 	jmp	0x7216	; 0x7216 <__fp_zero>
    8dbc:	0e f4       	brtc	.+2      	; 0x8dc0 <__addsf3x+0x20>
    8dbe:	e0 95       	com	r30
    8dc0:	0b 2e       	mov	r0, r27
    8dc2:	ba 2f       	mov	r27, r26
    8dc4:	a0 2d       	mov	r26, r0
    8dc6:	0b 01       	movw	r0, r22
    8dc8:	b9 01       	movw	r22, r18
    8dca:	90 01       	movw	r18, r0
    8dcc:	0c 01       	movw	r0, r24
    8dce:	ca 01       	movw	r24, r20
    8dd0:	a0 01       	movw	r20, r0
    8dd2:	11 24       	eor	r1, r1
    8dd4:	ff 27       	eor	r31, r31
    8dd6:	59 1b       	sub	r21, r25
    8dd8:	99 f0       	breq	.+38     	; 0x8e00 <__addsf3x+0x60>
    8dda:	59 3f       	cpi	r21, 0xF9	; 249
    8ddc:	50 f4       	brcc	.+20     	; 0x8df2 <__addsf3x+0x52>
    8dde:	50 3e       	cpi	r21, 0xE0	; 224
    8de0:	68 f1       	brcs	.+90     	; 0x8e3c <__addsf3x+0x9c>
    8de2:	1a 16       	cp	r1, r26
    8de4:	f0 40       	sbci	r31, 0x00	; 0
    8de6:	a2 2f       	mov	r26, r18
    8de8:	23 2f       	mov	r18, r19
    8dea:	34 2f       	mov	r19, r20
    8dec:	44 27       	eor	r20, r20
    8dee:	58 5f       	subi	r21, 0xF8	; 248
    8df0:	f3 cf       	rjmp	.-26     	; 0x8dd8 <__addsf3x+0x38>
    8df2:	46 95       	lsr	r20
    8df4:	37 95       	ror	r19
    8df6:	27 95       	ror	r18
    8df8:	a7 95       	ror	r26
    8dfa:	f0 40       	sbci	r31, 0x00	; 0
    8dfc:	53 95       	inc	r21
    8dfe:	c9 f7       	brne	.-14     	; 0x8df2 <__addsf3x+0x52>
    8e00:	7e f4       	brtc	.+30     	; 0x8e20 <__addsf3x+0x80>
    8e02:	1f 16       	cp	r1, r31
    8e04:	ba 0b       	sbc	r27, r26
    8e06:	62 0b       	sbc	r22, r18
    8e08:	73 0b       	sbc	r23, r19
    8e0a:	84 0b       	sbc	r24, r20
    8e0c:	ba f0       	brmi	.+46     	; 0x8e3c <__addsf3x+0x9c>
    8e0e:	91 50       	subi	r25, 0x01	; 1
    8e10:	a1 f0       	breq	.+40     	; 0x8e3a <__addsf3x+0x9a>
    8e12:	ff 0f       	add	r31, r31
    8e14:	bb 1f       	adc	r27, r27
    8e16:	66 1f       	adc	r22, r22
    8e18:	77 1f       	adc	r23, r23
    8e1a:	88 1f       	adc	r24, r24
    8e1c:	c2 f7       	brpl	.-16     	; 0x8e0e <__addsf3x+0x6e>
    8e1e:	0e c0       	rjmp	.+28     	; 0x8e3c <__addsf3x+0x9c>
    8e20:	ba 0f       	add	r27, r26
    8e22:	62 1f       	adc	r22, r18
    8e24:	73 1f       	adc	r23, r19
    8e26:	84 1f       	adc	r24, r20
    8e28:	48 f4       	brcc	.+18     	; 0x8e3c <__addsf3x+0x9c>
    8e2a:	87 95       	ror	r24
    8e2c:	77 95       	ror	r23
    8e2e:	67 95       	ror	r22
    8e30:	b7 95       	ror	r27
    8e32:	f7 95       	ror	r31
    8e34:	9e 3f       	cpi	r25, 0xFE	; 254
    8e36:	08 f0       	brcs	.+2      	; 0x8e3a <__addsf3x+0x9a>
    8e38:	b0 cf       	rjmp	.-160    	; 0x8d9a <__addsf3+0x26>
    8e3a:	93 95       	inc	r25
    8e3c:	88 0f       	add	r24, r24
    8e3e:	08 f0       	brcs	.+2      	; 0x8e42 <__addsf3x+0xa2>
    8e40:	99 27       	eor	r25, r25
    8e42:	ee 0f       	add	r30, r30
    8e44:	97 95       	ror	r25
    8e46:	87 95       	ror	r24
    8e48:	08 95       	ret

00008e4a <__divsf3>:
    8e4a:	12 d0       	rcall	.+36     	; 0x8e70 <__divsf3x>
    8e4c:	0c 94 90 39 	jmp	0x7320	; 0x7320 <__fp_round>
    8e50:	0e 94 89 39 	call	0x7312	; 0x7312 <__fp_pscB>
    8e54:	58 f0       	brcs	.+22     	; 0x8e6c <__divsf3+0x22>
    8e56:	0e 94 82 39 	call	0x7304	; 0x7304 <__fp_pscA>
    8e5a:	40 f0       	brcs	.+16     	; 0x8e6c <__divsf3+0x22>
    8e5c:	29 f4       	brne	.+10     	; 0x8e68 <__divsf3+0x1e>
    8e5e:	5f 3f       	cpi	r21, 0xFF	; 255
    8e60:	29 f0       	breq	.+10     	; 0x8e6c <__divsf3+0x22>
    8e62:	0c 94 79 39 	jmp	0x72f2	; 0x72f2 <__fp_inf>
    8e66:	51 11       	cpse	r21, r1
    8e68:	0c 94 0c 39 	jmp	0x7218	; 0x7218 <__fp_szero>
    8e6c:	0c 94 7f 39 	jmp	0x72fe	; 0x72fe <__fp_nan>

00008e70 <__divsf3x>:
    8e70:	0e 94 e9 38 	call	0x71d2	; 0x71d2 <__fp_split3>
    8e74:	68 f3       	brcs	.-38     	; 0x8e50 <__divsf3+0x6>

00008e76 <__divsf3_pse>:
    8e76:	99 23       	and	r25, r25
    8e78:	b1 f3       	breq	.-20     	; 0x8e66 <__divsf3+0x1c>
    8e7a:	55 23       	and	r21, r21
    8e7c:	91 f3       	breq	.-28     	; 0x8e62 <__divsf3+0x18>
    8e7e:	95 1b       	sub	r25, r21
    8e80:	55 0b       	sbc	r21, r21
    8e82:	bb 27       	eor	r27, r27
    8e84:	aa 27       	eor	r26, r26
    8e86:	62 17       	cp	r22, r18
    8e88:	73 07       	cpc	r23, r19
    8e8a:	84 07       	cpc	r24, r20
    8e8c:	38 f0       	brcs	.+14     	; 0x8e9c <__divsf3_pse+0x26>
    8e8e:	9f 5f       	subi	r25, 0xFF	; 255
    8e90:	5f 4f       	sbci	r21, 0xFF	; 255
    8e92:	22 0f       	add	r18, r18
    8e94:	33 1f       	adc	r19, r19
    8e96:	44 1f       	adc	r20, r20
    8e98:	aa 1f       	adc	r26, r26
    8e9a:	a9 f3       	breq	.-22     	; 0x8e86 <__divsf3_pse+0x10>
    8e9c:	35 d0       	rcall	.+106    	; 0x8f08 <__divsf3_pse+0x92>
    8e9e:	0e 2e       	mov	r0, r30
    8ea0:	3a f0       	brmi	.+14     	; 0x8eb0 <__divsf3_pse+0x3a>
    8ea2:	e0 e8       	ldi	r30, 0x80	; 128
    8ea4:	32 d0       	rcall	.+100    	; 0x8f0a <__divsf3_pse+0x94>
    8ea6:	91 50       	subi	r25, 0x01	; 1
    8ea8:	50 40       	sbci	r21, 0x00	; 0
    8eaa:	e6 95       	lsr	r30
    8eac:	00 1c       	adc	r0, r0
    8eae:	ca f7       	brpl	.-14     	; 0x8ea2 <__divsf3_pse+0x2c>
    8eb0:	2b d0       	rcall	.+86     	; 0x8f08 <__divsf3_pse+0x92>
    8eb2:	fe 2f       	mov	r31, r30
    8eb4:	29 d0       	rcall	.+82     	; 0x8f08 <__divsf3_pse+0x92>
    8eb6:	66 0f       	add	r22, r22
    8eb8:	77 1f       	adc	r23, r23
    8eba:	88 1f       	adc	r24, r24
    8ebc:	bb 1f       	adc	r27, r27
    8ebe:	26 17       	cp	r18, r22
    8ec0:	37 07       	cpc	r19, r23
    8ec2:	48 07       	cpc	r20, r24
    8ec4:	ab 07       	cpc	r26, r27
    8ec6:	b0 e8       	ldi	r27, 0x80	; 128
    8ec8:	09 f0       	breq	.+2      	; 0x8ecc <__divsf3_pse+0x56>
    8eca:	bb 0b       	sbc	r27, r27
    8ecc:	80 2d       	mov	r24, r0
    8ece:	bf 01       	movw	r22, r30
    8ed0:	ff 27       	eor	r31, r31
    8ed2:	93 58       	subi	r25, 0x83	; 131
    8ed4:	5f 4f       	sbci	r21, 0xFF	; 255
    8ed6:	3a f0       	brmi	.+14     	; 0x8ee6 <__divsf3_pse+0x70>
    8ed8:	9e 3f       	cpi	r25, 0xFE	; 254
    8eda:	51 05       	cpc	r21, r1
    8edc:	78 f0       	brcs	.+30     	; 0x8efc <__divsf3_pse+0x86>
    8ede:	0c 94 79 39 	jmp	0x72f2	; 0x72f2 <__fp_inf>
    8ee2:	0c 94 0c 39 	jmp	0x7218	; 0x7218 <__fp_szero>
    8ee6:	5f 3f       	cpi	r21, 0xFF	; 255
    8ee8:	e4 f3       	brlt	.-8      	; 0x8ee2 <__divsf3_pse+0x6c>
    8eea:	98 3e       	cpi	r25, 0xE8	; 232
    8eec:	d4 f3       	brlt	.-12     	; 0x8ee2 <__divsf3_pse+0x6c>
    8eee:	86 95       	lsr	r24
    8ef0:	77 95       	ror	r23
    8ef2:	67 95       	ror	r22
    8ef4:	b7 95       	ror	r27
    8ef6:	f7 95       	ror	r31
    8ef8:	9f 5f       	subi	r25, 0xFF	; 255
    8efa:	c9 f7       	brne	.-14     	; 0x8eee <__divsf3_pse+0x78>
    8efc:	88 0f       	add	r24, r24
    8efe:	91 1d       	adc	r25, r1
    8f00:	96 95       	lsr	r25
    8f02:	87 95       	ror	r24
    8f04:	97 f9       	bld	r25, 7
    8f06:	08 95       	ret
    8f08:	e1 e0       	ldi	r30, 0x01	; 1
    8f0a:	66 0f       	add	r22, r22
    8f0c:	77 1f       	adc	r23, r23
    8f0e:	88 1f       	adc	r24, r24
    8f10:	bb 1f       	adc	r27, r27
    8f12:	62 17       	cp	r22, r18
    8f14:	73 07       	cpc	r23, r19
    8f16:	84 07       	cpc	r24, r20
    8f18:	ba 07       	cpc	r27, r26
    8f1a:	20 f0       	brcs	.+8      	; 0x8f24 <__divsf3_pse+0xae>
    8f1c:	62 1b       	sub	r22, r18
    8f1e:	73 0b       	sbc	r23, r19
    8f20:	84 0b       	sbc	r24, r20
    8f22:	ba 0b       	sbc	r27, r26
    8f24:	ee 1f       	adc	r30, r30
    8f26:	88 f7       	brcc	.-30     	; 0x8f0a <__divsf3_pse+0x94>
    8f28:	e0 95       	com	r30
    8f2a:	08 95       	ret

00008f2c <__fixsfsi>:
    8f2c:	0e 94 99 38 	call	0x7132	; 0x7132 <__fixunssfsi>
    8f30:	68 94       	set
    8f32:	b1 11       	cpse	r27, r1
    8f34:	0c 94 0c 39 	jmp	0x7218	; 0x7218 <__fp_szero>
    8f38:	08 95       	ret

00008f3a <__floatunsisf>:
    8f3a:	e8 94       	clt
    8f3c:	09 c0       	rjmp	.+18     	; 0x8f50 <__floatsisf+0x12>

00008f3e <__floatsisf>:
    8f3e:	97 fb       	bst	r25, 7
    8f40:	3e f4       	brtc	.+14     	; 0x8f50 <__floatsisf+0x12>
    8f42:	90 95       	com	r25
    8f44:	80 95       	com	r24
    8f46:	70 95       	com	r23
    8f48:	61 95       	neg	r22
    8f4a:	7f 4f       	sbci	r23, 0xFF	; 255
    8f4c:	8f 4f       	sbci	r24, 0xFF	; 255
    8f4e:	9f 4f       	sbci	r25, 0xFF	; 255
    8f50:	99 23       	and	r25, r25
    8f52:	a9 f0       	breq	.+42     	; 0x8f7e <__floatsisf+0x40>
    8f54:	f9 2f       	mov	r31, r25
    8f56:	96 e9       	ldi	r25, 0x96	; 150
    8f58:	bb 27       	eor	r27, r27
    8f5a:	93 95       	inc	r25
    8f5c:	f6 95       	lsr	r31
    8f5e:	87 95       	ror	r24
    8f60:	77 95       	ror	r23
    8f62:	67 95       	ror	r22
    8f64:	b7 95       	ror	r27
    8f66:	f1 11       	cpse	r31, r1
    8f68:	f8 cf       	rjmp	.-16     	; 0x8f5a <__floatsisf+0x1c>
    8f6a:	fa f4       	brpl	.+62     	; 0x8faa <__floatsisf+0x6c>
    8f6c:	bb 0f       	add	r27, r27
    8f6e:	11 f4       	brne	.+4      	; 0x8f74 <__floatsisf+0x36>
    8f70:	60 ff       	sbrs	r22, 0
    8f72:	1b c0       	rjmp	.+54     	; 0x8faa <__floatsisf+0x6c>
    8f74:	6f 5f       	subi	r22, 0xFF	; 255
    8f76:	7f 4f       	sbci	r23, 0xFF	; 255
    8f78:	8f 4f       	sbci	r24, 0xFF	; 255
    8f7a:	9f 4f       	sbci	r25, 0xFF	; 255
    8f7c:	16 c0       	rjmp	.+44     	; 0x8faa <__floatsisf+0x6c>
    8f7e:	88 23       	and	r24, r24
    8f80:	11 f0       	breq	.+4      	; 0x8f86 <__floatsisf+0x48>
    8f82:	96 e9       	ldi	r25, 0x96	; 150
    8f84:	11 c0       	rjmp	.+34     	; 0x8fa8 <__floatsisf+0x6a>
    8f86:	77 23       	and	r23, r23
    8f88:	21 f0       	breq	.+8      	; 0x8f92 <__floatsisf+0x54>
    8f8a:	9e e8       	ldi	r25, 0x8E	; 142
    8f8c:	87 2f       	mov	r24, r23
    8f8e:	76 2f       	mov	r23, r22
    8f90:	05 c0       	rjmp	.+10     	; 0x8f9c <__floatsisf+0x5e>
    8f92:	66 23       	and	r22, r22
    8f94:	71 f0       	breq	.+28     	; 0x8fb2 <__floatsisf+0x74>
    8f96:	96 e8       	ldi	r25, 0x86	; 134
    8f98:	86 2f       	mov	r24, r22
    8f9a:	70 e0       	ldi	r23, 0x00	; 0
    8f9c:	60 e0       	ldi	r22, 0x00	; 0
    8f9e:	2a f0       	brmi	.+10     	; 0x8faa <__floatsisf+0x6c>
    8fa0:	9a 95       	dec	r25
    8fa2:	66 0f       	add	r22, r22
    8fa4:	77 1f       	adc	r23, r23
    8fa6:	88 1f       	adc	r24, r24
    8fa8:	da f7       	brpl	.-10     	; 0x8fa0 <__floatsisf+0x62>
    8faa:	88 0f       	add	r24, r24
    8fac:	96 95       	lsr	r25
    8fae:	87 95       	ror	r24
    8fb0:	97 f9       	bld	r25, 7
    8fb2:	08 95       	ret

00008fb4 <__udivmodsi4>:
    8fb4:	a1 e2       	ldi	r26, 0x21	; 33
    8fb6:	1a 2e       	mov	r1, r26
    8fb8:	aa 1b       	sub	r26, r26
    8fba:	bb 1b       	sub	r27, r27
    8fbc:	fd 01       	movw	r30, r26
    8fbe:	0d c0       	rjmp	.+26     	; 0x8fda <__udivmodsi4_ep>

00008fc0 <__udivmodsi4_loop>:
    8fc0:	aa 1f       	adc	r26, r26
    8fc2:	bb 1f       	adc	r27, r27
    8fc4:	ee 1f       	adc	r30, r30
    8fc6:	ff 1f       	adc	r31, r31
    8fc8:	a2 17       	cp	r26, r18
    8fca:	b3 07       	cpc	r27, r19
    8fcc:	e4 07       	cpc	r30, r20
    8fce:	f5 07       	cpc	r31, r21
    8fd0:	20 f0       	brcs	.+8      	; 0x8fda <__udivmodsi4_ep>
    8fd2:	a2 1b       	sub	r26, r18
    8fd4:	b3 0b       	sbc	r27, r19
    8fd6:	e4 0b       	sbc	r30, r20
    8fd8:	f5 0b       	sbc	r31, r21

00008fda <__udivmodsi4_ep>:
    8fda:	66 1f       	adc	r22, r22
    8fdc:	77 1f       	adc	r23, r23
    8fde:	88 1f       	adc	r24, r24
    8fe0:	99 1f       	adc	r25, r25
    8fe2:	1a 94       	dec	r1
    8fe4:	69 f7       	brne	.-38     	; 0x8fc0 <__udivmodsi4_loop>
    8fe6:	60 95       	com	r22
    8fe8:	70 95       	com	r23
    8fea:	80 95       	com	r24
    8fec:	90 95       	com	r25
    8fee:	9b 01       	movw	r18, r22
    8ff0:	ac 01       	movw	r20, r24
    8ff2:	bd 01       	movw	r22, r26
    8ff4:	cf 01       	movw	r24, r30
    8ff6:	08 95       	ret

00008ff8 <__tablejump2__>:
    8ff8:	ee 0f       	add	r30, r30
    8ffa:	ff 1f       	adc	r31, r31
    8ffc:	88 1f       	adc	r24, r24
    8ffe:	8b bf       	out	0x3b, r24	; 59
    9000:	07 90       	elpm	r0, Z+
    9002:	f6 91       	elpm	r31, Z
    9004:	e0 2d       	mov	r30, r0
    9006:	19 94       	eijmp

00009008 <malloc>:
    9008:	0f 93       	push	r16
    900a:	1f 93       	push	r17
    900c:	cf 93       	push	r28
    900e:	df 93       	push	r29
    9010:	82 30       	cpi	r24, 0x02	; 2
    9012:	91 05       	cpc	r25, r1
    9014:	10 f4       	brcc	.+4      	; 0x901a <malloc+0x12>
    9016:	82 e0       	ldi	r24, 0x02	; 2
    9018:	90 e0       	ldi	r25, 0x00	; 0
    901a:	e0 91 4c 19 	lds	r30, 0x194C	; 0x80194c <__flp>
    901e:	f0 91 4d 19 	lds	r31, 0x194D	; 0x80194d <__flp+0x1>
    9022:	20 e0       	ldi	r18, 0x00	; 0
    9024:	30 e0       	ldi	r19, 0x00	; 0
    9026:	a0 e0       	ldi	r26, 0x00	; 0
    9028:	b0 e0       	ldi	r27, 0x00	; 0
    902a:	30 97       	sbiw	r30, 0x00	; 0
    902c:	19 f1       	breq	.+70     	; 0x9074 <malloc+0x6c>
    902e:	40 81       	ld	r20, Z
    9030:	51 81       	ldd	r21, Z+1	; 0x01
    9032:	02 81       	ldd	r16, Z+2	; 0x02
    9034:	13 81       	ldd	r17, Z+3	; 0x03
    9036:	48 17       	cp	r20, r24
    9038:	59 07       	cpc	r21, r25
    903a:	c8 f0       	brcs	.+50     	; 0x906e <malloc+0x66>
    903c:	84 17       	cp	r24, r20
    903e:	95 07       	cpc	r25, r21
    9040:	69 f4       	brne	.+26     	; 0x905c <malloc+0x54>
    9042:	10 97       	sbiw	r26, 0x00	; 0
    9044:	31 f0       	breq	.+12     	; 0x9052 <malloc+0x4a>
    9046:	12 96       	adiw	r26, 0x02	; 2
    9048:	0c 93       	st	X, r16
    904a:	12 97       	sbiw	r26, 0x02	; 2
    904c:	13 96       	adiw	r26, 0x03	; 3
    904e:	1c 93       	st	X, r17
    9050:	27 c0       	rjmp	.+78     	; 0x90a0 <malloc+0x98>
    9052:	00 93 4c 19 	sts	0x194C, r16	; 0x80194c <__flp>
    9056:	10 93 4d 19 	sts	0x194D, r17	; 0x80194d <__flp+0x1>
    905a:	22 c0       	rjmp	.+68     	; 0x90a0 <malloc+0x98>
    905c:	21 15       	cp	r18, r1
    905e:	31 05       	cpc	r19, r1
    9060:	19 f0       	breq	.+6      	; 0x9068 <malloc+0x60>
    9062:	42 17       	cp	r20, r18
    9064:	53 07       	cpc	r21, r19
    9066:	18 f4       	brcc	.+6      	; 0x906e <malloc+0x66>
    9068:	9a 01       	movw	r18, r20
    906a:	bd 01       	movw	r22, r26
    906c:	ef 01       	movw	r28, r30
    906e:	df 01       	movw	r26, r30
    9070:	f8 01       	movw	r30, r16
    9072:	db cf       	rjmp	.-74     	; 0x902a <malloc+0x22>
    9074:	21 15       	cp	r18, r1
    9076:	31 05       	cpc	r19, r1
    9078:	f9 f0       	breq	.+62     	; 0x90b8 <malloc+0xb0>
    907a:	28 1b       	sub	r18, r24
    907c:	39 0b       	sbc	r19, r25
    907e:	24 30       	cpi	r18, 0x04	; 4
    9080:	31 05       	cpc	r19, r1
    9082:	80 f4       	brcc	.+32     	; 0x90a4 <malloc+0x9c>
    9084:	8a 81       	ldd	r24, Y+2	; 0x02
    9086:	9b 81       	ldd	r25, Y+3	; 0x03
    9088:	61 15       	cp	r22, r1
    908a:	71 05       	cpc	r23, r1
    908c:	21 f0       	breq	.+8      	; 0x9096 <malloc+0x8e>
    908e:	fb 01       	movw	r30, r22
    9090:	93 83       	std	Z+3, r25	; 0x03
    9092:	82 83       	std	Z+2, r24	; 0x02
    9094:	04 c0       	rjmp	.+8      	; 0x909e <malloc+0x96>
    9096:	90 93 4d 19 	sts	0x194D, r25	; 0x80194d <__flp+0x1>
    909a:	80 93 4c 19 	sts	0x194C, r24	; 0x80194c <__flp>
    909e:	fe 01       	movw	r30, r28
    90a0:	32 96       	adiw	r30, 0x02	; 2
    90a2:	44 c0       	rjmp	.+136    	; 0x912c <malloc+0x124>
    90a4:	fe 01       	movw	r30, r28
    90a6:	e2 0f       	add	r30, r18
    90a8:	f3 1f       	adc	r31, r19
    90aa:	81 93       	st	Z+, r24
    90ac:	91 93       	st	Z+, r25
    90ae:	22 50       	subi	r18, 0x02	; 2
    90b0:	31 09       	sbc	r19, r1
    90b2:	39 83       	std	Y+1, r19	; 0x01
    90b4:	28 83       	st	Y, r18
    90b6:	3a c0       	rjmp	.+116    	; 0x912c <malloc+0x124>
    90b8:	20 91 4a 19 	lds	r18, 0x194A	; 0x80194a <__brkval>
    90bc:	30 91 4b 19 	lds	r19, 0x194B	; 0x80194b <__brkval+0x1>
    90c0:	23 2b       	or	r18, r19
    90c2:	41 f4       	brne	.+16     	; 0x90d4 <malloc+0xcc>
    90c4:	20 91 02 02 	lds	r18, 0x0202	; 0x800202 <__malloc_heap_start>
    90c8:	30 91 03 02 	lds	r19, 0x0203	; 0x800203 <__malloc_heap_start+0x1>
    90cc:	30 93 4b 19 	sts	0x194B, r19	; 0x80194b <__brkval+0x1>
    90d0:	20 93 4a 19 	sts	0x194A, r18	; 0x80194a <__brkval>
    90d4:	20 91 00 02 	lds	r18, 0x0200	; 0x800200 <__DATA_REGION_ORIGIN__>
    90d8:	30 91 01 02 	lds	r19, 0x0201	; 0x800201 <__DATA_REGION_ORIGIN__+0x1>
    90dc:	21 15       	cp	r18, r1
    90de:	31 05       	cpc	r19, r1
    90e0:	41 f4       	brne	.+16     	; 0x90f2 <malloc+0xea>
    90e2:	2d b7       	in	r18, 0x3d	; 61
    90e4:	3e b7       	in	r19, 0x3e	; 62
    90e6:	40 91 04 02 	lds	r20, 0x0204	; 0x800204 <__malloc_margin>
    90ea:	50 91 05 02 	lds	r21, 0x0205	; 0x800205 <__malloc_margin+0x1>
    90ee:	24 1b       	sub	r18, r20
    90f0:	35 0b       	sbc	r19, r21
    90f2:	e0 91 4a 19 	lds	r30, 0x194A	; 0x80194a <__brkval>
    90f6:	f0 91 4b 19 	lds	r31, 0x194B	; 0x80194b <__brkval+0x1>
    90fa:	e2 17       	cp	r30, r18
    90fc:	f3 07       	cpc	r31, r19
    90fe:	a0 f4       	brcc	.+40     	; 0x9128 <malloc+0x120>
    9100:	2e 1b       	sub	r18, r30
    9102:	3f 0b       	sbc	r19, r31
    9104:	28 17       	cp	r18, r24
    9106:	39 07       	cpc	r19, r25
    9108:	78 f0       	brcs	.+30     	; 0x9128 <malloc+0x120>
    910a:	ac 01       	movw	r20, r24
    910c:	4e 5f       	subi	r20, 0xFE	; 254
    910e:	5f 4f       	sbci	r21, 0xFF	; 255
    9110:	24 17       	cp	r18, r20
    9112:	35 07       	cpc	r19, r21
    9114:	48 f0       	brcs	.+18     	; 0x9128 <malloc+0x120>
    9116:	4e 0f       	add	r20, r30
    9118:	5f 1f       	adc	r21, r31
    911a:	50 93 4b 19 	sts	0x194B, r21	; 0x80194b <__brkval+0x1>
    911e:	40 93 4a 19 	sts	0x194A, r20	; 0x80194a <__brkval>
    9122:	81 93       	st	Z+, r24
    9124:	91 93       	st	Z+, r25
    9126:	02 c0       	rjmp	.+4      	; 0x912c <malloc+0x124>
    9128:	e0 e0       	ldi	r30, 0x00	; 0
    912a:	f0 e0       	ldi	r31, 0x00	; 0
    912c:	cf 01       	movw	r24, r30
    912e:	df 91       	pop	r29
    9130:	cf 91       	pop	r28
    9132:	1f 91       	pop	r17
    9134:	0f 91       	pop	r16
    9136:	08 95       	ret

00009138 <free>:
    9138:	cf 93       	push	r28
    913a:	df 93       	push	r29
    913c:	00 97       	sbiw	r24, 0x00	; 0
    913e:	09 f4       	brne	.+2      	; 0x9142 <free+0xa>
    9140:	81 c0       	rjmp	.+258    	; 0x9244 <free+0x10c>
    9142:	fc 01       	movw	r30, r24
    9144:	32 97       	sbiw	r30, 0x02	; 2
    9146:	13 82       	std	Z+3, r1	; 0x03
    9148:	12 82       	std	Z+2, r1	; 0x02
    914a:	a0 91 4c 19 	lds	r26, 0x194C	; 0x80194c <__flp>
    914e:	b0 91 4d 19 	lds	r27, 0x194D	; 0x80194d <__flp+0x1>
    9152:	10 97       	sbiw	r26, 0x00	; 0
    9154:	81 f4       	brne	.+32     	; 0x9176 <free+0x3e>
    9156:	20 81       	ld	r18, Z
    9158:	31 81       	ldd	r19, Z+1	; 0x01
    915a:	82 0f       	add	r24, r18
    915c:	93 1f       	adc	r25, r19
    915e:	20 91 4a 19 	lds	r18, 0x194A	; 0x80194a <__brkval>
    9162:	30 91 4b 19 	lds	r19, 0x194B	; 0x80194b <__brkval+0x1>
    9166:	28 17       	cp	r18, r24
    9168:	39 07       	cpc	r19, r25
    916a:	51 f5       	brne	.+84     	; 0x91c0 <free+0x88>
    916c:	f0 93 4b 19 	sts	0x194B, r31	; 0x80194b <__brkval+0x1>
    9170:	e0 93 4a 19 	sts	0x194A, r30	; 0x80194a <__brkval>
    9174:	67 c0       	rjmp	.+206    	; 0x9244 <free+0x10c>
    9176:	ed 01       	movw	r28, r26
    9178:	20 e0       	ldi	r18, 0x00	; 0
    917a:	30 e0       	ldi	r19, 0x00	; 0
    917c:	ce 17       	cp	r28, r30
    917e:	df 07       	cpc	r29, r31
    9180:	40 f4       	brcc	.+16     	; 0x9192 <free+0x5a>
    9182:	4a 81       	ldd	r20, Y+2	; 0x02
    9184:	5b 81       	ldd	r21, Y+3	; 0x03
    9186:	9e 01       	movw	r18, r28
    9188:	41 15       	cp	r20, r1
    918a:	51 05       	cpc	r21, r1
    918c:	f1 f0       	breq	.+60     	; 0x91ca <free+0x92>
    918e:	ea 01       	movw	r28, r20
    9190:	f5 cf       	rjmp	.-22     	; 0x917c <free+0x44>
    9192:	d3 83       	std	Z+3, r29	; 0x03
    9194:	c2 83       	std	Z+2, r28	; 0x02
    9196:	40 81       	ld	r20, Z
    9198:	51 81       	ldd	r21, Z+1	; 0x01
    919a:	84 0f       	add	r24, r20
    919c:	95 1f       	adc	r25, r21
    919e:	c8 17       	cp	r28, r24
    91a0:	d9 07       	cpc	r29, r25
    91a2:	59 f4       	brne	.+22     	; 0x91ba <free+0x82>
    91a4:	88 81       	ld	r24, Y
    91a6:	99 81       	ldd	r25, Y+1	; 0x01
    91a8:	84 0f       	add	r24, r20
    91aa:	95 1f       	adc	r25, r21
    91ac:	02 96       	adiw	r24, 0x02	; 2
    91ae:	91 83       	std	Z+1, r25	; 0x01
    91b0:	80 83       	st	Z, r24
    91b2:	8a 81       	ldd	r24, Y+2	; 0x02
    91b4:	9b 81       	ldd	r25, Y+3	; 0x03
    91b6:	93 83       	std	Z+3, r25	; 0x03
    91b8:	82 83       	std	Z+2, r24	; 0x02
    91ba:	21 15       	cp	r18, r1
    91bc:	31 05       	cpc	r19, r1
    91be:	29 f4       	brne	.+10     	; 0x91ca <free+0x92>
    91c0:	f0 93 4d 19 	sts	0x194D, r31	; 0x80194d <__flp+0x1>
    91c4:	e0 93 4c 19 	sts	0x194C, r30	; 0x80194c <__flp>
    91c8:	3d c0       	rjmp	.+122    	; 0x9244 <free+0x10c>
    91ca:	e9 01       	movw	r28, r18
    91cc:	fb 83       	std	Y+3, r31	; 0x03
    91ce:	ea 83       	std	Y+2, r30	; 0x02
    91d0:	49 91       	ld	r20, Y+
    91d2:	59 91       	ld	r21, Y+
    91d4:	c4 0f       	add	r28, r20
    91d6:	d5 1f       	adc	r29, r21
    91d8:	ec 17       	cp	r30, r28
    91da:	fd 07       	cpc	r31, r29
    91dc:	61 f4       	brne	.+24     	; 0x91f6 <free+0xbe>
    91de:	80 81       	ld	r24, Z
    91e0:	91 81       	ldd	r25, Z+1	; 0x01
    91e2:	84 0f       	add	r24, r20
    91e4:	95 1f       	adc	r25, r21
    91e6:	02 96       	adiw	r24, 0x02	; 2
    91e8:	e9 01       	movw	r28, r18
    91ea:	99 83       	std	Y+1, r25	; 0x01
    91ec:	88 83       	st	Y, r24
    91ee:	82 81       	ldd	r24, Z+2	; 0x02
    91f0:	93 81       	ldd	r25, Z+3	; 0x03
    91f2:	9b 83       	std	Y+3, r25	; 0x03
    91f4:	8a 83       	std	Y+2, r24	; 0x02
    91f6:	e0 e0       	ldi	r30, 0x00	; 0
    91f8:	f0 e0       	ldi	r31, 0x00	; 0
    91fa:	12 96       	adiw	r26, 0x02	; 2
    91fc:	8d 91       	ld	r24, X+
    91fe:	9c 91       	ld	r25, X
    9200:	13 97       	sbiw	r26, 0x03	; 3
    9202:	00 97       	sbiw	r24, 0x00	; 0
    9204:	19 f0       	breq	.+6      	; 0x920c <free+0xd4>
    9206:	fd 01       	movw	r30, r26
    9208:	dc 01       	movw	r26, r24
    920a:	f7 cf       	rjmp	.-18     	; 0x91fa <free+0xc2>
    920c:	8d 91       	ld	r24, X+
    920e:	9c 91       	ld	r25, X
    9210:	11 97       	sbiw	r26, 0x01	; 1
    9212:	9d 01       	movw	r18, r26
    9214:	2e 5f       	subi	r18, 0xFE	; 254
    9216:	3f 4f       	sbci	r19, 0xFF	; 255
    9218:	82 0f       	add	r24, r18
    921a:	93 1f       	adc	r25, r19
    921c:	20 91 4a 19 	lds	r18, 0x194A	; 0x80194a <__brkval>
    9220:	30 91 4b 19 	lds	r19, 0x194B	; 0x80194b <__brkval+0x1>
    9224:	28 17       	cp	r18, r24
    9226:	39 07       	cpc	r19, r25
    9228:	69 f4       	brne	.+26     	; 0x9244 <free+0x10c>
    922a:	30 97       	sbiw	r30, 0x00	; 0
    922c:	29 f4       	brne	.+10     	; 0x9238 <free+0x100>
    922e:	10 92 4d 19 	sts	0x194D, r1	; 0x80194d <__flp+0x1>
    9232:	10 92 4c 19 	sts	0x194C, r1	; 0x80194c <__flp>
    9236:	02 c0       	rjmp	.+4      	; 0x923c <free+0x104>
    9238:	13 82       	std	Z+3, r1	; 0x03
    923a:	12 82       	std	Z+2, r1	; 0x02
    923c:	b0 93 4b 19 	sts	0x194B, r27	; 0x80194b <__brkval+0x1>
    9240:	a0 93 4a 19 	sts	0x194A, r26	; 0x80194a <__brkval>
    9244:	df 91       	pop	r29
    9246:	cf 91       	pop	r28
    9248:	08 95       	ret

0000924a <abort>:
    924a:	81 e0       	ldi	r24, 0x01	; 1
    924c:	90 e0       	ldi	r25, 0x00	; 0
    924e:	f8 94       	cli
    9250:	7d c3       	rjmp	.+1786   	; 0x994c <_exit>

00009252 <memcpy>:
    9252:	fb 01       	movw	r30, r22
    9254:	dc 01       	movw	r26, r24
    9256:	02 c0       	rjmp	.+4      	; 0x925c <memcpy+0xa>
    9258:	01 90       	ld	r0, Z+
    925a:	0d 92       	st	X+, r0
    925c:	41 50       	subi	r20, 0x01	; 1
    925e:	50 40       	sbci	r21, 0x00	; 0
    9260:	d8 f7       	brcc	.-10     	; 0x9258 <memcpy+0x6>
    9262:	08 95       	ret

00009264 <memset>:
    9264:	dc 01       	movw	r26, r24
    9266:	01 c0       	rjmp	.+2      	; 0x926a <memset+0x6>
    9268:	6d 93       	st	X+, r22
    926a:	41 50       	subi	r20, 0x01	; 1
    926c:	50 40       	sbci	r21, 0x00	; 0
    926e:	e0 f7       	brcc	.-8      	; 0x9268 <memset+0x4>
    9270:	08 95       	ret

00009272 <strcasestr>:
    9272:	fb 01       	movw	r30, r22
    9274:	51 91       	ld	r21, Z+
    9276:	55 23       	and	r21, r21
    9278:	b1 f0       	breq	.+44     	; 0x92a6 <strcasestr+0x34>
    927a:	bf 01       	movw	r22, r30
    927c:	dc 01       	movw	r26, r24
    927e:	05 2e       	mov	r0, r21
    9280:	4d 91       	ld	r20, X+
    9282:	44 23       	and	r20, r20
    9284:	69 f0       	breq	.+26     	; 0x92a0 <strcasestr+0x2e>
    9286:	10 d0       	rcall	.+32     	; 0x92a8 <strcasestr+0x36>
    9288:	d9 f7       	brne	.-10     	; 0x9280 <strcasestr+0xe>
    928a:	cd 01       	movw	r24, r26
    928c:	01 90       	ld	r0, Z+
    928e:	00 20       	and	r0, r0
    9290:	49 f0       	breq	.+18     	; 0x92a4 <strcasestr+0x32>
    9292:	4d 91       	ld	r20, X+
    9294:	41 11       	cpse	r20, r1
    9296:	08 d0       	rcall	.+16     	; 0x92a8 <strcasestr+0x36>
    9298:	c9 f3       	breq	.-14     	; 0x928c <strcasestr+0x1a>
    929a:	fb 01       	movw	r30, r22
    929c:	41 11       	cpse	r20, r1
    929e:	ee cf       	rjmp	.-36     	; 0x927c <strcasestr+0xa>
    92a0:	81 e0       	ldi	r24, 0x01	; 1
    92a2:	90 e0       	ldi	r25, 0x00	; 0
    92a4:	01 97       	sbiw	r24, 0x01	; 1
    92a6:	08 95       	ret
    92a8:	40 25       	eor	r20, r0
    92aa:	39 f0       	breq	.+14     	; 0x92ba <strcasestr+0x48>
    92ac:	40 32       	cpi	r20, 0x20	; 32
    92ae:	29 f4       	brne	.+10     	; 0x92ba <strcasestr+0x48>
    92b0:	40 29       	or	r20, r0
    92b2:	4b 57       	subi	r20, 0x7B	; 123
    92b4:	46 5e       	subi	r20, 0xE6	; 230
    92b6:	08 f0       	brcs	.+2      	; 0x92ba <strcasestr+0x48>
    92b8:	18 94       	sez
    92ba:	08 95       	ret

000092bc <strcat>:
    92bc:	fb 01       	movw	r30, r22
    92be:	dc 01       	movw	r26, r24
    92c0:	0d 90       	ld	r0, X+
    92c2:	00 20       	and	r0, r0
    92c4:	e9 f7       	brne	.-6      	; 0x92c0 <strcat+0x4>
    92c6:	11 97       	sbiw	r26, 0x01	; 1
    92c8:	01 90       	ld	r0, Z+
    92ca:	0d 92       	st	X+, r0
    92cc:	00 20       	and	r0, r0
    92ce:	e1 f7       	brne	.-8      	; 0x92c8 <strcat+0xc>
    92d0:	08 95       	ret

000092d2 <strcpy>:
    92d2:	fb 01       	movw	r30, r22
    92d4:	dc 01       	movw	r26, r24
    92d6:	01 90       	ld	r0, Z+
    92d8:	0d 92       	st	X+, r0
    92da:	00 20       	and	r0, r0
    92dc:	e1 f7       	brne	.-8      	; 0x92d6 <strcpy+0x4>
    92de:	08 95       	ret

000092e0 <strncasecmp>:
    92e0:	fb 01       	movw	r30, r22
    92e2:	dc 01       	movw	r26, r24
    92e4:	41 50       	subi	r20, 0x01	; 1
    92e6:	50 40       	sbci	r21, 0x00	; 0
    92e8:	88 f0       	brcs	.+34     	; 0x930c <strncasecmp+0x2c>
    92ea:	8d 91       	ld	r24, X+
    92ec:	81 34       	cpi	r24, 0x41	; 65
    92ee:	1c f0       	brlt	.+6      	; 0x92f6 <strncasecmp+0x16>
    92f0:	8b 35       	cpi	r24, 0x5B	; 91
    92f2:	0c f4       	brge	.+2      	; 0x92f6 <strncasecmp+0x16>
    92f4:	80 5e       	subi	r24, 0xE0	; 224
    92f6:	61 91       	ld	r22, Z+
    92f8:	61 34       	cpi	r22, 0x41	; 65
    92fa:	1c f0       	brlt	.+6      	; 0x9302 <strncasecmp+0x22>
    92fc:	6b 35       	cpi	r22, 0x5B	; 91
    92fe:	0c f4       	brge	.+2      	; 0x9302 <strncasecmp+0x22>
    9300:	60 5e       	subi	r22, 0xE0	; 224
    9302:	86 1b       	sub	r24, r22
    9304:	61 11       	cpse	r22, r1
    9306:	71 f3       	breq	.-36     	; 0x92e4 <strncasecmp+0x4>
    9308:	99 0b       	sbc	r25, r25
    930a:	08 95       	ret
    930c:	88 1b       	sub	r24, r24
    930e:	fc cf       	rjmp	.-8      	; 0x9308 <strncasecmp+0x28>

00009310 <printf>:
    9310:	cf 93       	push	r28
    9312:	df 93       	push	r29
    9314:	cd b7       	in	r28, 0x3d	; 61
    9316:	de b7       	in	r29, 0x3e	; 62
    9318:	ae 01       	movw	r20, r28
    931a:	4a 5f       	subi	r20, 0xFA	; 250
    931c:	5f 4f       	sbci	r21, 0xFF	; 255
    931e:	fa 01       	movw	r30, r20
    9320:	61 91       	ld	r22, Z+
    9322:	71 91       	ld	r23, Z+
    9324:	af 01       	movw	r20, r30
    9326:	80 91 50 19 	lds	r24, 0x1950	; 0x801950 <__iob+0x2>
    932a:	90 91 51 19 	lds	r25, 0x1951	; 0x801951 <__iob+0x3>
    932e:	61 d0       	rcall	.+194    	; 0x93f2 <vfprintf>
    9330:	df 91       	pop	r29
    9332:	cf 91       	pop	r28
    9334:	08 95       	ret

00009336 <puts>:
    9336:	0f 93       	push	r16
    9338:	1f 93       	push	r17
    933a:	cf 93       	push	r28
    933c:	df 93       	push	r29
    933e:	e0 91 50 19 	lds	r30, 0x1950	; 0x801950 <__iob+0x2>
    9342:	f0 91 51 19 	lds	r31, 0x1951	; 0x801951 <__iob+0x3>
    9346:	23 81       	ldd	r18, Z+3	; 0x03
    9348:	21 ff       	sbrs	r18, 1
    934a:	1b c0       	rjmp	.+54     	; 0x9382 <puts+0x4c>
    934c:	8c 01       	movw	r16, r24
    934e:	d0 e0       	ldi	r29, 0x00	; 0
    9350:	c0 e0       	ldi	r28, 0x00	; 0
    9352:	f8 01       	movw	r30, r16
    9354:	81 91       	ld	r24, Z+
    9356:	8f 01       	movw	r16, r30
    9358:	60 91 50 19 	lds	r22, 0x1950	; 0x801950 <__iob+0x2>
    935c:	70 91 51 19 	lds	r23, 0x1951	; 0x801951 <__iob+0x3>
    9360:	db 01       	movw	r26, r22
    9362:	18 96       	adiw	r26, 0x08	; 8
    9364:	ed 91       	ld	r30, X+
    9366:	fc 91       	ld	r31, X
    9368:	19 97       	sbiw	r26, 0x09	; 9
    936a:	88 23       	and	r24, r24
    936c:	31 f0       	breq	.+12     	; 0x937a <puts+0x44>
    936e:	19 95       	eicall
    9370:	89 2b       	or	r24, r25
    9372:	79 f3       	breq	.-34     	; 0x9352 <puts+0x1c>
    9374:	df ef       	ldi	r29, 0xFF	; 255
    9376:	cf ef       	ldi	r28, 0xFF	; 255
    9378:	ec cf       	rjmp	.-40     	; 0x9352 <puts+0x1c>
    937a:	8a e0       	ldi	r24, 0x0A	; 10
    937c:	19 95       	eicall
    937e:	89 2b       	or	r24, r25
    9380:	19 f0       	breq	.+6      	; 0x9388 <puts+0x52>
    9382:	8f ef       	ldi	r24, 0xFF	; 255
    9384:	9f ef       	ldi	r25, 0xFF	; 255
    9386:	02 c0       	rjmp	.+4      	; 0x938c <puts+0x56>
    9388:	8d 2f       	mov	r24, r29
    938a:	9c 2f       	mov	r25, r28
    938c:	df 91       	pop	r29
    938e:	cf 91       	pop	r28
    9390:	1f 91       	pop	r17
    9392:	0f 91       	pop	r16
    9394:	08 95       	ret

00009396 <sprintf>:
    9396:	0f 93       	push	r16
    9398:	1f 93       	push	r17
    939a:	cf 93       	push	r28
    939c:	df 93       	push	r29
    939e:	cd b7       	in	r28, 0x3d	; 61
    93a0:	de b7       	in	r29, 0x3e	; 62
    93a2:	2e 97       	sbiw	r28, 0x0e	; 14
    93a4:	0f b6       	in	r0, 0x3f	; 63
    93a6:	f8 94       	cli
    93a8:	de bf       	out	0x3e, r29	; 62
    93aa:	0f be       	out	0x3f, r0	; 63
    93ac:	cd bf       	out	0x3d, r28	; 61
    93ae:	0e 89       	ldd	r16, Y+22	; 0x16
    93b0:	1f 89       	ldd	r17, Y+23	; 0x17
    93b2:	86 e0       	ldi	r24, 0x06	; 6
    93b4:	8c 83       	std	Y+4, r24	; 0x04
    93b6:	1a 83       	std	Y+2, r17	; 0x02
    93b8:	09 83       	std	Y+1, r16	; 0x01
    93ba:	8f ef       	ldi	r24, 0xFF	; 255
    93bc:	9f e7       	ldi	r25, 0x7F	; 127
    93be:	9e 83       	std	Y+6, r25	; 0x06
    93c0:	8d 83       	std	Y+5, r24	; 0x05
    93c2:	ae 01       	movw	r20, r28
    93c4:	46 5e       	subi	r20, 0xE6	; 230
    93c6:	5f 4f       	sbci	r21, 0xFF	; 255
    93c8:	68 8d       	ldd	r22, Y+24	; 0x18
    93ca:	79 8d       	ldd	r23, Y+25	; 0x19
    93cc:	ce 01       	movw	r24, r28
    93ce:	01 96       	adiw	r24, 0x01	; 1
    93d0:	10 d0       	rcall	.+32     	; 0x93f2 <vfprintf>
    93d2:	ef 81       	ldd	r30, Y+7	; 0x07
    93d4:	f8 85       	ldd	r31, Y+8	; 0x08
    93d6:	e0 0f       	add	r30, r16
    93d8:	f1 1f       	adc	r31, r17
    93da:	10 82       	st	Z, r1
    93dc:	2e 96       	adiw	r28, 0x0e	; 14
    93de:	0f b6       	in	r0, 0x3f	; 63
    93e0:	f8 94       	cli
    93e2:	de bf       	out	0x3e, r29	; 62
    93e4:	0f be       	out	0x3f, r0	; 63
    93e6:	cd bf       	out	0x3d, r28	; 61
    93e8:	df 91       	pop	r29
    93ea:	cf 91       	pop	r28
    93ec:	1f 91       	pop	r17
    93ee:	0f 91       	pop	r16
    93f0:	08 95       	ret

000093f2 <vfprintf>:
    93f2:	2f 92       	push	r2
    93f4:	3f 92       	push	r3
    93f6:	4f 92       	push	r4
    93f8:	5f 92       	push	r5
    93fa:	6f 92       	push	r6
    93fc:	7f 92       	push	r7
    93fe:	8f 92       	push	r8
    9400:	9f 92       	push	r9
    9402:	af 92       	push	r10
    9404:	bf 92       	push	r11
    9406:	cf 92       	push	r12
    9408:	df 92       	push	r13
    940a:	ef 92       	push	r14
    940c:	ff 92       	push	r15
    940e:	0f 93       	push	r16
    9410:	1f 93       	push	r17
    9412:	cf 93       	push	r28
    9414:	df 93       	push	r29
    9416:	cd b7       	in	r28, 0x3d	; 61
    9418:	de b7       	in	r29, 0x3e	; 62
    941a:	2b 97       	sbiw	r28, 0x0b	; 11
    941c:	0f b6       	in	r0, 0x3f	; 63
    941e:	f8 94       	cli
    9420:	de bf       	out	0x3e, r29	; 62
    9422:	0f be       	out	0x3f, r0	; 63
    9424:	cd bf       	out	0x3d, r28	; 61
    9426:	6c 01       	movw	r12, r24
    9428:	7b 01       	movw	r14, r22
    942a:	8a 01       	movw	r16, r20
    942c:	fc 01       	movw	r30, r24
    942e:	17 82       	std	Z+7, r1	; 0x07
    9430:	16 82       	std	Z+6, r1	; 0x06
    9432:	83 81       	ldd	r24, Z+3	; 0x03
    9434:	81 ff       	sbrs	r24, 1
    9436:	bf c1       	rjmp	.+894    	; 0x97b6 <vfprintf+0x3c4>
    9438:	ce 01       	movw	r24, r28
    943a:	01 96       	adiw	r24, 0x01	; 1
    943c:	3c 01       	movw	r6, r24
    943e:	f6 01       	movw	r30, r12
    9440:	93 81       	ldd	r25, Z+3	; 0x03
    9442:	f7 01       	movw	r30, r14
    9444:	93 fd       	sbrc	r25, 3
    9446:	85 91       	lpm	r24, Z+
    9448:	93 ff       	sbrs	r25, 3
    944a:	81 91       	ld	r24, Z+
    944c:	7f 01       	movw	r14, r30
    944e:	88 23       	and	r24, r24
    9450:	09 f4       	brne	.+2      	; 0x9454 <vfprintf+0x62>
    9452:	ad c1       	rjmp	.+858    	; 0x97ae <vfprintf+0x3bc>
    9454:	85 32       	cpi	r24, 0x25	; 37
    9456:	39 f4       	brne	.+14     	; 0x9466 <vfprintf+0x74>
    9458:	93 fd       	sbrc	r25, 3
    945a:	85 91       	lpm	r24, Z+
    945c:	93 ff       	sbrs	r25, 3
    945e:	81 91       	ld	r24, Z+
    9460:	7f 01       	movw	r14, r30
    9462:	85 32       	cpi	r24, 0x25	; 37
    9464:	21 f4       	brne	.+8      	; 0x946e <vfprintf+0x7c>
    9466:	b6 01       	movw	r22, r12
    9468:	90 e0       	ldi	r25, 0x00	; 0
    946a:	d6 d1       	rcall	.+940    	; 0x9818 <fputc>
    946c:	e8 cf       	rjmp	.-48     	; 0x943e <vfprintf+0x4c>
    946e:	91 2c       	mov	r9, r1
    9470:	21 2c       	mov	r2, r1
    9472:	31 2c       	mov	r3, r1
    9474:	ff e1       	ldi	r31, 0x1F	; 31
    9476:	f3 15       	cp	r31, r3
    9478:	d8 f0       	brcs	.+54     	; 0x94b0 <vfprintf+0xbe>
    947a:	8b 32       	cpi	r24, 0x2B	; 43
    947c:	79 f0       	breq	.+30     	; 0x949c <vfprintf+0xaa>
    947e:	38 f4       	brcc	.+14     	; 0x948e <vfprintf+0x9c>
    9480:	80 32       	cpi	r24, 0x20	; 32
    9482:	79 f0       	breq	.+30     	; 0x94a2 <vfprintf+0xb0>
    9484:	83 32       	cpi	r24, 0x23	; 35
    9486:	a1 f4       	brne	.+40     	; 0x94b0 <vfprintf+0xbe>
    9488:	23 2d       	mov	r18, r3
    948a:	20 61       	ori	r18, 0x10	; 16
    948c:	1d c0       	rjmp	.+58     	; 0x94c8 <vfprintf+0xd6>
    948e:	8d 32       	cpi	r24, 0x2D	; 45
    9490:	61 f0       	breq	.+24     	; 0x94aa <vfprintf+0xb8>
    9492:	80 33       	cpi	r24, 0x30	; 48
    9494:	69 f4       	brne	.+26     	; 0x94b0 <vfprintf+0xbe>
    9496:	23 2d       	mov	r18, r3
    9498:	21 60       	ori	r18, 0x01	; 1
    949a:	16 c0       	rjmp	.+44     	; 0x94c8 <vfprintf+0xd6>
    949c:	83 2d       	mov	r24, r3
    949e:	82 60       	ori	r24, 0x02	; 2
    94a0:	38 2e       	mov	r3, r24
    94a2:	e3 2d       	mov	r30, r3
    94a4:	e4 60       	ori	r30, 0x04	; 4
    94a6:	3e 2e       	mov	r3, r30
    94a8:	2a c0       	rjmp	.+84     	; 0x94fe <vfprintf+0x10c>
    94aa:	f3 2d       	mov	r31, r3
    94ac:	f8 60       	ori	r31, 0x08	; 8
    94ae:	1d c0       	rjmp	.+58     	; 0x94ea <vfprintf+0xf8>
    94b0:	37 fc       	sbrc	r3, 7
    94b2:	2d c0       	rjmp	.+90     	; 0x950e <vfprintf+0x11c>
    94b4:	20 ed       	ldi	r18, 0xD0	; 208
    94b6:	28 0f       	add	r18, r24
    94b8:	2a 30       	cpi	r18, 0x0A	; 10
    94ba:	40 f0       	brcs	.+16     	; 0x94cc <vfprintf+0xda>
    94bc:	8e 32       	cpi	r24, 0x2E	; 46
    94be:	b9 f4       	brne	.+46     	; 0x94ee <vfprintf+0xfc>
    94c0:	36 fc       	sbrc	r3, 6
    94c2:	75 c1       	rjmp	.+746    	; 0x97ae <vfprintf+0x3bc>
    94c4:	23 2d       	mov	r18, r3
    94c6:	20 64       	ori	r18, 0x40	; 64
    94c8:	32 2e       	mov	r3, r18
    94ca:	19 c0       	rjmp	.+50     	; 0x94fe <vfprintf+0x10c>
    94cc:	36 fe       	sbrs	r3, 6
    94ce:	06 c0       	rjmp	.+12     	; 0x94dc <vfprintf+0xea>
    94d0:	8a e0       	ldi	r24, 0x0A	; 10
    94d2:	98 9e       	mul	r9, r24
    94d4:	20 0d       	add	r18, r0
    94d6:	11 24       	eor	r1, r1
    94d8:	92 2e       	mov	r9, r18
    94da:	11 c0       	rjmp	.+34     	; 0x94fe <vfprintf+0x10c>
    94dc:	ea e0       	ldi	r30, 0x0A	; 10
    94de:	2e 9e       	mul	r2, r30
    94e0:	20 0d       	add	r18, r0
    94e2:	11 24       	eor	r1, r1
    94e4:	22 2e       	mov	r2, r18
    94e6:	f3 2d       	mov	r31, r3
    94e8:	f0 62       	ori	r31, 0x20	; 32
    94ea:	3f 2e       	mov	r3, r31
    94ec:	08 c0       	rjmp	.+16     	; 0x94fe <vfprintf+0x10c>
    94ee:	8c 36       	cpi	r24, 0x6C	; 108
    94f0:	21 f4       	brne	.+8      	; 0x94fa <vfprintf+0x108>
    94f2:	83 2d       	mov	r24, r3
    94f4:	80 68       	ori	r24, 0x80	; 128
    94f6:	38 2e       	mov	r3, r24
    94f8:	02 c0       	rjmp	.+4      	; 0x94fe <vfprintf+0x10c>
    94fa:	88 36       	cpi	r24, 0x68	; 104
    94fc:	41 f4       	brne	.+16     	; 0x950e <vfprintf+0x11c>
    94fe:	f7 01       	movw	r30, r14
    9500:	93 fd       	sbrc	r25, 3
    9502:	85 91       	lpm	r24, Z+
    9504:	93 ff       	sbrs	r25, 3
    9506:	81 91       	ld	r24, Z+
    9508:	7f 01       	movw	r14, r30
    950a:	81 11       	cpse	r24, r1
    950c:	b3 cf       	rjmp	.-154    	; 0x9474 <vfprintf+0x82>
    950e:	98 2f       	mov	r25, r24
    9510:	9f 7d       	andi	r25, 0xDF	; 223
    9512:	95 54       	subi	r25, 0x45	; 69
    9514:	93 30       	cpi	r25, 0x03	; 3
    9516:	28 f4       	brcc	.+10     	; 0x9522 <vfprintf+0x130>
    9518:	0c 5f       	subi	r16, 0xFC	; 252
    951a:	1f 4f       	sbci	r17, 0xFF	; 255
    951c:	9f e3       	ldi	r25, 0x3F	; 63
    951e:	99 83       	std	Y+1, r25	; 0x01
    9520:	0d c0       	rjmp	.+26     	; 0x953c <vfprintf+0x14a>
    9522:	83 36       	cpi	r24, 0x63	; 99
    9524:	31 f0       	breq	.+12     	; 0x9532 <vfprintf+0x140>
    9526:	83 37       	cpi	r24, 0x73	; 115
    9528:	71 f0       	breq	.+28     	; 0x9546 <vfprintf+0x154>
    952a:	83 35       	cpi	r24, 0x53	; 83
    952c:	09 f0       	breq	.+2      	; 0x9530 <vfprintf+0x13e>
    952e:	55 c0       	rjmp	.+170    	; 0x95da <vfprintf+0x1e8>
    9530:	20 c0       	rjmp	.+64     	; 0x9572 <vfprintf+0x180>
    9532:	f8 01       	movw	r30, r16
    9534:	80 81       	ld	r24, Z
    9536:	89 83       	std	Y+1, r24	; 0x01
    9538:	0e 5f       	subi	r16, 0xFE	; 254
    953a:	1f 4f       	sbci	r17, 0xFF	; 255
    953c:	88 24       	eor	r8, r8
    953e:	83 94       	inc	r8
    9540:	91 2c       	mov	r9, r1
    9542:	53 01       	movw	r10, r6
    9544:	12 c0       	rjmp	.+36     	; 0x956a <vfprintf+0x178>
    9546:	28 01       	movw	r4, r16
    9548:	f2 e0       	ldi	r31, 0x02	; 2
    954a:	4f 0e       	add	r4, r31
    954c:	51 1c       	adc	r5, r1
    954e:	f8 01       	movw	r30, r16
    9550:	a0 80       	ld	r10, Z
    9552:	b1 80       	ldd	r11, Z+1	; 0x01
    9554:	36 fe       	sbrs	r3, 6
    9556:	03 c0       	rjmp	.+6      	; 0x955e <vfprintf+0x16c>
    9558:	69 2d       	mov	r22, r9
    955a:	70 e0       	ldi	r23, 0x00	; 0
    955c:	02 c0       	rjmp	.+4      	; 0x9562 <vfprintf+0x170>
    955e:	6f ef       	ldi	r22, 0xFF	; 255
    9560:	7f ef       	ldi	r23, 0xFF	; 255
    9562:	c5 01       	movw	r24, r10
    9564:	4e d1       	rcall	.+668    	; 0x9802 <strnlen>
    9566:	4c 01       	movw	r8, r24
    9568:	82 01       	movw	r16, r4
    956a:	f3 2d       	mov	r31, r3
    956c:	ff 77       	andi	r31, 0x7F	; 127
    956e:	3f 2e       	mov	r3, r31
    9570:	15 c0       	rjmp	.+42     	; 0x959c <vfprintf+0x1aa>
    9572:	28 01       	movw	r4, r16
    9574:	22 e0       	ldi	r18, 0x02	; 2
    9576:	42 0e       	add	r4, r18
    9578:	51 1c       	adc	r5, r1
    957a:	f8 01       	movw	r30, r16
    957c:	a0 80       	ld	r10, Z
    957e:	b1 80       	ldd	r11, Z+1	; 0x01
    9580:	36 fe       	sbrs	r3, 6
    9582:	03 c0       	rjmp	.+6      	; 0x958a <vfprintf+0x198>
    9584:	69 2d       	mov	r22, r9
    9586:	70 e0       	ldi	r23, 0x00	; 0
    9588:	02 c0       	rjmp	.+4      	; 0x958e <vfprintf+0x19c>
    958a:	6f ef       	ldi	r22, 0xFF	; 255
    958c:	7f ef       	ldi	r23, 0xFF	; 255
    958e:	c5 01       	movw	r24, r10
    9590:	2d d1       	rcall	.+602    	; 0x97ec <strnlen_P>
    9592:	4c 01       	movw	r8, r24
    9594:	f3 2d       	mov	r31, r3
    9596:	f0 68       	ori	r31, 0x80	; 128
    9598:	3f 2e       	mov	r3, r31
    959a:	82 01       	movw	r16, r4
    959c:	33 fc       	sbrc	r3, 3
    959e:	19 c0       	rjmp	.+50     	; 0x95d2 <vfprintf+0x1e0>
    95a0:	82 2d       	mov	r24, r2
    95a2:	90 e0       	ldi	r25, 0x00	; 0
    95a4:	88 16       	cp	r8, r24
    95a6:	99 06       	cpc	r9, r25
    95a8:	a0 f4       	brcc	.+40     	; 0x95d2 <vfprintf+0x1e0>
    95aa:	b6 01       	movw	r22, r12
    95ac:	80 e2       	ldi	r24, 0x20	; 32
    95ae:	90 e0       	ldi	r25, 0x00	; 0
    95b0:	33 d1       	rcall	.+614    	; 0x9818 <fputc>
    95b2:	2a 94       	dec	r2
    95b4:	f5 cf       	rjmp	.-22     	; 0x95a0 <vfprintf+0x1ae>
    95b6:	f5 01       	movw	r30, r10
    95b8:	37 fc       	sbrc	r3, 7
    95ba:	85 91       	lpm	r24, Z+
    95bc:	37 fe       	sbrs	r3, 7
    95be:	81 91       	ld	r24, Z+
    95c0:	5f 01       	movw	r10, r30
    95c2:	b6 01       	movw	r22, r12
    95c4:	90 e0       	ldi	r25, 0x00	; 0
    95c6:	28 d1       	rcall	.+592    	; 0x9818 <fputc>
    95c8:	21 10       	cpse	r2, r1
    95ca:	2a 94       	dec	r2
    95cc:	21 e0       	ldi	r18, 0x01	; 1
    95ce:	82 1a       	sub	r8, r18
    95d0:	91 08       	sbc	r9, r1
    95d2:	81 14       	cp	r8, r1
    95d4:	91 04       	cpc	r9, r1
    95d6:	79 f7       	brne	.-34     	; 0x95b6 <vfprintf+0x1c4>
    95d8:	e1 c0       	rjmp	.+450    	; 0x979c <vfprintf+0x3aa>
    95da:	84 36       	cpi	r24, 0x64	; 100
    95dc:	11 f0       	breq	.+4      	; 0x95e2 <vfprintf+0x1f0>
    95de:	89 36       	cpi	r24, 0x69	; 105
    95e0:	39 f5       	brne	.+78     	; 0x9630 <vfprintf+0x23e>
    95e2:	f8 01       	movw	r30, r16
    95e4:	37 fe       	sbrs	r3, 7
    95e6:	07 c0       	rjmp	.+14     	; 0x95f6 <vfprintf+0x204>
    95e8:	60 81       	ld	r22, Z
    95ea:	71 81       	ldd	r23, Z+1	; 0x01
    95ec:	82 81       	ldd	r24, Z+2	; 0x02
    95ee:	93 81       	ldd	r25, Z+3	; 0x03
    95f0:	0c 5f       	subi	r16, 0xFC	; 252
    95f2:	1f 4f       	sbci	r17, 0xFF	; 255
    95f4:	08 c0       	rjmp	.+16     	; 0x9606 <vfprintf+0x214>
    95f6:	60 81       	ld	r22, Z
    95f8:	71 81       	ldd	r23, Z+1	; 0x01
    95fa:	07 2e       	mov	r0, r23
    95fc:	00 0c       	add	r0, r0
    95fe:	88 0b       	sbc	r24, r24
    9600:	99 0b       	sbc	r25, r25
    9602:	0e 5f       	subi	r16, 0xFE	; 254
    9604:	1f 4f       	sbci	r17, 0xFF	; 255
    9606:	f3 2d       	mov	r31, r3
    9608:	ff 76       	andi	r31, 0x6F	; 111
    960a:	3f 2e       	mov	r3, r31
    960c:	97 ff       	sbrs	r25, 7
    960e:	09 c0       	rjmp	.+18     	; 0x9622 <vfprintf+0x230>
    9610:	90 95       	com	r25
    9612:	80 95       	com	r24
    9614:	70 95       	com	r23
    9616:	61 95       	neg	r22
    9618:	7f 4f       	sbci	r23, 0xFF	; 255
    961a:	8f 4f       	sbci	r24, 0xFF	; 255
    961c:	9f 4f       	sbci	r25, 0xFF	; 255
    961e:	f0 68       	ori	r31, 0x80	; 128
    9620:	3f 2e       	mov	r3, r31
    9622:	2a e0       	ldi	r18, 0x0A	; 10
    9624:	30 e0       	ldi	r19, 0x00	; 0
    9626:	a3 01       	movw	r20, r6
    9628:	33 d1       	rcall	.+614    	; 0x9890 <__ultoa_invert>
    962a:	88 2e       	mov	r8, r24
    962c:	86 18       	sub	r8, r6
    962e:	44 c0       	rjmp	.+136    	; 0x96b8 <vfprintf+0x2c6>
    9630:	85 37       	cpi	r24, 0x75	; 117
    9632:	31 f4       	brne	.+12     	; 0x9640 <vfprintf+0x24e>
    9634:	23 2d       	mov	r18, r3
    9636:	2f 7e       	andi	r18, 0xEF	; 239
    9638:	b2 2e       	mov	r11, r18
    963a:	2a e0       	ldi	r18, 0x0A	; 10
    963c:	30 e0       	ldi	r19, 0x00	; 0
    963e:	25 c0       	rjmp	.+74     	; 0x968a <vfprintf+0x298>
    9640:	93 2d       	mov	r25, r3
    9642:	99 7f       	andi	r25, 0xF9	; 249
    9644:	b9 2e       	mov	r11, r25
    9646:	8f 36       	cpi	r24, 0x6F	; 111
    9648:	c1 f0       	breq	.+48     	; 0x967a <vfprintf+0x288>
    964a:	18 f4       	brcc	.+6      	; 0x9652 <vfprintf+0x260>
    964c:	88 35       	cpi	r24, 0x58	; 88
    964e:	79 f0       	breq	.+30     	; 0x966e <vfprintf+0x27c>
    9650:	ae c0       	rjmp	.+348    	; 0x97ae <vfprintf+0x3bc>
    9652:	80 37       	cpi	r24, 0x70	; 112
    9654:	19 f0       	breq	.+6      	; 0x965c <vfprintf+0x26a>
    9656:	88 37       	cpi	r24, 0x78	; 120
    9658:	21 f0       	breq	.+8      	; 0x9662 <vfprintf+0x270>
    965a:	a9 c0       	rjmp	.+338    	; 0x97ae <vfprintf+0x3bc>
    965c:	e9 2f       	mov	r30, r25
    965e:	e0 61       	ori	r30, 0x10	; 16
    9660:	be 2e       	mov	r11, r30
    9662:	b4 fe       	sbrs	r11, 4
    9664:	0d c0       	rjmp	.+26     	; 0x9680 <vfprintf+0x28e>
    9666:	fb 2d       	mov	r31, r11
    9668:	f4 60       	ori	r31, 0x04	; 4
    966a:	bf 2e       	mov	r11, r31
    966c:	09 c0       	rjmp	.+18     	; 0x9680 <vfprintf+0x28e>
    966e:	34 fe       	sbrs	r3, 4
    9670:	0a c0       	rjmp	.+20     	; 0x9686 <vfprintf+0x294>
    9672:	29 2f       	mov	r18, r25
    9674:	26 60       	ori	r18, 0x06	; 6
    9676:	b2 2e       	mov	r11, r18
    9678:	06 c0       	rjmp	.+12     	; 0x9686 <vfprintf+0x294>
    967a:	28 e0       	ldi	r18, 0x08	; 8
    967c:	30 e0       	ldi	r19, 0x00	; 0
    967e:	05 c0       	rjmp	.+10     	; 0x968a <vfprintf+0x298>
    9680:	20 e1       	ldi	r18, 0x10	; 16
    9682:	30 e0       	ldi	r19, 0x00	; 0
    9684:	02 c0       	rjmp	.+4      	; 0x968a <vfprintf+0x298>
    9686:	20 e1       	ldi	r18, 0x10	; 16
    9688:	32 e0       	ldi	r19, 0x02	; 2
    968a:	f8 01       	movw	r30, r16
    968c:	b7 fe       	sbrs	r11, 7
    968e:	07 c0       	rjmp	.+14     	; 0x969e <vfprintf+0x2ac>
    9690:	60 81       	ld	r22, Z
    9692:	71 81       	ldd	r23, Z+1	; 0x01
    9694:	82 81       	ldd	r24, Z+2	; 0x02
    9696:	93 81       	ldd	r25, Z+3	; 0x03
    9698:	0c 5f       	subi	r16, 0xFC	; 252
    969a:	1f 4f       	sbci	r17, 0xFF	; 255
    969c:	06 c0       	rjmp	.+12     	; 0x96aa <vfprintf+0x2b8>
    969e:	60 81       	ld	r22, Z
    96a0:	71 81       	ldd	r23, Z+1	; 0x01
    96a2:	80 e0       	ldi	r24, 0x00	; 0
    96a4:	90 e0       	ldi	r25, 0x00	; 0
    96a6:	0e 5f       	subi	r16, 0xFE	; 254
    96a8:	1f 4f       	sbci	r17, 0xFF	; 255
    96aa:	a3 01       	movw	r20, r6
    96ac:	f1 d0       	rcall	.+482    	; 0x9890 <__ultoa_invert>
    96ae:	88 2e       	mov	r8, r24
    96b0:	86 18       	sub	r8, r6
    96b2:	fb 2d       	mov	r31, r11
    96b4:	ff 77       	andi	r31, 0x7F	; 127
    96b6:	3f 2e       	mov	r3, r31
    96b8:	36 fe       	sbrs	r3, 6
    96ba:	0d c0       	rjmp	.+26     	; 0x96d6 <vfprintf+0x2e4>
    96bc:	23 2d       	mov	r18, r3
    96be:	2e 7f       	andi	r18, 0xFE	; 254
    96c0:	a2 2e       	mov	r10, r18
    96c2:	89 14       	cp	r8, r9
    96c4:	58 f4       	brcc	.+22     	; 0x96dc <vfprintf+0x2ea>
    96c6:	34 fe       	sbrs	r3, 4
    96c8:	0b c0       	rjmp	.+22     	; 0x96e0 <vfprintf+0x2ee>
    96ca:	32 fc       	sbrc	r3, 2
    96cc:	09 c0       	rjmp	.+18     	; 0x96e0 <vfprintf+0x2ee>
    96ce:	83 2d       	mov	r24, r3
    96d0:	8e 7e       	andi	r24, 0xEE	; 238
    96d2:	a8 2e       	mov	r10, r24
    96d4:	05 c0       	rjmp	.+10     	; 0x96e0 <vfprintf+0x2ee>
    96d6:	b8 2c       	mov	r11, r8
    96d8:	a3 2c       	mov	r10, r3
    96da:	03 c0       	rjmp	.+6      	; 0x96e2 <vfprintf+0x2f0>
    96dc:	b8 2c       	mov	r11, r8
    96de:	01 c0       	rjmp	.+2      	; 0x96e2 <vfprintf+0x2f0>
    96e0:	b9 2c       	mov	r11, r9
    96e2:	a4 fe       	sbrs	r10, 4
    96e4:	0f c0       	rjmp	.+30     	; 0x9704 <vfprintf+0x312>
    96e6:	fe 01       	movw	r30, r28
    96e8:	e8 0d       	add	r30, r8
    96ea:	f1 1d       	adc	r31, r1
    96ec:	80 81       	ld	r24, Z
    96ee:	80 33       	cpi	r24, 0x30	; 48
    96f0:	21 f4       	brne	.+8      	; 0x96fa <vfprintf+0x308>
    96f2:	9a 2d       	mov	r25, r10
    96f4:	99 7e       	andi	r25, 0xE9	; 233
    96f6:	a9 2e       	mov	r10, r25
    96f8:	09 c0       	rjmp	.+18     	; 0x970c <vfprintf+0x31a>
    96fa:	a2 fe       	sbrs	r10, 2
    96fc:	06 c0       	rjmp	.+12     	; 0x970a <vfprintf+0x318>
    96fe:	b3 94       	inc	r11
    9700:	b3 94       	inc	r11
    9702:	04 c0       	rjmp	.+8      	; 0x970c <vfprintf+0x31a>
    9704:	8a 2d       	mov	r24, r10
    9706:	86 78       	andi	r24, 0x86	; 134
    9708:	09 f0       	breq	.+2      	; 0x970c <vfprintf+0x31a>
    970a:	b3 94       	inc	r11
    970c:	a3 fc       	sbrc	r10, 3
    970e:	10 c0       	rjmp	.+32     	; 0x9730 <vfprintf+0x33e>
    9710:	a0 fe       	sbrs	r10, 0
    9712:	06 c0       	rjmp	.+12     	; 0x9720 <vfprintf+0x32e>
    9714:	b2 14       	cp	r11, r2
    9716:	80 f4       	brcc	.+32     	; 0x9738 <vfprintf+0x346>
    9718:	28 0c       	add	r2, r8
    971a:	92 2c       	mov	r9, r2
    971c:	9b 18       	sub	r9, r11
    971e:	0d c0       	rjmp	.+26     	; 0x973a <vfprintf+0x348>
    9720:	b2 14       	cp	r11, r2
    9722:	58 f4       	brcc	.+22     	; 0x973a <vfprintf+0x348>
    9724:	b6 01       	movw	r22, r12
    9726:	80 e2       	ldi	r24, 0x20	; 32
    9728:	90 e0       	ldi	r25, 0x00	; 0
    972a:	76 d0       	rcall	.+236    	; 0x9818 <fputc>
    972c:	b3 94       	inc	r11
    972e:	f8 cf       	rjmp	.-16     	; 0x9720 <vfprintf+0x32e>
    9730:	b2 14       	cp	r11, r2
    9732:	18 f4       	brcc	.+6      	; 0x973a <vfprintf+0x348>
    9734:	2b 18       	sub	r2, r11
    9736:	02 c0       	rjmp	.+4      	; 0x973c <vfprintf+0x34a>
    9738:	98 2c       	mov	r9, r8
    973a:	21 2c       	mov	r2, r1
    973c:	a4 fe       	sbrs	r10, 4
    973e:	0f c0       	rjmp	.+30     	; 0x975e <vfprintf+0x36c>
    9740:	b6 01       	movw	r22, r12
    9742:	80 e3       	ldi	r24, 0x30	; 48
    9744:	90 e0       	ldi	r25, 0x00	; 0
    9746:	68 d0       	rcall	.+208    	; 0x9818 <fputc>
    9748:	a2 fe       	sbrs	r10, 2
    974a:	16 c0       	rjmp	.+44     	; 0x9778 <vfprintf+0x386>
    974c:	a1 fc       	sbrc	r10, 1
    974e:	03 c0       	rjmp	.+6      	; 0x9756 <vfprintf+0x364>
    9750:	88 e7       	ldi	r24, 0x78	; 120
    9752:	90 e0       	ldi	r25, 0x00	; 0
    9754:	02 c0       	rjmp	.+4      	; 0x975a <vfprintf+0x368>
    9756:	88 e5       	ldi	r24, 0x58	; 88
    9758:	90 e0       	ldi	r25, 0x00	; 0
    975a:	b6 01       	movw	r22, r12
    975c:	0c c0       	rjmp	.+24     	; 0x9776 <vfprintf+0x384>
    975e:	8a 2d       	mov	r24, r10
    9760:	86 78       	andi	r24, 0x86	; 134
    9762:	51 f0       	breq	.+20     	; 0x9778 <vfprintf+0x386>
    9764:	a1 fe       	sbrs	r10, 1
    9766:	02 c0       	rjmp	.+4      	; 0x976c <vfprintf+0x37a>
    9768:	8b e2       	ldi	r24, 0x2B	; 43
    976a:	01 c0       	rjmp	.+2      	; 0x976e <vfprintf+0x37c>
    976c:	80 e2       	ldi	r24, 0x20	; 32
    976e:	a7 fc       	sbrc	r10, 7
    9770:	8d e2       	ldi	r24, 0x2D	; 45
    9772:	b6 01       	movw	r22, r12
    9774:	90 e0       	ldi	r25, 0x00	; 0
    9776:	50 d0       	rcall	.+160    	; 0x9818 <fputc>
    9778:	89 14       	cp	r8, r9
    977a:	30 f4       	brcc	.+12     	; 0x9788 <vfprintf+0x396>
    977c:	b6 01       	movw	r22, r12
    977e:	80 e3       	ldi	r24, 0x30	; 48
    9780:	90 e0       	ldi	r25, 0x00	; 0
    9782:	4a d0       	rcall	.+148    	; 0x9818 <fputc>
    9784:	9a 94       	dec	r9
    9786:	f8 cf       	rjmp	.-16     	; 0x9778 <vfprintf+0x386>
    9788:	8a 94       	dec	r8
    978a:	f3 01       	movw	r30, r6
    978c:	e8 0d       	add	r30, r8
    978e:	f1 1d       	adc	r31, r1
    9790:	80 81       	ld	r24, Z
    9792:	b6 01       	movw	r22, r12
    9794:	90 e0       	ldi	r25, 0x00	; 0
    9796:	40 d0       	rcall	.+128    	; 0x9818 <fputc>
    9798:	81 10       	cpse	r8, r1
    979a:	f6 cf       	rjmp	.-20     	; 0x9788 <vfprintf+0x396>
    979c:	22 20       	and	r2, r2
    979e:	09 f4       	brne	.+2      	; 0x97a2 <vfprintf+0x3b0>
    97a0:	4e ce       	rjmp	.-868    	; 0x943e <vfprintf+0x4c>
    97a2:	b6 01       	movw	r22, r12
    97a4:	80 e2       	ldi	r24, 0x20	; 32
    97a6:	90 e0       	ldi	r25, 0x00	; 0
    97a8:	37 d0       	rcall	.+110    	; 0x9818 <fputc>
    97aa:	2a 94       	dec	r2
    97ac:	f7 cf       	rjmp	.-18     	; 0x979c <vfprintf+0x3aa>
    97ae:	f6 01       	movw	r30, r12
    97b0:	86 81       	ldd	r24, Z+6	; 0x06
    97b2:	97 81       	ldd	r25, Z+7	; 0x07
    97b4:	02 c0       	rjmp	.+4      	; 0x97ba <vfprintf+0x3c8>
    97b6:	8f ef       	ldi	r24, 0xFF	; 255
    97b8:	9f ef       	ldi	r25, 0xFF	; 255
    97ba:	2b 96       	adiw	r28, 0x0b	; 11
    97bc:	0f b6       	in	r0, 0x3f	; 63
    97be:	f8 94       	cli
    97c0:	de bf       	out	0x3e, r29	; 62
    97c2:	0f be       	out	0x3f, r0	; 63
    97c4:	cd bf       	out	0x3d, r28	; 61
    97c6:	df 91       	pop	r29
    97c8:	cf 91       	pop	r28
    97ca:	1f 91       	pop	r17
    97cc:	0f 91       	pop	r16
    97ce:	ff 90       	pop	r15
    97d0:	ef 90       	pop	r14
    97d2:	df 90       	pop	r13
    97d4:	cf 90       	pop	r12
    97d6:	bf 90       	pop	r11
    97d8:	af 90       	pop	r10
    97da:	9f 90       	pop	r9
    97dc:	8f 90       	pop	r8
    97de:	7f 90       	pop	r7
    97e0:	6f 90       	pop	r6
    97e2:	5f 90       	pop	r5
    97e4:	4f 90       	pop	r4
    97e6:	3f 90       	pop	r3
    97e8:	2f 90       	pop	r2
    97ea:	08 95       	ret

000097ec <strnlen_P>:
    97ec:	fc 01       	movw	r30, r24
    97ee:	05 90       	lpm	r0, Z+
    97f0:	61 50       	subi	r22, 0x01	; 1
    97f2:	70 40       	sbci	r23, 0x00	; 0
    97f4:	01 10       	cpse	r0, r1
    97f6:	d8 f7       	brcc	.-10     	; 0x97ee <strnlen_P+0x2>
    97f8:	80 95       	com	r24
    97fa:	90 95       	com	r25
    97fc:	8e 0f       	add	r24, r30
    97fe:	9f 1f       	adc	r25, r31
    9800:	08 95       	ret

00009802 <strnlen>:
    9802:	fc 01       	movw	r30, r24
    9804:	61 50       	subi	r22, 0x01	; 1
    9806:	70 40       	sbci	r23, 0x00	; 0
    9808:	01 90       	ld	r0, Z+
    980a:	01 10       	cpse	r0, r1
    980c:	d8 f7       	brcc	.-10     	; 0x9804 <strnlen+0x2>
    980e:	80 95       	com	r24
    9810:	90 95       	com	r25
    9812:	8e 0f       	add	r24, r30
    9814:	9f 1f       	adc	r25, r31
    9816:	08 95       	ret

00009818 <fputc>:
    9818:	0f 93       	push	r16
    981a:	1f 93       	push	r17
    981c:	cf 93       	push	r28
    981e:	df 93       	push	r29
    9820:	fb 01       	movw	r30, r22
    9822:	23 81       	ldd	r18, Z+3	; 0x03
    9824:	21 fd       	sbrc	r18, 1
    9826:	03 c0       	rjmp	.+6      	; 0x982e <fputc+0x16>
    9828:	8f ef       	ldi	r24, 0xFF	; 255
    982a:	9f ef       	ldi	r25, 0xFF	; 255
    982c:	2c c0       	rjmp	.+88     	; 0x9886 <fputc+0x6e>
    982e:	22 ff       	sbrs	r18, 2
    9830:	16 c0       	rjmp	.+44     	; 0x985e <fputc+0x46>
    9832:	46 81       	ldd	r20, Z+6	; 0x06
    9834:	57 81       	ldd	r21, Z+7	; 0x07
    9836:	24 81       	ldd	r18, Z+4	; 0x04
    9838:	35 81       	ldd	r19, Z+5	; 0x05
    983a:	42 17       	cp	r20, r18
    983c:	53 07       	cpc	r21, r19
    983e:	44 f4       	brge	.+16     	; 0x9850 <fputc+0x38>
    9840:	a0 81       	ld	r26, Z
    9842:	b1 81       	ldd	r27, Z+1	; 0x01
    9844:	9d 01       	movw	r18, r26
    9846:	2f 5f       	subi	r18, 0xFF	; 255
    9848:	3f 4f       	sbci	r19, 0xFF	; 255
    984a:	31 83       	std	Z+1, r19	; 0x01
    984c:	20 83       	st	Z, r18
    984e:	8c 93       	st	X, r24
    9850:	26 81       	ldd	r18, Z+6	; 0x06
    9852:	37 81       	ldd	r19, Z+7	; 0x07
    9854:	2f 5f       	subi	r18, 0xFF	; 255
    9856:	3f 4f       	sbci	r19, 0xFF	; 255
    9858:	37 83       	std	Z+7, r19	; 0x07
    985a:	26 83       	std	Z+6, r18	; 0x06
    985c:	14 c0       	rjmp	.+40     	; 0x9886 <fputc+0x6e>
    985e:	8b 01       	movw	r16, r22
    9860:	ec 01       	movw	r28, r24
    9862:	fb 01       	movw	r30, r22
    9864:	00 84       	ldd	r0, Z+8	; 0x08
    9866:	f1 85       	ldd	r31, Z+9	; 0x09
    9868:	e0 2d       	mov	r30, r0
    986a:	19 95       	eicall
    986c:	89 2b       	or	r24, r25
    986e:	e1 f6       	brne	.-72     	; 0x9828 <fputc+0x10>
    9870:	d8 01       	movw	r26, r16
    9872:	16 96       	adiw	r26, 0x06	; 6
    9874:	8d 91       	ld	r24, X+
    9876:	9c 91       	ld	r25, X
    9878:	17 97       	sbiw	r26, 0x07	; 7
    987a:	01 96       	adiw	r24, 0x01	; 1
    987c:	17 96       	adiw	r26, 0x07	; 7
    987e:	9c 93       	st	X, r25
    9880:	8e 93       	st	-X, r24
    9882:	16 97       	sbiw	r26, 0x06	; 6
    9884:	ce 01       	movw	r24, r28
    9886:	df 91       	pop	r29
    9888:	cf 91       	pop	r28
    988a:	1f 91       	pop	r17
    988c:	0f 91       	pop	r16
    988e:	08 95       	ret

00009890 <__ultoa_invert>:
    9890:	fa 01       	movw	r30, r20
    9892:	aa 27       	eor	r26, r26
    9894:	28 30       	cpi	r18, 0x08	; 8
    9896:	51 f1       	breq	.+84     	; 0x98ec <__ultoa_invert+0x5c>
    9898:	20 31       	cpi	r18, 0x10	; 16
    989a:	81 f1       	breq	.+96     	; 0x98fc <__ultoa_invert+0x6c>
    989c:	e8 94       	clt
    989e:	6f 93       	push	r22
    98a0:	6e 7f       	andi	r22, 0xFE	; 254
    98a2:	6e 5f       	subi	r22, 0xFE	; 254
    98a4:	7f 4f       	sbci	r23, 0xFF	; 255
    98a6:	8f 4f       	sbci	r24, 0xFF	; 255
    98a8:	9f 4f       	sbci	r25, 0xFF	; 255
    98aa:	af 4f       	sbci	r26, 0xFF	; 255
    98ac:	b1 e0       	ldi	r27, 0x01	; 1
    98ae:	3e d0       	rcall	.+124    	; 0x992c <__ultoa_invert+0x9c>
    98b0:	b4 e0       	ldi	r27, 0x04	; 4
    98b2:	3c d0       	rcall	.+120    	; 0x992c <__ultoa_invert+0x9c>
    98b4:	67 0f       	add	r22, r23
    98b6:	78 1f       	adc	r23, r24
    98b8:	89 1f       	adc	r24, r25
    98ba:	9a 1f       	adc	r25, r26
    98bc:	a1 1d       	adc	r26, r1
    98be:	68 0f       	add	r22, r24
    98c0:	79 1f       	adc	r23, r25
    98c2:	8a 1f       	adc	r24, r26
    98c4:	91 1d       	adc	r25, r1
    98c6:	a1 1d       	adc	r26, r1
    98c8:	6a 0f       	add	r22, r26
    98ca:	71 1d       	adc	r23, r1
    98cc:	81 1d       	adc	r24, r1
    98ce:	91 1d       	adc	r25, r1
    98d0:	a1 1d       	adc	r26, r1
    98d2:	20 d0       	rcall	.+64     	; 0x9914 <__ultoa_invert+0x84>
    98d4:	09 f4       	brne	.+2      	; 0x98d8 <__ultoa_invert+0x48>
    98d6:	68 94       	set
    98d8:	3f 91       	pop	r19
    98da:	2a e0       	ldi	r18, 0x0A	; 10
    98dc:	26 9f       	mul	r18, r22
    98de:	11 24       	eor	r1, r1
    98e0:	30 19       	sub	r19, r0
    98e2:	30 5d       	subi	r19, 0xD0	; 208
    98e4:	31 93       	st	Z+, r19
    98e6:	de f6       	brtc	.-74     	; 0x989e <__ultoa_invert+0xe>
    98e8:	cf 01       	movw	r24, r30
    98ea:	08 95       	ret
    98ec:	46 2f       	mov	r20, r22
    98ee:	47 70       	andi	r20, 0x07	; 7
    98f0:	40 5d       	subi	r20, 0xD0	; 208
    98f2:	41 93       	st	Z+, r20
    98f4:	b3 e0       	ldi	r27, 0x03	; 3
    98f6:	0f d0       	rcall	.+30     	; 0x9916 <__ultoa_invert+0x86>
    98f8:	c9 f7       	brne	.-14     	; 0x98ec <__ultoa_invert+0x5c>
    98fa:	f6 cf       	rjmp	.-20     	; 0x98e8 <__ultoa_invert+0x58>
    98fc:	46 2f       	mov	r20, r22
    98fe:	4f 70       	andi	r20, 0x0F	; 15
    9900:	40 5d       	subi	r20, 0xD0	; 208
    9902:	4a 33       	cpi	r20, 0x3A	; 58
    9904:	18 f0       	brcs	.+6      	; 0x990c <__ultoa_invert+0x7c>
    9906:	49 5d       	subi	r20, 0xD9	; 217
    9908:	31 fd       	sbrc	r19, 1
    990a:	40 52       	subi	r20, 0x20	; 32
    990c:	41 93       	st	Z+, r20
    990e:	02 d0       	rcall	.+4      	; 0x9914 <__ultoa_invert+0x84>
    9910:	a9 f7       	brne	.-22     	; 0x98fc <__ultoa_invert+0x6c>
    9912:	ea cf       	rjmp	.-44     	; 0x98e8 <__ultoa_invert+0x58>
    9914:	b4 e0       	ldi	r27, 0x04	; 4
    9916:	a6 95       	lsr	r26
    9918:	97 95       	ror	r25
    991a:	87 95       	ror	r24
    991c:	77 95       	ror	r23
    991e:	67 95       	ror	r22
    9920:	ba 95       	dec	r27
    9922:	c9 f7       	brne	.-14     	; 0x9916 <__ultoa_invert+0x86>
    9924:	00 97       	sbiw	r24, 0x00	; 0
    9926:	61 05       	cpc	r22, r1
    9928:	71 05       	cpc	r23, r1
    992a:	08 95       	ret
    992c:	9b 01       	movw	r18, r22
    992e:	ac 01       	movw	r20, r24
    9930:	0a 2e       	mov	r0, r26
    9932:	06 94       	lsr	r0
    9934:	57 95       	ror	r21
    9936:	47 95       	ror	r20
    9938:	37 95       	ror	r19
    993a:	27 95       	ror	r18
    993c:	ba 95       	dec	r27
    993e:	c9 f7       	brne	.-14     	; 0x9932 <__ultoa_invert+0xa2>
    9940:	62 0f       	add	r22, r18
    9942:	73 1f       	adc	r23, r19
    9944:	84 1f       	adc	r24, r20
    9946:	95 1f       	adc	r25, r21
    9948:	a0 1d       	adc	r26, r0
    994a:	08 95       	ret

0000994c <_exit>:
    994c:	f8 94       	cli

0000994e <__stop_program>:
    994e:	ff cf       	rjmp	.-2      	; 0x994e <__stop_program>
